ARM GAS  C:\Users\galla\AppData\Local\Temp\ccm9r4Tj.s 			page 1


   1              		.cpu cortex-m7
   2              		.eabi_attribute 28, 1
   3              		.eabi_attribute 20, 1
   4              		.eabi_attribute 21, 1
   5              		.eabi_attribute 23, 3
   6              		.eabi_attribute 24, 1
   7              		.eabi_attribute 25, 1
   8              		.eabi_attribute 26, 1
   9              		.eabi_attribute 30, 2
  10              		.eabi_attribute 34, 1
  11              		.eabi_attribute 18, 4
  12              		.file	"DistBP.cpp"
  13              		.text
  14              	.Ltext0:
  15              		.cfi_sections	.debug_frame
  16              		.section	.text._ZN6DistBP4InitEv,"ax",%progbits
  17              		.align	1
  18              		.p2align 2,,3
  19              		.global	_ZN6DistBP4InitEv
  20              		.arch armv7e-m
  21              		.syntax unified
  22              		.thumb
  23              		.thumb_func
  24              		.fpu fpv5-d16
  26              	_ZN6DistBP4InitEv:
  27              	.LVL0:
  28              	.LFB544:
  29              		.file 1 "DistBP.cpp"
   1:DistBP.cpp    **** #include "DistBP.h"
   2:DistBP.cpp    **** 
   3:DistBP.cpp    **** 
   4:DistBP.cpp    **** 
   5:DistBP.cpp    **** void DistBP::Init(){
  30              		.loc 1 5 20 view -0
  31              		.cfi_startproc
  32              		@ args = 0, pretend = 0, frame = 0
  33              		@ frame_needed = 0, uses_anonymous_args = 0
  34              		@ link register save eliminated.
   6:DistBP.cpp    ****     for (int i = 0; i < MWSPT_NSEC; ++i) {
  35              		.loc 1 6 5 view .LVU1
  36              	.LBB2:
  37              		.loc 1 6 23 view .LVU2
  38 0000 00F13C02 		add	r2, r0, #60
  39              	.LVL1:
  40              	.L2:
  41              	.LBB3:
   7:DistBP.cpp    ****             for (int j = 0; j < 3; ++j) {
  42              		.loc 1 7 31 view .LVU3
   8:DistBP.cpp    ****                 input_buffer[i][j] = 0.0;
  43              		.loc 1 8 17 view .LVU4
  44              	.LBE3:
   6:DistBP.cpp    ****     for (int i = 0; i < MWSPT_NSEC; ++i) {
  45              		.loc 1 6 23 is_stmt 0 view .LVU5
  46 0004 0C30     		adds	r0, r0, #12
  47              	.LBB4:
  48              		.loc 1 8 36 view .LVU6
  49 0006 0023     		movs	r3, #0
ARM GAS  C:\Users\galla\AppData\Local\Temp\ccm9r4Tj.s 			page 2


  50              	.LBE4:
   6:DistBP.cpp    ****     for (int i = 0; i < MWSPT_NSEC; ++i) {
  51              		.loc 1 6 23 view .LVU7
  52 0008 9042     		cmp	r0, r2
  53              	.LBB5:
  54              		.loc 1 8 36 view .LVU8
  55 000a C0F89430 		str	r3, [r0, #148]	@ float
   9:DistBP.cpp    ****                 output_buffer[i][j] = 0.0;
  56              		.loc 1 9 17 is_stmt 1 view .LVU9
  57              		.loc 1 9 37 is_stmt 0 view .LVU10
  58 000e C0F8D030 		str	r3, [r0, #208]	@ float
   7:DistBP.cpp    ****             for (int j = 0; j < 3; ++j) {
  59              		.loc 1 7 13 is_stmt 1 view .LVU11
  60              	.LVL2:
   7:DistBP.cpp    ****             for (int j = 0; j < 3; ++j) {
  61              		.loc 1 7 31 view .LVU12
   8:DistBP.cpp    ****                 input_buffer[i][j] = 0.0;
  62              		.loc 1 8 17 view .LVU13
   8:DistBP.cpp    ****                 input_buffer[i][j] = 0.0;
  63              		.loc 1 8 36 is_stmt 0 view .LVU14
  64 0012 C0F89830 		str	r3, [r0, #152]	@ float
  65              		.loc 1 9 17 is_stmt 1 view .LVU15
  66              		.loc 1 9 37 is_stmt 0 view .LVU16
  67 0016 C0F8D430 		str	r3, [r0, #212]	@ float
   7:DistBP.cpp    ****             for (int j = 0; j < 3; ++j) {
  68              		.loc 1 7 13 is_stmt 1 view .LVU17
  69              	.LVL3:
   7:DistBP.cpp    ****             for (int j = 0; j < 3; ++j) {
  70              		.loc 1 7 31 view .LVU18
   8:DistBP.cpp    ****                 input_buffer[i][j] = 0.0;
  71              		.loc 1 8 17 view .LVU19
   8:DistBP.cpp    ****                 input_buffer[i][j] = 0.0;
  72              		.loc 1 8 36 is_stmt 0 view .LVU20
  73 001a C0F89C30 		str	r3, [r0, #156]	@ float
  74              		.loc 1 9 17 is_stmt 1 view .LVU21
  75              		.loc 1 9 37 is_stmt 0 view .LVU22
  76 001e C0F8D830 		str	r3, [r0, #216]	@ float
   7:DistBP.cpp    ****             for (int j = 0; j < 3; ++j) {
  77              		.loc 1 7 13 is_stmt 1 view .LVU23
  78              	.LVL4:
   7:DistBP.cpp    ****             for (int j = 0; j < 3; ++j) {
  79              		.loc 1 7 31 view .LVU24
  80              	.LBE5:
   6:DistBP.cpp    ****             for (int j = 0; j < 3; ++j) {
  81              		.loc 1 6 5 view .LVU25
   6:DistBP.cpp    ****             for (int j = 0; j < 3; ++j) {
  82              		.loc 1 6 23 view .LVU26
  83 0022 EFD1     		bne	.L2
  84              	.LBE2:
  10:DistBP.cpp    ****             }
  11:DistBP.cpp    ****         }
  12:DistBP.cpp    **** }
  85              		.loc 1 12 1 is_stmt 0 view .LVU27
  86 0024 7047     		bx	lr
  87              		.cfi_endproc
  88              	.LFE544:
  90 0026 00BF     		.section	.text._ZN6DistBP7ProcessEf,"ax",%progbits
ARM GAS  C:\Users\galla\AppData\Local\Temp\ccm9r4Tj.s 			page 3


  91              		.align	1
  92              		.p2align 2,,3
  93              		.global	_ZN6DistBP7ProcessEf
  94              		.syntax unified
  95              		.thumb
  96              		.thumb_func
  97              		.fpu fpv5-d16
  99              	_ZN6DistBP7ProcessEf:
 100              	.LVL5:
 101              	.LFB545:
  13:DistBP.cpp    **** 
  14:DistBP.cpp    **** float DistBP::Process(float in){
 102              		.loc 1 14 32 is_stmt 1 view -0
 103              		.cfi_startproc
 104              		@ args = 0, pretend = 0, frame = 0
 105              		@ frame_needed = 0, uses_anonymous_args = 0
  15:DistBP.cpp    ****     float output = in;
 106              		.loc 1 15 5 view .LVU29
  14:DistBP.cpp    ****     float output = in;
 107              		.loc 1 14 32 is_stmt 0 view .LVU30
 108 0000 00B5     		push	{lr}
 109              		.cfi_def_cfa_offset 4
 110              		.cfi_offset 14, -4
 111 0002 00F11402 		add	r2, r0, #20
 112              	.LBB6:
  16:DistBP.cpp    **** 
  17:DistBP.cpp    ****         for (int i = 0; i < MWSPT_NSEC; ++i) {
 113              		.loc 1 17 18 view .LVU31
 114 0006 4FF0000E 		mov	lr, #0
 115              	.LVL6:
 116              		.loc 1 17 18 view .LVU32
 117              	.LBE6:
 118              		.loc 1 17 9 is_stmt 1 view .LVU33
 119              	.LBB17:
 120              		.loc 1 17 27 view .LVU34
 121              	.L9:
 122              	.LBB7:
 123              	.LBB8:
  18:DistBP.cpp    ****             // Shift the old values in buffers
  19:DistBP.cpp    ****             for (int j = 2; j > 0; --j) {
 124              		.loc 1 19 31 view .LVU35
  20:DistBP.cpp    ****                 input_buffer[i][j] = input_buffer[i][j - 1];
 125              		.loc 1 20 17 view .LVU36
 126              		.loc 1 20 36 is_stmt 0 view .LVU37
 127 000a 92ED246A 		vldr.32	s12, [r2, #144]
 128              	.LBE8:
  21:DistBP.cpp    ****                 output_buffer[i][j] = output_buffer[i][j - 1];
  22:DistBP.cpp    ****             }
  23:DistBP.cpp    **** 
  24:DistBP.cpp    ****             // Store the new input
  25:DistBP.cpp    ****             input_buffer[i][0] = output;
 129              		.loc 1 25 32 view .LVU38
 130 000e F0EE407A 		vmov.f32	s15, s0
 131              	.LBB9:
  21:DistBP.cpp    ****                 output_buffer[i][j] = output_buffer[i][j - 1];
 132              		.loc 1 21 37 view .LVU39
 133 0012 D2ED336A 		vldr.32	s13, [r2, #204]
ARM GAS  C:\Users\galla\AppData\Local\Temp\ccm9r4Tj.s 			page 4


 134              	.LBE9:
 135              		.loc 1 25 32 view .LVU40
 136 0016 9446     		mov	ip, r2
 137              	.LBB10:
  20:DistBP.cpp    ****                 input_buffer[i][j] = input_buffer[i][j - 1];
 138              		.loc 1 20 36 view .LVU41
 139 0018 92ED237A 		vldr.32	s14, [r2, #140]
 140              	.LBE10:
 141              		.loc 1 25 32 view .LVU42
 142 001c 0121     		movs	r1, #1
 143              	.LBB11:
  21:DistBP.cpp    ****                 output_buffer[i][j] = output_buffer[i][j - 1];
 144              		.loc 1 21 37 view .LVU43
 145 001e D2F8C830 		ldr	r3, [r2, #200]	@ float
 146              	.LBE11:
 147              		.loc 1 25 32 view .LVU44
 148 0022 82ED230A 		vstr.32	s0, [r2, #140]
  26:DistBP.cpp    **** 
  27:DistBP.cpp    ****             // Compute the new output for the current section
  28:DistBP.cpp    ****             float temp_output = 0.0;
 149              		.loc 1 28 19 view .LVU45
 150 0026 9FED150A 		vldr.32	s0, .L14
 151              	.LVL7:
 152              	.LBB12:
  20:DistBP.cpp    ****                 output_buffer[i][j] = output_buffer[i][j - 1];
 153              		.loc 1 20 36 view .LVU46
 154 002a 82ED256A 		vstr.32	s12, [r2, #148]
  21:DistBP.cpp    ****                 output_buffer[i][j] = output_buffer[i][j - 1];
 155              		.loc 1 21 17 is_stmt 1 view .LVU47
  21:DistBP.cpp    ****                 output_buffer[i][j] = output_buffer[i][j - 1];
 156              		.loc 1 21 37 is_stmt 0 view .LVU48
 157 002e C2ED346A 		vstr.32	s13, [r2, #208]
  19:DistBP.cpp    ****                 input_buffer[i][j] = input_buffer[i][j - 1];
 158              		.loc 1 19 13 is_stmt 1 view .LVU49
 159              	.LVL8:
  19:DistBP.cpp    ****                 input_buffer[i][j] = input_buffer[i][j - 1];
 160              		.loc 1 19 31 view .LVU50
  20:DistBP.cpp    ****                 output_buffer[i][j] = output_buffer[i][j - 1];
 161              		.loc 1 20 17 view .LVU51
  20:DistBP.cpp    ****                 output_buffer[i][j] = output_buffer[i][j - 1];
 162              		.loc 1 20 36 is_stmt 0 view .LVU52
 163 0032 82ED247A 		vstr.32	s14, [r2, #144]
  21:DistBP.cpp    ****             }
 164              		.loc 1 21 17 is_stmt 1 view .LVU53
  21:DistBP.cpp    ****             }
 165              		.loc 1 21 37 is_stmt 0 view .LVU54
 166 0036 C2F8CC30 		str	r3, [r2, #204]	@ float
  19:DistBP.cpp    ****                 input_buffer[i][j] = input_buffer[i][j - 1];
 167              		.loc 1 19 13 is_stmt 1 view .LVU55
 168              	.LVL9:
  19:DistBP.cpp    ****                 input_buffer[i][j] = input_buffer[i][j - 1];
 169              		.loc 1 19 31 view .LVU56
 170              	.LBE12:
  25:DistBP.cpp    **** 
 171              		.loc 1 25 13 view .LVU57
 172              		.loc 1 28 13 view .LVU58
  29:DistBP.cpp    ****             for (int j = 0; j < 3; ++j) {
ARM GAS  C:\Users\galla\AppData\Local\Temp\ccm9r4Tj.s 			page 5


 173              		.loc 1 29 13 view .LVU59
 174              	.LBB13:
 175              		.loc 1 29 31 view .LVU60
 176              	.L8:
  30:DistBP.cpp    ****                 temp_output += NUM[i][j] * input_buffer[i][j];
 177              		.loc 1 30 17 view .LVU61
  31:DistBP.cpp    ****                 if (j > 0) {
  32:DistBP.cpp    ****                     temp_output -= DEN[i][j] * output_buffer[i][j];
 178              		.loc 1 32 21 view .LVU62
  30:DistBP.cpp    ****                 temp_output += NUM[i][j] * input_buffer[i][j];
 179              		.loc 1 30 61 is_stmt 0 view .LVU63
 180 003a 0EEB4E03 		add	r3, lr, lr, lsl #1
  30:DistBP.cpp    ****                 temp_output += NUM[i][j] * input_buffer[i][j];
 181              		.loc 1 30 40 view .LVU64
 182 003e BCEC017A 		vldmia.32	ip!, {s14}
  31:DistBP.cpp    ****                 if (j > 0) {
 183              		.loc 1 31 17 view .LVU65
 184 0042 0129     		cmp	r1, #1
  30:DistBP.cpp    ****                 temp_output += NUM[i][j] * input_buffer[i][j];
 185              		.loc 1 30 61 view .LVU66
 186 0044 0B44     		add	r3, r3, r1
  30:DistBP.cpp    ****                 temp_output += NUM[i][j] * input_buffer[i][j];
 187              		.loc 1 30 29 view .LVU67
 188 0046 A7EE870A 		vfma.f32	s0, s15, s14
 189              	.LVL10:
  31:DistBP.cpp    ****                 if (j > 0) {
 190              		.loc 1 31 17 is_stmt 1 view .LVU68
  30:DistBP.cpp    ****                 temp_output += NUM[i][j] * input_buffer[i][j];
 191              		.loc 1 30 61 is_stmt 0 view .LVU69
 192 004a 00EB8303 		add	r3, r0, r3, lsl #2
  31:DistBP.cpp    ****                 if (j > 0) {
 193              		.loc 1 31 17 view .LVU70
 194 004e 11D0     		beq	.L6
 195              		.loc 1 32 33 view .LVU71
 196 0050 9CED137A 		vldr.32	s14, [ip, #76]
  29:DistBP.cpp    ****                 temp_output += NUM[i][j] * input_buffer[i][j];
 197              		.loc 1 29 31 view .LVU72
 198 0054 0329     		cmp	r1, #3
 199              		.loc 1 32 33 view .LVU73
 200 0056 DCED317A 		vldr.32	s15, [ip, #196]
 201 005a A7EE670A 		vfms.f32	s0, s14, s15
 202              	.LVL11:
  29:DistBP.cpp    ****                 temp_output += NUM[i][j] * input_buffer[i][j];
 203              		.loc 1 29 13 is_stmt 1 view .LVU74
  29:DistBP.cpp    ****                 temp_output += NUM[i][j] * input_buffer[i][j];
 204              		.loc 1 29 31 view .LVU75
 205 005e 09D1     		bne	.L6
 206              	.LBE13:
  33:DistBP.cpp    ****                 }
  34:DistBP.cpp    ****             }
  35:DistBP.cpp    **** 
  36:DistBP.cpp    ****             // Store the new output
  37:DistBP.cpp    ****             output_buffer[i][0] = temp_output;
 207              		.loc 1 37 13 discriminator 2 view .LVU76
 208              	.LBE7:
  17:DistBP.cpp    ****             // Shift the old values in buffers
 209              		.loc 1 17 9 is_stmt 0 discriminator 2 view .LVU77
ARM GAS  C:\Users\galla\AppData\Local\Temp\ccm9r4Tj.s 			page 6


 210 0060 0EF1010E 		add	lr, lr, #1
 211              	.LVL12:
 212              	.LBB15:
 213              		.loc 1 37 33 discriminator 2 view .LVU78
 214 0064 82ED320A 		vstr.32	s0, [r2, #200]
  38:DistBP.cpp    ****             output = temp_output;
 215              		.loc 1 38 13 is_stmt 1 discriminator 2 view .LVU79
 216              	.LVL13:
 217              		.loc 1 38 13 is_stmt 0 discriminator 2 view .LVU80
 218              	.LBE15:
  17:DistBP.cpp    ****             // Shift the old values in buffers
 219              		.loc 1 17 9 is_stmt 1 discriminator 2 view .LVU81
  17:DistBP.cpp    ****             // Shift the old values in buffers
 220              		.loc 1 17 27 discriminator 2 view .LVU82
 221 0068 0C32     		adds	r2, r2, #12
 222 006a BEF1050F 		cmp	lr, #5
 223 006e CCD1     		bne	.L9
 224              	.LBE17:
  39:DistBP.cpp    ****         }
  40:DistBP.cpp    **** 
  41:DistBP.cpp    ****         return output;
 225              		.loc 1 41 9 view .LVU83
  42:DistBP.cpp    **** }...
 226              		.loc 1 42 1 is_stmt 0 view .LVU84
 227 0070 5DF804FB 		ldr	pc, [sp], #4
 228              	.LVL14:
 229              	.L6:
 230              	.LBB18:
 231              	.LBB16:
 232              	.LBB14:
  30:DistBP.cpp    ****                 temp_output += NUM[i][j] * input_buffer[i][j];
 233              		.loc 1 30 61 view .LVU85
 234 0074 D3ED287A 		vldr.32	s15, [r3, #160]
 235 0078 0131     		adds	r1, r1, #1
 236              	.LVL15:
  30:DistBP.cpp    ****                 temp_output += NUM[i][j] * input_buffer[i][j];
 237              		.loc 1 30 61 view .LVU86
 238 007a DEE7     		b	.L8
 239              	.L15:
 240              		.align	2
 241              	.L14:
 242 007c 00000000 		.word	0
 243              	.LBE14:
 244              	.LBE16:
 245              	.LBE18:
 246              		.cfi_endproc
 247              	.LFE545:
 249              		.text
 250              	.Letext0:
 251              		.file 2 "c:\\program files\\daisytoolchain\\arm-none-eabi\\include\\c++\\10.2.1\\cmath"
 252              		.file 3 "c:\\program files\\daisytoolchain\\arm-none-eabi\\include\\c++\\10.2.1\\bits\\std_abs.h"
 253              		.file 4 "c:\\program files\\daisytoolchain\\arm-none-eabi\\include\\c++\\10.2.1\\arm-none-eabi\\th
 254              		.file 5 "c:\\program files\\daisytoolchain\\arm-none-eabi\\include\\math.h"
 255              		.file 6 "c:\\program files\\daisytoolchain\\arm-none-eabi\\include\\c++\\10.2.1\\math.h"
 256              		.file 7 "DistBP.h"
 257              		.file 8 "<built-in>"
ARM GAS  C:\Users\galla\AppData\Local\Temp\ccm9r4Tj.s 			page 7


DEFINED SYMBOLS
                            *ABS*:00000000 DistBP.cpp
C:\Users\galla\AppData\Local\Temp\ccm9r4Tj.s:17     .text._ZN6DistBP4InitEv:00000000 $t
C:\Users\galla\AppData\Local\Temp\ccm9r4Tj.s:26     .text._ZN6DistBP4InitEv:00000000 _ZN6DistBP4InitEv
C:\Users\galla\AppData\Local\Temp\ccm9r4Tj.s:91     .text._ZN6DistBP7ProcessEf:00000000 $t
C:\Users\galla\AppData\Local\Temp\ccm9r4Tj.s:99     .text._ZN6DistBP7ProcessEf:00000000 _ZN6DistBP7ProcessEf
C:\Users\galla\AppData\Local\Temp\ccm9r4Tj.s:242    .text._ZN6DistBP7ProcessEf:0000007c $d

NO UNDEFINED SYMBOLS
