ARM GAS  C:\Users\galla\AppData\Local\Temp\ccVNmTCK.s 			page 1


   1              		.cpu cortex-m7
   2              		.eabi_attribute 28, 1
   3              		.eabi_attribute 20, 1
   4              		.eabi_attribute 21, 1
   5              		.eabi_attribute 23, 3
   6              		.eabi_attribute 24, 1
   7              		.eabi_attribute 25, 1
   8              		.eabi_attribute 26, 1
   9              		.eabi_attribute 30, 2
  10              		.eabi_attribute 34, 1
  11              		.eabi_attribute 18, 4
  12              		.file	"main.cpp"
  13              		.text
  14              	.Ltext0:
  15              		.cfi_sections	.debug_frame
  16              		.section	.text._ZN5daisy9DaisySeedD2Ev,"axG",%progbits,_ZN5daisy9DaisySeedD5Ev,comdat
  17              		.align	1
  18              		.p2align 2,,3
  19              		.weak	_ZN5daisy9DaisySeedD2Ev
  20              		.arch armv7e-m
  21              		.syntax unified
  22              		.thumb
  23              		.thumb_func
  24              		.fpu fpv5-d16
  26              	_ZN5daisy9DaisySeedD2Ev:
  27              	.LVL0:
  28              	.LFB2555:
  29              		.file 1 "../../libDaisy/src/daisy_seed.h"
   1:../../libDaisy/src/daisy_seed.h **** #pragma once
   2:../../libDaisy/src/daisy_seed.h **** #ifndef DSY_SEED_H
   3:../../libDaisy/src/daisy_seed.h **** #define DSY_SEED_H
   4:../../libDaisy/src/daisy_seed.h **** 
   5:../../libDaisy/src/daisy_seed.h **** #include "daisy.h"
   6:../../libDaisy/src/daisy_seed.h **** 
   7:../../libDaisy/src/daisy_seed.h **** //Uncomment this out if you're still using the rev2 hardware
   8:../../libDaisy/src/daisy_seed.h **** //#define SEED_REV2
   9:../../libDaisy/src/daisy_seed.h **** 
  10:../../libDaisy/src/daisy_seed.h **** namespace daisy
  11:../../libDaisy/src/daisy_seed.h **** {
  12:../../libDaisy/src/daisy_seed.h **** /**
  13:../../libDaisy/src/daisy_seed.h ****    @brief This is the higher-level interface for the Daisy board. \n 
  14:../../libDaisy/src/daisy_seed.h ****     All basic peripheral configuration/initialization is setup here. \n
  15:../../libDaisy/src/daisy_seed.h **** 
  16:../../libDaisy/src/daisy_seed.h ****    @ingroup boards
  17:../../libDaisy/src/daisy_seed.h **** */
  18:../../libDaisy/src/daisy_seed.h **** class DaisySeed
  19:../../libDaisy/src/daisy_seed.h **** {
  20:../../libDaisy/src/daisy_seed.h ****   public:
  21:../../libDaisy/src/daisy_seed.h ****     DaisySeed() {}
  22:../../libDaisy/src/daisy_seed.h ****     ~DaisySeed() {}
  30              		.loc 1 22 5 view -0
  31              		.cfi_startproc
  32              		@ args = 0, pretend = 0, frame = 0
  33              		@ frame_needed = 0, uses_anonymous_args = 0
  34              		@ link register save eliminated.
  35              	.LBB169:
  36              	.LBI169:
ARM GAS  C:\Users\galla\AppData\Local\Temp\ccVNmTCK.s 			page 2


  37              		.file 2 "../../libDaisy/src/sys/system.h"
   1:../../libDaisy/src/sys/system.h **** #ifndef DSY_SYSTEM_H
   2:../../libDaisy/src/sys/system.h **** #define DSY_SYSTEM_H
   3:../../libDaisy/src/sys/system.h **** 
   4:../../libDaisy/src/sys/system.h **** #ifndef UNIT_TEST // for unit tests, a dummy implementation is provided below
   5:../../libDaisy/src/sys/system.h **** 
   6:../../libDaisy/src/sys/system.h **** #include <cstdint>
   7:../../libDaisy/src/sys/system.h **** #include "per/tim.h"
   8:../../libDaisy/src/sys/system.h **** 
   9:../../libDaisy/src/sys/system.h **** namespace daisy
  10:../../libDaisy/src/sys/system.h **** {
  11:../../libDaisy/src/sys/system.h **** /** A handle for interacting with the Core System.
  12:../../libDaisy/src/sys/system.h ****  ** This includes the Clock tree, MPU, global DMA initialization,
  13:../../libDaisy/src/sys/system.h ****  ** cache handling, and any other necessary global initiailzation
  14:../../libDaisy/src/sys/system.h ****  **
  15:../../libDaisy/src/sys/system.h ****  ** @author shensley
  16:../../libDaisy/src/sys/system.h ****  ** @ingroup system
  17:../../libDaisy/src/sys/system.h ****  */
  18:../../libDaisy/src/sys/system.h **** class System
  19:../../libDaisy/src/sys/system.h **** {
  20:../../libDaisy/src/sys/system.h ****   public:
  21:../../libDaisy/src/sys/system.h ****     /** Contains settings for initializing the System */
  22:../../libDaisy/src/sys/system.h ****     struct Config
  23:../../libDaisy/src/sys/system.h ****     {
  24:../../libDaisy/src/sys/system.h ****         /** Specifies the system clock frequency that feeds APB/AHB clocks, etc. */
  25:../../libDaisy/src/sys/system.h ****         enum class SysClkFreq
  26:../../libDaisy/src/sys/system.h ****         {
  27:../../libDaisy/src/sys/system.h ****             FREQ_400MHZ,
  28:../../libDaisy/src/sys/system.h ****             FREQ_480MHZ,
  29:../../libDaisy/src/sys/system.h ****         };
  30:../../libDaisy/src/sys/system.h **** 
  31:../../libDaisy/src/sys/system.h ****         /** Method to call on the struct to set to defaults
  32:../../libDaisy/src/sys/system.h ****          ** CPU Freq set to 400MHz
  33:../../libDaisy/src/sys/system.h ****          ** Cache Enabled
  34:../../libDaisy/src/sys/system.h ****          ** */
  35:../../libDaisy/src/sys/system.h ****         void Defaults()
  36:../../libDaisy/src/sys/system.h ****         {
  37:../../libDaisy/src/sys/system.h ****             cpu_freq    = SysClkFreq::FREQ_400MHZ;
  38:../../libDaisy/src/sys/system.h ****             use_dcache  = true;
  39:../../libDaisy/src/sys/system.h ****             use_icache  = true;
  40:../../libDaisy/src/sys/system.h ****             skip_clocks = false;
  41:../../libDaisy/src/sys/system.h ****         }
  42:../../libDaisy/src/sys/system.h **** 
  43:../../libDaisy/src/sys/system.h ****         /** Method to call on the struct to set to boost mode:
  44:../../libDaisy/src/sys/system.h ****          ** CPU Freq set to 480MHz
  45:../../libDaisy/src/sys/system.h ****          ** Cache Enabled
  46:../../libDaisy/src/sys/system.h ****          ** */
  47:../../libDaisy/src/sys/system.h ****         void Boost()
  48:../../libDaisy/src/sys/system.h ****         {
  49:../../libDaisy/src/sys/system.h ****             cpu_freq    = SysClkFreq::FREQ_480MHZ;
  50:../../libDaisy/src/sys/system.h ****             use_dcache  = true;
  51:../../libDaisy/src/sys/system.h ****             use_icache  = true;
  52:../../libDaisy/src/sys/system.h ****             skip_clocks = false;
  53:../../libDaisy/src/sys/system.h ****         }
  54:../../libDaisy/src/sys/system.h **** 
  55:../../libDaisy/src/sys/system.h ****         SysClkFreq cpu_freq;
  56:../../libDaisy/src/sys/system.h ****         bool       use_dcache;
ARM GAS  C:\Users\galla\AppData\Local\Temp\ccVNmTCK.s 			page 3


  57:../../libDaisy/src/sys/system.h ****         bool       use_icache;
  58:../../libDaisy/src/sys/system.h ****         bool       skip_clocks;
  59:../../libDaisy/src/sys/system.h ****     };
  60:../../libDaisy/src/sys/system.h **** 
  61:../../libDaisy/src/sys/system.h ****     /** Describes the different regions of memory available to the Daisy */
  62:../../libDaisy/src/sys/system.h ****     enum MemoryRegion
  63:../../libDaisy/src/sys/system.h ****     {
  64:../../libDaisy/src/sys/system.h ****         INTERNAL_FLASH = 0,
  65:../../libDaisy/src/sys/system.h ****         ITCMRAM,
  66:../../libDaisy/src/sys/system.h ****         DTCMRAM,
  67:../../libDaisy/src/sys/system.h ****         SRAM_D1,
  68:../../libDaisy/src/sys/system.h ****         SRAM_D2,
  69:../../libDaisy/src/sys/system.h ****         SRAM_D3,
  70:../../libDaisy/src/sys/system.h ****         SDRAM,
  71:../../libDaisy/src/sys/system.h ****         QSPI,
  72:../../libDaisy/src/sys/system.h ****         INVALID_ADDRESS,
  73:../../libDaisy/src/sys/system.h ****     };
  74:../../libDaisy/src/sys/system.h **** 
  75:../../libDaisy/src/sys/system.h ****     /** Bootloader struct for controlling bootloading parameters */
  76:../../libDaisy/src/sys/system.h ****     struct BootInfo
  77:../../libDaisy/src/sys/system.h ****     {
  78:../../libDaisy/src/sys/system.h ****         enum class Type : uint32_t
  79:../../libDaisy/src/sys/system.h ****         {
  80:../../libDaisy/src/sys/system.h ****             INVALID      = 0x00000000,
  81:../../libDaisy/src/sys/system.h ****             JUMP         = 0xDEADBEEF,
  82:../../libDaisy/src/sys/system.h ****             SKIP_TIMEOUT = 0x5AFEB007,
  83:../../libDaisy/src/sys/system.h ****             INF_TIMEOUT  = 0xB0074EFA,
  84:../../libDaisy/src/sys/system.h ****         } status;
  85:../../libDaisy/src/sys/system.h ****         uint32_t data;
  86:../../libDaisy/src/sys/system.h ****         enum class Version : uint32_t
  87:../../libDaisy/src/sys/system.h ****         {
  88:../../libDaisy/src/sys/system.h ****             LT_v6_0 = 0, // Less than v6.0
  89:../../libDaisy/src/sys/system.h ****             NONE,        // No bootloader present
  90:../../libDaisy/src/sys/system.h ****             v6_0,        // v6.0
  91:../../libDaisy/src/sys/system.h ****             v6_1,        // v6.1 or greater
  92:../../libDaisy/src/sys/system.h ****             LAST
  93:../../libDaisy/src/sys/system.h ****         } version;
  94:../../libDaisy/src/sys/system.h ****     };
  95:../../libDaisy/src/sys/system.h **** 
  96:../../libDaisy/src/sys/system.h ****     System() {}
  97:../../libDaisy/src/sys/system.h ****     ~System() {}
  38              		.loc 2 97 5 view .LVU1
  39              		.loc 2 97 5 is_stmt 0 view .LVU2
  40              	.LBE169:
  41              	.LBB170:
  42              	.LBI170:
  43              		.file 3 "../../libDaisy/src/hid/usb.h"
   1:../../libDaisy/src/hid/usb.h **** #pragma once
   2:../../libDaisy/src/hid/usb.h **** #ifndef DSY_HID_USB_H
   3:../../libDaisy/src/hid/usb.h **** #define DSY_HID_USB_H
   4:../../libDaisy/src/hid/usb.h **** #include <stdint.h>
   5:../../libDaisy/src/hid/usb.h **** #include <stdlib.h>
   6:../../libDaisy/src/hid/usb.h **** 
   7:../../libDaisy/src/hid/usb.h **** namespace daisy
   8:../../libDaisy/src/hid/usb.h **** /** @addtogroup human_interface
   9:../../libDaisy/src/hid/usb.h ****     @{
  10:../../libDaisy/src/hid/usb.h **** */
ARM GAS  C:\Users\galla\AppData\Local\Temp\ccVNmTCK.s 			page 4


  11:../../libDaisy/src/hid/usb.h **** 
  12:../../libDaisy/src/hid/usb.h **** {
  13:../../libDaisy/src/hid/usb.h **** /** 
  14:../../libDaisy/src/hid/usb.h ****     @brief Interface for initializing and using the USB Peripherals on the daisy
  15:../../libDaisy/src/hid/usb.h ****     @author Stephen Hensley
  16:../../libDaisy/src/hid/usb.h ****     @date December 2019
  17:../../libDaisy/src/hid/usb.h **** */
  18:../../libDaisy/src/hid/usb.h **** class UsbHandle
  19:../../libDaisy/src/hid/usb.h **** {
  20:../../libDaisy/src/hid/usb.h ****   public:
  21:../../libDaisy/src/hid/usb.h ****     /** Return values for USBHandle Functions */
  22:../../libDaisy/src/hid/usb.h ****     enum class Result
  23:../../libDaisy/src/hid/usb.h ****     {
  24:../../libDaisy/src/hid/usb.h ****         OK,
  25:../../libDaisy/src/hid/usb.h ****         ERR,
  26:../../libDaisy/src/hid/usb.h ****     };
  27:../../libDaisy/src/hid/usb.h **** 
  28:../../libDaisy/src/hid/usb.h ****     /** Specified which of the two USB Peripherals to initialize. */
  29:../../libDaisy/src/hid/usb.h ****     enum UsbPeriph
  30:../../libDaisy/src/hid/usb.h ****     {
  31:../../libDaisy/src/hid/usb.h ****         FS_INTERNAL, /**< Internal pin */
  32:../../libDaisy/src/hid/usb.h ****         FS_EXTERNAL, /**< FS External D+ pin is Pin 38 (GPIO32). FS External D- pin is Pin 37 (GPIO
  33:../../libDaisy/src/hid/usb.h ****         FS_BOTH,     /**< Both */
  34:../../libDaisy/src/hid/usb.h ****     };
  35:../../libDaisy/src/hid/usb.h **** 
  36:../../libDaisy/src/hid/usb.h **** 
  37:../../libDaisy/src/hid/usb.h ****     /** Function called upon reception of a buffer */
  38:../../libDaisy/src/hid/usb.h ****     typedef void (*ReceiveCallback)(uint8_t* buff, uint32_t* len);
  39:../../libDaisy/src/hid/usb.h **** 
  40:../../libDaisy/src/hid/usb.h ****     UsbHandle() {}
  41:../../libDaisy/src/hid/usb.h **** 
  42:../../libDaisy/src/hid/usb.h ****     ~UsbHandle() {}
  44              		.loc 3 42 5 is_stmt 1 view .LVU3
  45              		.loc 3 42 5 is_stmt 0 view .LVU4
  46              	.LBE170:
  47              	.LBB171:
  48              	.LBI171:
  49              		.file 4 "../../libDaisy/src/per/adc.h"
   1:../../libDaisy/src/per/adc.h **** #pragma once
   2:../../libDaisy/src/per/adc.h **** #ifndef DSY_ADC_H
   3:../../libDaisy/src/per/adc.h **** #define DSY_ADC_H /**< Macro */
   4:../../libDaisy/src/per/adc.h **** #include <stdint.h>
   5:../../libDaisy/src/per/adc.h **** #include <stdlib.h>
   6:../../libDaisy/src/per/adc.h **** #include "daisy_core.h"
   7:../../libDaisy/src/per/adc.h **** #include "per/gpio.h"
   8:../../libDaisy/src/per/adc.h **** 
   9:../../libDaisy/src/per/adc.h **** #define DSY_ADC_MAX_CHANNELS 16 /**< Maximum number of ADC channels */
  10:../../libDaisy/src/per/adc.h **** 
  11:../../libDaisy/src/per/adc.h **** namespace daisy
  12:../../libDaisy/src/per/adc.h **** {
  13:../../libDaisy/src/per/adc.h **** /** @addtogroup per_analog
  14:../../libDaisy/src/per/adc.h ****     @{
  15:../../libDaisy/src/per/adc.h **** */
  16:../../libDaisy/src/per/adc.h **** 
  17:../../libDaisy/src/per/adc.h **** /* While there may not be many configuration options here,
  18:../../libDaisy/src/per/adc.h **** using a struct like this allows us to add more configuration
  19:../../libDaisy/src/per/adc.h **** later without breaking existing functionality.
ARM GAS  C:\Users\galla\AppData\Local\Temp\ccVNmTCK.s 			page 5


  20:../../libDaisy/src/per/adc.h **** */
  21:../../libDaisy/src/per/adc.h **** 
  22:../../libDaisy/src/per/adc.h **** /** @brief   Configuration Structure for an ADC Channel 
  23:../../libDaisy/src/per/adc.h ****  *  @details This can be used to configure a a single input, 
  24:../../libDaisy/src/per/adc.h ****  *           or a multiplexed input, allowing up to 8 inputs on 
  25:../../libDaisy/src/per/adc.h ****  *           one channel.
  26:../../libDaisy/src/per/adc.h ****  *  @note    Sharing data lines to multiple muxes _is_ possible, but
  27:../../libDaisy/src/per/adc.h ****  *           each channel sharing data lines must be set to the maximum
  28:../../libDaisy/src/per/adc.h ****  *           number of channels, even if some multiplexers have fewer
  29:../../libDaisy/src/per/adc.h ****  *           inputs connected.
  30:../../libDaisy/src/per/adc.h **** */
  31:../../libDaisy/src/per/adc.h **** struct AdcChannelConfig
  32:../../libDaisy/src/per/adc.h **** {
  33:../../libDaisy/src/per/adc.h ****     /** Which pin to use for multiplexing */
  34:../../libDaisy/src/per/adc.h ****     enum MuxPin
  35:../../libDaisy/src/per/adc.h ****     {
  36:../../libDaisy/src/per/adc.h ****         MUX_SEL_0,    /**< & */
  37:../../libDaisy/src/per/adc.h ****         MUX_SEL_1,    /**< & */
  38:../../libDaisy/src/per/adc.h ****         MUX_SEL_2,    /**< & */
  39:../../libDaisy/src/per/adc.h ****         MUX_SEL_LAST, /**< & */
  40:../../libDaisy/src/per/adc.h ****     };
  41:../../libDaisy/src/per/adc.h **** 
  42:../../libDaisy/src/per/adc.h ****     /** \brief per channel conversion speed added to fixed time based on bitdepth, etc. */
  43:../../libDaisy/src/per/adc.h ****     enum ConversionSpeed
  44:../../libDaisy/src/per/adc.h ****     {
  45:../../libDaisy/src/per/adc.h ****         SPEED_1CYCLES_5,
  46:../../libDaisy/src/per/adc.h ****         SPEED_2CYCLES_5,
  47:../../libDaisy/src/per/adc.h ****         SPEED_8CYCLES_5,
  48:../../libDaisy/src/per/adc.h ****         SPEED_16CYCLES_5,
  49:../../libDaisy/src/per/adc.h ****         SPEED_32CYCLES_5,
  50:../../libDaisy/src/per/adc.h ****         SPEED_64CYCLES_5,
  51:../../libDaisy/src/per/adc.h ****         SPEED_387CYCLES_5,
  52:../../libDaisy/src/per/adc.h ****         SPEED_810CYCLES_5,
  53:../../libDaisy/src/per/adc.h ****     };
  54:../../libDaisy/src/per/adc.h **** 
  55:../../libDaisy/src/per/adc.h ****     /** Initializes a single ADC pin as an ADC. 
  56:../../libDaisy/src/per/adc.h ****     \param pin Pin to init.
  57:../../libDaisy/src/per/adc.h ****     \param speed conversion speed for this pin defaults to 8.5 cycles
  58:../../libDaisy/src/per/adc.h ****      */
  59:../../libDaisy/src/per/adc.h ****     void InitSingle(dsy_gpio_pin pin, ConversionSpeed speed = SPEED_8CYCLES_5);
  60:../../libDaisy/src/per/adc.h **** 
  61:../../libDaisy/src/per/adc.h ****     /** 
  62:../../libDaisy/src/per/adc.h ****     Initializes a single ADC pin as a Multiplexed ADC.
  63:../../libDaisy/src/per/adc.h ****     Requires a CD405X Multiplexer connected to the pin.
  64:../../libDaisy/src/per/adc.h ****     You only need to supply the mux pins that are required,
  65:../../libDaisy/src/per/adc.h ****     e.g. a 4052 mux would only require mux_0 and mux_1.
  66:../../libDaisy/src/per/adc.h ****     Internal Callbacks handle the pin addressing.
  67:../../libDaisy/src/per/adc.h ****     \param adc_pin &
  68:../../libDaisy/src/per/adc.h ****     \param mux_channels must be 1-8
  69:../../libDaisy/src/per/adc.h ****     \param mux_0 First mux pin
  70:../../libDaisy/src/per/adc.h ****     \param mux_1 Second mux pin
  71:../../libDaisy/src/per/adc.h ****     \param mux_2 Third mux pin
  72:../../libDaisy/src/per/adc.h ****     \param speed conversion speed for this pin defaults to 8.5 cycles
  73:../../libDaisy/src/per/adc.h ****     */
  74:../../libDaisy/src/per/adc.h ****     void InitMux(dsy_gpio_pin    adc_pin,
  75:../../libDaisy/src/per/adc.h ****                  size_t          mux_channels,
  76:../../libDaisy/src/per/adc.h ****                  dsy_gpio_pin    mux_0,
ARM GAS  C:\Users\galla\AppData\Local\Temp\ccVNmTCK.s 			page 6


  77:../../libDaisy/src/per/adc.h ****                  dsy_gpio_pin    mux_1 = {DSY_GPIOX, 0},
  78:../../libDaisy/src/per/adc.h ****                  dsy_gpio_pin    mux_2 = {DSY_GPIOX, 0},
  79:../../libDaisy/src/per/adc.h ****                  ConversionSpeed speed = SPEED_8CYCLES_5);
  80:../../libDaisy/src/per/adc.h **** 
  81:../../libDaisy/src/per/adc.h ****     dsy_gpio        pin_;                   /**< & */
  82:../../libDaisy/src/per/adc.h ****     dsy_gpio        mux_pin_[MUX_SEL_LAST]; /**< & */
  83:../../libDaisy/src/per/adc.h ****     uint8_t         mux_channels_;          /**< & */
  84:../../libDaisy/src/per/adc.h ****     ConversionSpeed speed_;
  85:../../libDaisy/src/per/adc.h **** };
  86:../../libDaisy/src/per/adc.h **** 
  87:../../libDaisy/src/per/adc.h **** /**
  88:../../libDaisy/src/per/adc.h ****    @brief Handler for analog to digital conversion
  89:../../libDaisy/src/per/adc.h **** */
  90:../../libDaisy/src/per/adc.h **** class AdcHandle
  91:../../libDaisy/src/per/adc.h **** {
  92:../../libDaisy/src/per/adc.h ****   public:
  93:../../libDaisy/src/per/adc.h ****     /** Supported oversampling amounts */
  94:../../libDaisy/src/per/adc.h ****     enum OverSampling
  95:../../libDaisy/src/per/adc.h ****     {
  96:../../libDaisy/src/per/adc.h ****         OVS_NONE, /**< & */
  97:../../libDaisy/src/per/adc.h ****         OVS_4,    /**< & */
  98:../../libDaisy/src/per/adc.h ****         OVS_8,    /**< & */
  99:../../libDaisy/src/per/adc.h ****         OVS_16,   /**< & */
 100:../../libDaisy/src/per/adc.h ****         OVS_32,   /**< & */
 101:../../libDaisy/src/per/adc.h ****         OVS_64,   /**< & */
 102:../../libDaisy/src/per/adc.h ****         OVS_128,  /**< & */
 103:../../libDaisy/src/per/adc.h ****         OVS_256,  /**< & */
 104:../../libDaisy/src/per/adc.h ****         OVS_512,  /**< & */
 105:../../libDaisy/src/per/adc.h ****         OVS_1024, /**< & */
 106:../../libDaisy/src/per/adc.h ****         OVS_LAST, /**< & */
 107:../../libDaisy/src/per/adc.h ****     };
 108:../../libDaisy/src/per/adc.h **** 
 109:../../libDaisy/src/per/adc.h ****     AdcHandle() {}
 110:../../libDaisy/src/per/adc.h ****     ~AdcHandle() {}
  50              		.loc 4 110 5 is_stmt 1 view .LVU5
  51              		.loc 4 110 5 is_stmt 0 view .LVU6
  52              	.LBE171:
  53              	.LBB172:
  54              	.LBI172:
  55              		.file 5 "../../libDaisy/src/hid/audio.h"
   1:../../libDaisy/src/hid/audio.h **** #ifndef DSY_AUDIO_H
   2:../../libDaisy/src/hid/audio.h **** #define DSY_AUDIO_H /**< & */
   3:../../libDaisy/src/hid/audio.h **** 
   4:../../libDaisy/src/hid/audio.h **** #include "per/sai.h"
   5:../../libDaisy/src/hid/audio.h **** 
   6:../../libDaisy/src/hid/audio.h **** namespace daisy
   7:../../libDaisy/src/hid/audio.h **** {
   8:../../libDaisy/src/hid/audio.h **** /** @brief Audio Engine Handle
   9:../../libDaisy/src/hid/audio.h ****  *  @ingroup audio 
  10:../../libDaisy/src/hid/audio.h ****  *  @details This class allows for higher level access to an audio engine.
  11:../../libDaisy/src/hid/audio.h ****  *           If you're using a SOM like the DaisySeed or DaisyPatchSM (or any 
  12:../../libDaisy/src/hid/audio.h ****  *            board that includes one of those objects) then the intialization
  13:../../libDaisy/src/hid/audio.h ****  *            is already taken  care of.
  14:../../libDaisy/src/hid/audio.h ****  *           If you're setting up your own custom hardware, or need to make changes
  15:../../libDaisy/src/hid/audio.h ****  *           you will have to take the following steps:
  16:../../libDaisy/src/hid/audio.h ****  *             1. Create and Initialize an SaiHandle or two depending on your requirements
  17:../../libDaisy/src/hid/audio.h ****  *             2. Initialize the Audio Handle with the desired settings and the Initialized SaiHand
ARM GAS  C:\Users\galla\AppData\Local\Temp\ccVNmTCK.s 			page 7


  18:../../libDaisy/src/hid/audio.h ****  *             3. If the connected codec requires special configuration or initialization, do so
  19:../../libDaisy/src/hid/audio.h ****  *             4. Write a callback method using either the AudioCallback or the InterleavingAudioCa
  20:../../libDaisy/src/hid/audio.h ****  *             5. Start the Audio using one of the StartAudio function
  21:../../libDaisy/src/hid/audio.h ****  */
  22:../../libDaisy/src/hid/audio.h **** class AudioHandle
  23:../../libDaisy/src/hid/audio.h **** {
  24:../../libDaisy/src/hid/audio.h ****   public:
  25:../../libDaisy/src/hid/audio.h ****     /** Manually configurable details about the Audio Engine */
  26:../../libDaisy/src/hid/audio.h ****     /** TODO: Figure out how to get samplerate in here. */
  27:../../libDaisy/src/hid/audio.h ****     struct Config
  28:../../libDaisy/src/hid/audio.h ****     {
  29:../../libDaisy/src/hid/audio.h ****         /** number of samples to process per callback */
  30:../../libDaisy/src/hid/audio.h ****         size_t blocksize;
  31:../../libDaisy/src/hid/audio.h **** 
  32:../../libDaisy/src/hid/audio.h ****         /**< Sample rate of audio */
  33:../../libDaisy/src/hid/audio.h ****         SaiHandle::Config::SampleRate samplerate;
  34:../../libDaisy/src/hid/audio.h **** 
  35:../../libDaisy/src/hid/audio.h ****         /** factor for adjustment before and after callback for hardware that may have extra headro
  36:../../libDaisy/src/hid/audio.h ****         float postgain;
  37:../../libDaisy/src/hid/audio.h **** 
  38:../../libDaisy/src/hid/audio.h ****         /** factor for additional one-sided compensation to audio path for hardware that may
  39:../../libDaisy/src/hid/audio.h ****          *  have unequal input/output ranges
  40:../../libDaisy/src/hid/audio.h ****          */
  41:../../libDaisy/src/hid/audio.h ****         float output_compensation;
  42:../../libDaisy/src/hid/audio.h **** 
  43:../../libDaisy/src/hid/audio.h ****         /** Sets default values for config struct */
  44:../../libDaisy/src/hid/audio.h ****         Config()
  45:../../libDaisy/src/hid/audio.h ****         : blocksize(48),
  46:../../libDaisy/src/hid/audio.h ****           samplerate(SaiHandle::Config::SampleRate::SAI_48KHZ),
  47:../../libDaisy/src/hid/audio.h ****           postgain(1.f),
  48:../../libDaisy/src/hid/audio.h ****           output_compensation(1.f)
  49:../../libDaisy/src/hid/audio.h ****         {
  50:../../libDaisy/src/hid/audio.h ****         }
  51:../../libDaisy/src/hid/audio.h ****     };
  52:../../libDaisy/src/hid/audio.h **** 
  53:../../libDaisy/src/hid/audio.h ****     enum class Result
  54:../../libDaisy/src/hid/audio.h ****     {
  55:../../libDaisy/src/hid/audio.h ****         OK,
  56:../../libDaisy/src/hid/audio.h ****         ERR,
  57:../../libDaisy/src/hid/audio.h ****     };
  58:../../libDaisy/src/hid/audio.h **** 
  59:../../libDaisy/src/hid/audio.h ****     /** Non-Interleaving input buffer
  60:../../libDaisy/src/hid/audio.h ****      * Buffer arranged by float[chn][sample] 
  61:../../libDaisy/src/hid/audio.h ****      * const so that the user can't modify the input
  62:../../libDaisy/src/hid/audio.h ****      */
  63:../../libDaisy/src/hid/audio.h ****     typedef const float* const* InputBuffer;
  64:../../libDaisy/src/hid/audio.h **** 
  65:../../libDaisy/src/hid/audio.h ****     /** Non-Interleaving output buffer
  66:../../libDaisy/src/hid/audio.h ****      * Arranged by float[chn][sample] 
  67:../../libDaisy/src/hid/audio.h ****      */
  68:../../libDaisy/src/hid/audio.h ****     typedef float** OutputBuffer;
  69:../../libDaisy/src/hid/audio.h **** 
  70:../../libDaisy/src/hid/audio.h ****     /** Type for a Non-Interleaving audio callback 
  71:../../libDaisy/src/hid/audio.h ****      * Non-Interleaving audio callbacks in daisy will be of this type
  72:../../libDaisy/src/hid/audio.h ****      */
  73:../../libDaisy/src/hid/audio.h ****     typedef void (*AudioCallback)(InputBuffer  in,
  74:../../libDaisy/src/hid/audio.h ****                                   OutputBuffer out,
ARM GAS  C:\Users\galla\AppData\Local\Temp\ccVNmTCK.s 			page 8


  75:../../libDaisy/src/hid/audio.h ****                                   size_t       size);
  76:../../libDaisy/src/hid/audio.h **** 
  77:../../libDaisy/src/hid/audio.h ****     /** Interleaving Input buffer
  78:../../libDaisy/src/hid/audio.h ****      ** audio is prepared as { L0, R0, L1, R1, . . . LN, RN }]
  79:../../libDaisy/src/hid/audio.h ****      ** this is const, as the user shouldn't modify it
  80:../../libDaisy/src/hid/audio.h ****     */
  81:../../libDaisy/src/hid/audio.h ****     typedef const float* InterleavingInputBuffer;
  82:../../libDaisy/src/hid/audio.h **** 
  83:../../libDaisy/src/hid/audio.h ****     /** Interleaving Output buffer 
  84:../../libDaisy/src/hid/audio.h ****      ** audio is prepared as { L0, R0, L1, R1, . . . LN, RN }
  85:../../libDaisy/src/hid/audio.h ****     */
  86:../../libDaisy/src/hid/audio.h ****     typedef float* InterleavingOutputBuffer;
  87:../../libDaisy/src/hid/audio.h **** 
  88:../../libDaisy/src/hid/audio.h ****     /** Interleaving Audio Callback 
  89:../../libDaisy/src/hid/audio.h ****      * Interleaving audio callbacks in daisy must be of this type
  90:../../libDaisy/src/hid/audio.h ****      */
  91:../../libDaisy/src/hid/audio.h ****     typedef void (*InterleavingAudioCallback)(InterleavingInputBuffer  in,
  92:../../libDaisy/src/hid/audio.h ****                                               InterleavingOutputBuffer out,
  93:../../libDaisy/src/hid/audio.h ****                                               size_t                   size);
  94:../../libDaisy/src/hid/audio.h **** 
  95:../../libDaisy/src/hid/audio.h ****     AudioHandle() : pimpl_(nullptr) {}
  96:../../libDaisy/src/hid/audio.h ****     ~AudioHandle() {}
  56              		.loc 5 96 5 is_stmt 1 view .LVU7
  57              		.loc 5 96 5 is_stmt 0 view .LVU8
  58              	.LBE172:
  59              		.loc 1 22 19 view .LVU9
  60 0000 7047     		bx	lr
  61              		.cfi_endproc
  62              	.LFE2555:
  64              		.weak	_ZN5daisy9DaisySeedD1Ev
  65              		.thumb_set _ZN5daisy9DaisySeedD1Ev,_ZN5daisy9DaisySeedD2Ev
  66 0002 00BF     		.section	.text._ZN6DistBPC2Ev,"axG",%progbits,_ZN6DistBPC5Ev,comdat
  67              		.align	1
  68              		.p2align 2,,3
  69              		.weak	_ZN6DistBPC2Ev
  70              		.syntax unified
  71              		.thumb
  72              		.thumb_func
  73              		.fpu fpv5-d16
  75              	_ZN6DistBPC2Ev:
  76              	.LVL1:
  77              	.LFB4725:
  78              		.file 6 "DistBP.h"
   1:DistBP.h      **** #pragma once
   2:DistBP.h      **** 
   3:DistBP.h      **** #ifndef DistBP_H
   4:DistBP.h      **** #define DistBP_H
   5:DistBP.h      **** 
   6:DistBP.h      **** class DistBP {
   7:DistBP.h      **** private:
   8:DistBP.h      ****     static const int MWSPT_NSEC = 5;
   9:DistBP.h      ****     const int NL[MWSPT_NSEC] = { 1,3,1,3,1 };
  10:DistBP.h      ****     const float NUM[MWSPT_NSEC][3] = {
  11:DistBP.h      ****     {
  12:DistBP.h      ****         0.1303463876,              0,              0 
  13:DistBP.h      ****     },
  14:DistBP.h      ****     {
ARM GAS  C:\Users\galla\AppData\Local\Temp\ccVNmTCK.s 			page 9


  15:DistBP.h      ****                     1,              0,             -1 
  16:DistBP.h      ****     },
  17:DistBP.h      ****     {
  18:DistBP.h      ****         0.1303463876,              0,              0 
  19:DistBP.h      ****     },
  20:DistBP.h      ****     {
  21:DistBP.h      ****                     1,              0,             -1 
  22:DistBP.h      ****     },
  23:DistBP.h      ****     {
  24:DistBP.h      ****                     1,              0,              0 
  25:DistBP.h      ****     }
  26:DistBP.h      ****     };
  27:DistBP.h      ****     const int DL[MWSPT_NSEC] = { 1,3,1,3,1 };
  28:DistBP.h      ****     const float DEN[MWSPT_NSEC][3] = {
  29:DistBP.h      ****     {
  30:DistBP.h      ****                     1,              0,              0 
  31:DistBP.h      ****     },
  32:DistBP.h      ****     {
  33:DistBP.h      ****                     1,   -1.999370813,   0.9993710518 
  34:DistBP.h      ****     },
  35:DistBP.h      ****     {
  36:DistBP.h      ****                     1,              0,              0 
  37:DistBP.h      ****     },
  38:DistBP.h      ****     {
  39:DistBP.h      ****                     1,   -1.599311471,    0.667294085 
  40:DistBP.h      ****     },
  41:DistBP.h      ****     {
  42:DistBP.h      ****                     1,              0,              0 
  43:DistBP.h      ****     }
  44:DistBP.h      ****     };
  45:DistBP.h      ****     float input_buffer[MWSPT_NSEC][3];
  46:DistBP.h      ****     float output_buffer[MWSPT_NSEC][3];
  47:DistBP.h      **** 
  48:DistBP.h      **** public:
  49:DistBP.h      ****     DistBP() = default;                
  79              		.loc 6 49 5 is_stmt 1 view -0
  80              		.cfi_startproc
  81              		@ args = 0, pretend = 0, frame = 0
  82              		@ frame_needed = 0, uses_anonymous_args = 0
  83              		.loc 6 49 5 is_stmt 0 view .LVU11
  84 0000 2DE9F047 		push	{r4, r5, r6, r7, r8, r9, r10, lr}
  85              		.cfi_def_cfa_offset 32
  86              		.cfi_offset 4, -32
  87              		.cfi_offset 5, -28
  88              		.cfi_offset 6, -24
  89              		.cfi_offset 7, -20
  90              		.cfi_offset 8, -16
  91              		.cfi_offset 9, -12
  92              		.cfi_offset 10, -8
  93              		.cfi_offset 14, -4
  94              	.LBB173:
  95              		.loc 6 49 5 view .LVU12
  96 0004 1B4E     		ldr	r6, .L5
  97              	.LBE173:
  98 0006 0746     		mov	r7, r0
  99              	.LBB174:
 100 0008 8146     		mov	r9, r0
ARM GAS  C:\Users\galla\AppData\Local\Temp\ccVNmTCK.s 			page 10


 101 000a 00F11404 		add	r4, r0, #20
 102 000e 06F11405 		add	r5, r6, #20
 103 0012 B246     		mov	r10, r6
 104 0014 06F1500E 		add	lr, r6, #80
 105 0018 00F15008 		add	r8, r0, #80
 106 001c 00F1640C 		add	ip, r0, #100
 107 0020 0FCE     		ldmia	r6!, {r0, r1, r2, r3}
 108              	.LVL2:
 109              		.loc 6 49 5 view .LVU13
 110 0022 A9E80F00 		stmia	r9!, {r0, r1, r2, r3}
 111 0026 3668     		ldr	r6, [r6]
 112 0028 0FCD     		ldmia	r5!, {r0, r1, r2, r3}
 113 002a C9F80060 		str	r6, [r9]
 114 002e 0FC4     		stmia	r4!, {r0, r1, r2, r3}
 115 0030 0FCD     		ldmia	r5!, {r0, r1, r2, r3}
 116 0032 0FC4     		stmia	r4!, {r0, r1, r2, r3}
 117 0034 0FCD     		ldmia	r5!, {r0, r1, r2, r3}
 118 0036 0FC4     		stmia	r4!, {r0, r1, r2, r3}
 119 0038 95E80700 		ldm	r5, {r0, r1, r2}
 120 003c 84E80700 		stm	r4, {r0, r1, r2}
 121 0040 BAE80F00 		ldmia	r10!, {r0, r1, r2, r3}
 122 0044 A8E80F00 		stmia	r8!, {r0, r1, r2, r3}
 123 0048 BEE80F00 		ldmia	lr!, {r0, r1, r2, r3}
 124 004c C8F80060 		str	r6, [r8]
 125 0050 ACE80F00 		stmia	ip!, {r0, r1, r2, r3}
 126 0054 BEE80F00 		ldmia	lr!, {r0, r1, r2, r3}
 127 0058 ACE80F00 		stmia	ip!, {r0, r1, r2, r3}
 128 005c BEE80F00 		ldmia	lr!, {r0, r1, r2, r3}
 129 0060 ACE80F00 		stmia	ip!, {r0, r1, r2, r3}
 130 0064 9EE80700 		ldm	lr, {r0, r1, r2}
 131 0068 8CE80700 		stm	ip, {r0, r1, r2}
 132              	.LBE174:
 133 006c 3846     		mov	r0, r7
 134 006e BDE8F087 		pop	{r4, r5, r6, r7, r8, r9, r10, pc}
 135              	.LVL3:
 136              	.L6:
 137              		.loc 6 49 5 view .LVU14
 138 0072 00BF     		.align	2
 139              	.L5:
 140 0074 00000000 		.word	.LANCHOR0
 141              		.cfi_endproc
 142              	.LFE4725:
 144              		.weak	_ZN6DistBPC1Ev
 145              		.thumb_set _ZN6DistBPC1Ev,_ZN6DistBPC2Ev
 146              		.section	.text._ZN5BMlowC2Ev,"axG",%progbits,_ZN5BMlowC5Ev,comdat
 147              		.align	1
 148              		.p2align 2,,3
 149              		.weak	_ZN5BMlowC2Ev
 150              		.syntax unified
 151              		.thumb
 152              		.thumb_func
 153              		.fpu fpv5-d16
 155              	_ZN5BMlowC2Ev:
 156              	.LVL4:
 157              	.LFB4728:
 158              		.file 7 "BMlow.h"
   1:BMlow.h       **** #pragma once
ARM GAS  C:\Users\galla\AppData\Local\Temp\ccVNmTCK.s 			page 11


   2:BMlow.h       **** 
   3:BMlow.h       **** #ifndef BMlow_H
   4:BMlow.h       **** #define BMlow_H
   5:BMlow.h       **** 
   6:BMlow.h       **** class BMlow {
   7:BMlow.h       **** private:
   8:BMlow.h       ****     static const int MWSPT_NSEC = 3;
   9:BMlow.h       ****     const int NL[MWSPT_NSEC] = { 1,2,1 };
  10:BMlow.h       ****     const float NUM[MWSPT_NSEC][2] = {
  11:BMlow.h       ****     {
  12:BMlow.h       ****     0.02323783375,              0 
  13:BMlow.h       ****     },
  14:BMlow.h       ****     {
  15:BMlow.h       ****                     1,              1 
  16:BMlow.h       ****     },
  17:BMlow.h       ****     {
  18:BMlow.h       ****                     1,              0 
  19:BMlow.h       ****     }
  20:BMlow.h       ****     };
  21:BMlow.h       ****     const int DL[MWSPT_NSEC] = { 1,2,1 };
  22:BMlow.h       ****     const float DEN[MWSPT_NSEC][2] = {
  23:BMlow.h       ****     {
  24:BMlow.h       ****                 1,              0 
  25:BMlow.h       ****     },
  26:BMlow.h       ****     {
  27:BMlow.h       ****                     1,  -0.9535243511 
  28:BMlow.h       ****     },
  29:BMlow.h       ****     {
  30:BMlow.h       ****                     1,              0 
  31:BMlow.h       ****     }
  32:BMlow.h       ****     };
  33:BMlow.h       ****     float input_buffer[MWSPT_NSEC][2];
  34:BMlow.h       ****     float output_buffer[MWSPT_NSEC][2];
  35:BMlow.h       **** 
  36:BMlow.h       **** public:
  37:BMlow.h       ****     BMlow() = default;                
 159              		.loc 7 37 5 is_stmt 1 view -0
 160              		.cfi_startproc
 161              		@ args = 0, pretend = 0, frame = 0
 162              		@ frame_needed = 0, uses_anonymous_args = 0
 163              	.LBB175:
 164              		.loc 7 37 5 is_stmt 0 view .LVU16
 165 0000 134B     		ldr	r3, .L9
 166              	.LBE175:
 167 0002 2DE9F041 		push	{r4, r5, r6, r7, r8, lr}
 168              		.cfi_def_cfa_offset 24
 169              		.cfi_offset 4, -24
 170              		.cfi_offset 5, -20
 171              		.cfi_offset 6, -16
 172              		.cfi_offset 7, -12
 173              		.cfi_offset 8, -8
 174              		.cfi_offset 14, -4
 175              	.LBB176:
 176              		.loc 7 37 5 view .LVU17
 177 0006 03F18C07 		add	r7, r3, #140
 178              	.LBE176:
 179 000a 8646     		mov	lr, r0
ARM GAS  C:\Users\galla\AppData\Local\Temp\ccVNmTCK.s 			page 12


 180              	.LBB177:
 181 000c 03F19806 		add	r6, r3, #152
 182 0010 03F1B00C 		add	ip, r3, #176
 183 0014 0EF10C05 		add	r5, lr, #12
 184 0018 0EF12408 		add	r8, lr, #36
 185 001c 0EF13004 		add	r4, lr, #48
 186 0020 97E80700 		ldm	r7, {r0, r1, r2}
 187              	.LVL5:
 188              		.loc 7 37 5 view .LVU18
 189 0024 8EE80700 		stm	lr, {r0, r1, r2}
 190 0028 0FCE     		ldmia	r6!, {r0, r1, r2, r3}
 191 002a 0FC5     		stmia	r5!, {r0, r1, r2, r3}
 192 002c 96E80300 		ldm	r6, {r0, r1}
 193 0030 85E80300 		stm	r5, {r0, r1}
 194 0034 97E80700 		ldm	r7, {r0, r1, r2}
 195 0038 88E80700 		stm	r8, {r0, r1, r2}
 196 003c BCE80F00 		ldmia	ip!, {r0, r1, r2, r3}
 197 0040 0FC4     		stmia	r4!, {r0, r1, r2, r3}
 198 0042 9CE80300 		ldm	ip, {r0, r1}
 199 0046 84E80300 		stm	r4, {r0, r1}
 200              	.LBE177:
 201 004a 7046     		mov	r0, lr
 202 004c BDE8F081 		pop	{r4, r5, r6, r7, r8, pc}
 203              	.L10:
 204              		.align	2
 205              	.L9:
 206 0050 00000000 		.word	.LANCHOR0
 207              		.cfi_endproc
 208              	.LFE4728:
 210              		.weak	_ZN5BMlowC1Ev
 211              		.thumb_set _ZN5BMlowC1Ev,_ZN5BMlowC2Ev
 212              		.section	.text._ZN6BMhighC2Ev,"axG",%progbits,_ZN6BMhighC5Ev,comdat
 213              		.align	1
 214              		.p2align 2,,3
 215              		.weak	_ZN6BMhighC2Ev
 216              		.syntax unified
 217              		.thumb
 218              		.thumb_func
 219              		.fpu fpv5-d16
 221              	_ZN6BMhighC2Ev:
 222              	.LVL6:
 223              	.LFB4731:
 224              		.file 8 "BMhigh.h"
   1:BMhigh.h      **** #pragma once
   2:BMhigh.h      **** 
   3:BMhigh.h      **** #ifndef BMhigh_H
   4:BMhigh.h      **** #define BMHigh_H
   5:BMhigh.h      **** 
   6:BMhigh.h      **** class BMhigh {
   7:BMhigh.h      **** private:
   8:BMhigh.h      ****     static const int MWSPT_NSEC = 3;
   9:BMhigh.h      ****     const int NL[MWSPT_NSEC] = { 1,2,1 };
  10:BMhigh.h      ****     const float NUM[MWSPT_NSEC][2] = {
  11:BMhigh.h      ****     {
  12:BMhigh.h      ****      0.9484700561,              0 
  13:BMhigh.h      ****     },
  14:BMhigh.h      ****     {
ARM GAS  C:\Users\galla\AppData\Local\Temp\ccVNmTCK.s 			page 13


  15:BMhigh.h      ****                     1,             -1 
  16:BMhigh.h      ****     },
  17:BMhigh.h      ****     {
  18:BMhigh.h      ****                     1,              0 
  19:BMhigh.h      ****     }
  20:BMhigh.h      ****     };
  21:BMhigh.h      ****     const int DL[MWSPT_NSEC] = { 1,2,1 };
  22:BMhigh.h      ****     const float DEN[MWSPT_NSEC][2] = {
  23:BMhigh.h      ****     {
  24:BMhigh.h      ****                 1,              0 
  25:BMhigh.h      ****     },
  26:BMhigh.h      ****     {
  27:BMhigh.h      ****                     1,  -0.8969401121 
  28:BMhigh.h      ****     },
  29:BMhigh.h      ****     {
  30:BMhigh.h      ****                     1,              0 
  31:BMhigh.h      ****     }
  32:BMhigh.h      ****     };
  33:BMhigh.h      ****     float input_buffer[MWSPT_NSEC][2];
  34:BMhigh.h      ****     float output_buffer[MWSPT_NSEC][2];
  35:BMhigh.h      **** 
  36:BMhigh.h      **** public:
  37:BMhigh.h      ****     BMhigh() = default;                
 225              		.loc 8 37 5 is_stmt 1 view -0
 226              		.cfi_startproc
 227              		@ args = 0, pretend = 0, frame = 0
 228              		@ frame_needed = 0, uses_anonymous_args = 0
 229              	.LBB178:
 230              		.loc 8 37 5 is_stmt 0 view .LVU20
 231 0000 134B     		ldr	r3, .L13
 232              	.LBE178:
 233 0002 2DE9F041 		push	{r4, r5, r6, r7, r8, lr}
 234              		.cfi_def_cfa_offset 24
 235              		.cfi_offset 4, -24
 236              		.cfi_offset 5, -20
 237              		.cfi_offset 6, -16
 238              		.cfi_offset 7, -12
 239              		.cfi_offset 8, -8
 240              		.cfi_offset 14, -4
 241              	.LBB179:
 242              		.loc 8 37 5 view .LVU21
 243 0006 03F18C07 		add	r7, r3, #140
 244              	.LBE179:
 245 000a 8646     		mov	lr, r0
 246              	.LBB180:
 247 000c 03F1C806 		add	r6, r3, #200
 248 0010 03F1E00C 		add	ip, r3, #224
 249 0014 0EF10C05 		add	r5, lr, #12
 250 0018 0EF12408 		add	r8, lr, #36
 251 001c 0EF13004 		add	r4, lr, #48
 252 0020 97E80700 		ldm	r7, {r0, r1, r2}
 253              	.LVL7:
 254              		.loc 8 37 5 view .LVU22
 255 0024 8EE80700 		stm	lr, {r0, r1, r2}
 256 0028 0FCE     		ldmia	r6!, {r0, r1, r2, r3}
 257 002a 0FC5     		stmia	r5!, {r0, r1, r2, r3}
 258 002c 96E80300 		ldm	r6, {r0, r1}
ARM GAS  C:\Users\galla\AppData\Local\Temp\ccVNmTCK.s 			page 14


 259 0030 85E80300 		stm	r5, {r0, r1}
 260 0034 97E80700 		ldm	r7, {r0, r1, r2}
 261 0038 88E80700 		stm	r8, {r0, r1, r2}
 262 003c BCE80F00 		ldmia	ip!, {r0, r1, r2, r3}
 263 0040 0FC4     		stmia	r4!, {r0, r1, r2, r3}
 264 0042 9CE80300 		ldm	ip, {r0, r1}
 265 0046 84E80300 		stm	r4, {r0, r1}
 266              	.LBE180:
 267 004a 7046     		mov	r0, lr
 268 004c BDE8F081 		pop	{r4, r5, r6, r7, r8, pc}
 269              	.L14:
 270              		.align	2
 271              	.L13:
 272 0050 00000000 		.word	.LANCHOR0
 273              		.cfi_endproc
 274              	.LFE4731:
 276              		.weak	_ZN6BMhighC1Ev
 277              		.thumb_set _ZN6BMhighC1Ev,_ZN6BMhighC2Ev
 278              		.section	.text._ZN6DistHPC2Ev,"axG",%progbits,_ZN6DistHPC5Ev,comdat
 279              		.align	1
 280              		.p2align 2,,3
 281              		.weak	_ZN6DistHPC2Ev
 282              		.syntax unified
 283              		.thumb
 284              		.thumb_func
 285              		.fpu fpv5-d16
 287              	_ZN6DistHPC2Ev:
 288              	.LVL8:
 289              	.LFB4734:
 290              		.file 9 "DistHP.h"
   1:DistHP.h      **** #pragma once
   2:DistHP.h      **** 
   3:DistHP.h      **** #ifndef DistHP_H
   4:DistHP.h      **** #define DistHP_H
   5:DistHP.h      **** 
   6:DistHP.h      **** class DistHP {
   7:DistHP.h      **** private:
   8:DistHP.h      ****     static const int MWSPT_NSEC = 3;
   9:DistHP.h      ****     const int NL[MWSPT_NSEC] = { 1,2,1 };
  10:DistHP.h      ****     const float NUM[MWSPT_NSEC][2] = {
  11:DistHP.h      ****    {
  12:DistHP.h      ****      0.9989667535,              0 
  13:DistHP.h      ****   },
  14:DistHP.h      ****   {
  15:DistHP.h      ****                 1,             -1 
  16:DistHP.h      ****   },
  17:DistHP.h      ****   {
  18:DistHP.h      ****                 1,              0 
  19:DistHP.h      ****   }
  20:DistHP.h      **** };
  21:DistHP.h      ****     const int DL[MWSPT_NSEC] = { 1,2,1 };
  22:DistHP.h      ****     const float DEN[MWSPT_NSEC][2] = {
  23:DistHP.h      ****      {
  24:DistHP.h      ****                 1,              0 
  25:DistHP.h      ****   },
  26:DistHP.h      ****   {
  27:DistHP.h      ****                 1,  -0.9979334474 
ARM GAS  C:\Users\galla\AppData\Local\Temp\ccVNmTCK.s 			page 15


  28:DistHP.h      ****   },
  29:DistHP.h      ****   {
  30:DistHP.h      ****                 1,              0 
  31:DistHP.h      ****   }
  32:DistHP.h      **** };
  33:DistHP.h      ****     float input_buffer[MWSPT_NSEC][2];
  34:DistHP.h      ****     float output_buffer[MWSPT_NSEC][2];
  35:DistHP.h      **** 
  36:DistHP.h      **** public:
  37:DistHP.h      ****     DistHP() = default;                
 291              		.loc 9 37 5 is_stmt 1 view -0
 292              		.cfi_startproc
 293              		@ args = 0, pretend = 0, frame = 0
 294              		@ frame_needed = 0, uses_anonymous_args = 0
 295              	.LBB181:
 296              		.loc 9 37 5 is_stmt 0 view .LVU24
 297 0000 134B     		ldr	r3, .L17
 298              	.LBE181:
 299 0002 2DE9F041 		push	{r4, r5, r6, r7, r8, lr}
 300              		.cfi_def_cfa_offset 24
 301              		.cfi_offset 4, -24
 302              		.cfi_offset 5, -20
 303              		.cfi_offset 6, -16
 304              		.cfi_offset 7, -12
 305              		.cfi_offset 8, -8
 306              		.cfi_offset 14, -4
 307              	.LBB182:
 308              		.loc 9 37 5 view .LVU25
 309 0006 03F18C07 		add	r7, r3, #140
 310              	.LBE182:
 311 000a 8646     		mov	lr, r0
 312              	.LBB183:
 313 000c 03F1F806 		add	r6, r3, #248
 314 0010 03F5887C 		add	ip, r3, #272
 315 0014 0EF10C05 		add	r5, lr, #12
 316 0018 0EF12408 		add	r8, lr, #36
 317 001c 0EF13004 		add	r4, lr, #48
 318 0020 97E80700 		ldm	r7, {r0, r1, r2}
 319              	.LVL9:
 320              		.loc 9 37 5 view .LVU26
 321 0024 8EE80700 		stm	lr, {r0, r1, r2}
 322 0028 0FCE     		ldmia	r6!, {r0, r1, r2, r3}
 323 002a 0FC5     		stmia	r5!, {r0, r1, r2, r3}
 324 002c 96E80300 		ldm	r6, {r0, r1}
 325 0030 85E80300 		stm	r5, {r0, r1}
 326 0034 97E80700 		ldm	r7, {r0, r1, r2}
 327 0038 88E80700 		stm	r8, {r0, r1, r2}
 328 003c BCE80F00 		ldmia	ip!, {r0, r1, r2, r3}
 329 0040 0FC4     		stmia	r4!, {r0, r1, r2, r3}
 330 0042 9CE80300 		ldm	ip, {r0, r1}
 331 0046 84E80300 		stm	r4, {r0, r1}
 332              	.LBE183:
 333 004a 7046     		mov	r0, lr
 334 004c BDE8F081 		pop	{r4, r5, r6, r7, r8, pc}
 335              	.L18:
 336              		.align	2
 337              	.L17:
ARM GAS  C:\Users\galla\AppData\Local\Temp\ccVNmTCK.s 			page 16


 338 0050 00000000 		.word	.LANCHOR0
 339              		.cfi_endproc
 340              	.LFE4734:
 342              		.weak	_ZN6DistHPC1Ev
 343              		.thumb_set _ZN6DistHPC1Ev,_ZN6DistHPC2Ev
 344              		.section	.text._Z5ts3ADf,"ax",%progbits
 345              		.align	1
 346              		.p2align 2,,3
 347              		.global	_Z5ts3ADf
 348              		.syntax unified
 349              		.thumb
 350              		.thumb_func
 351              		.fpu fpv5-d16
 353              	_Z5ts3ADf:
 354              	.LVL10:
 355              	.LFB4736:
 356              		.file 10 "main.cpp"
   1:main.cpp      **** #include "daisy_seed.h"
   2:main.cpp      **** #include "daisysp.h"
   3:main.cpp      **** #include "DistBP.h"
   4:main.cpp      **** #include "BMlow.h"
   5:main.cpp      **** #include "BMhigh.h"
   6:main.cpp      **** #include "DistHP.h"
   7:main.cpp      **** #include "TSTone.h"
   8:main.cpp      **** #include "PeakEQ.h"
   9:main.cpp      **** 
  10:main.cpp      **** 
  11:main.cpp      **** using namespace daisy;
  12:main.cpp      **** 
  13:main.cpp      **** DaisySeed  hw;
  14:main.cpp      **** 
  15:main.cpp      **** DistBP bmBP;
  16:main.cpp      **** BMlow bmLow;
  17:main.cpp      **** BMhigh bmHigh;
  18:main.cpp      **** 
  19:main.cpp      **** TSTone tstone;
  20:main.cpp      **** DistHP tsHP;
  21:main.cpp      **** 
  22:main.cpp      **** PeakEQ stage1, stage2, stage3, stage4, stage5;
  23:main.cpp      **** 
  24:main.cpp      **** bool on;
  25:main.cpp      **** int effect;
  26:main.cpp      **** 
  27:main.cpp      **** float knob1, knob2, knob3;
  28:main.cpp      **** 
  29:main.cpp      **** 
  30:main.cpp      **** float x1 = 0;
  31:main.cpp      **** float x2 = 0;
  32:main.cpp      **** float x3 = 0;
  33:main.cpp      **** float f0 = 0;
  34:main.cpp      **** float f1 = 0;
  35:main.cpp      **** float f2 = 0;
  36:main.cpp      **** float f3 = 0;
  37:main.cpp      **** 
  38:main.cpp      **** float ts3AD(float in) {
 357              		.loc 10 38 23 is_stmt 1 view -0
 358              		.cfi_startproc
ARM GAS  C:\Users\galla\AppData\Local\Temp\ccVNmTCK.s 			page 17


 359              		@ args = 0, pretend = 0, frame = 0
 360              		@ frame_needed = 0, uses_anonymous_args = 0
  39:main.cpp      ****     float out;
 361              		.loc 10 39 5 view .LVU28
  40:main.cpp      **** 
  41:main.cpp      ****     float absx = abs(in);
 362              		.loc 10 41 5 view .LVU29
  38:main.cpp      ****     float out;
 363              		.loc 10 38 23 is_stmt 0 view .LVU30
 364 0000 08B5     		push	{r3, lr}
 365              		.cfi_def_cfa_offset 8
 366              		.cfi_offset 3, -8
 367              		.cfi_offset 14, -4
 368 0002 2DED048B 		vpush.64	{d8, d9}
 369              		.cfi_def_cfa_offset 24
 370              		.cfi_offset 80, -24
 371              		.cfi_offset 81, -20
 372              		.cfi_offset 82, -16
 373              		.cfi_offset 83, -12
  42:main.cpp      ****     float xx = in*in;
 374              		.loc 10 42 11 view .LVU31
 375 0006 60EE008A 		vmul.f32	s17, s0, s0
  43:main.cpp      **** 
  44:main.cpp      ****     float num = 6*(2*absx + xx + 1)*log(absx+1) - 2*(xx + 3)*absx - 9*xx;
 376              		.loc 10 44 40 view .LVU32
 377 000a F7EE009A 		vmov.f32	s19, #1.0e+0
 378              	.LBB184:
 379              	.LBB185:
 380              		.file 11 "c:\\program files\\daisytoolchain\\arm-none-eabi\\include\\c++\\10.2.1\\bits\\std_abs.h"
   1:c:\program files\daisytoolchain\arm-none-eabi\include\c++\10.2.1\bits\std_abs.h **** // -*- C++ -*- C library enhancements header.
   2:c:\program files\daisytoolchain\arm-none-eabi\include\c++\10.2.1\bits\std_abs.h **** 
   3:c:\program files\daisytoolchain\arm-none-eabi\include\c++\10.2.1\bits\std_abs.h **** // Copyright (C) 2016-2020 Free Software Foundation, Inc.
   4:c:\program files\daisytoolchain\arm-none-eabi\include\c++\10.2.1\bits\std_abs.h **** //
   5:c:\program files\daisytoolchain\arm-none-eabi\include\c++\10.2.1\bits\std_abs.h **** // This file is part of the GNU ISO C++ Library.  This library is free
   6:c:\program files\daisytoolchain\arm-none-eabi\include\c++\10.2.1\bits\std_abs.h **** // software; you can redistribute it and/or modify it under the
   7:c:\program files\daisytoolchain\arm-none-eabi\include\c++\10.2.1\bits\std_abs.h **** // terms of the GNU General Public License as published by the
   8:c:\program files\daisytoolchain\arm-none-eabi\include\c++\10.2.1\bits\std_abs.h **** // Free Software Foundation; either version 3, or (at your option)
   9:c:\program files\daisytoolchain\arm-none-eabi\include\c++\10.2.1\bits\std_abs.h **** // any later version.
  10:c:\program files\daisytoolchain\arm-none-eabi\include\c++\10.2.1\bits\std_abs.h **** 
  11:c:\program files\daisytoolchain\arm-none-eabi\include\c++\10.2.1\bits\std_abs.h **** // This library is distributed in the hope that it will be useful,
  12:c:\program files\daisytoolchain\arm-none-eabi\include\c++\10.2.1\bits\std_abs.h **** // but WITHOUT ANY WARRANTY; without even the implied warranty of
  13:c:\program files\daisytoolchain\arm-none-eabi\include\c++\10.2.1\bits\std_abs.h **** // MERCHANTABILITY or FITNESS FOR A PARTICULAR PURPOSE.  See the
  14:c:\program files\daisytoolchain\arm-none-eabi\include\c++\10.2.1\bits\std_abs.h **** // GNU General Public License for more details.
  15:c:\program files\daisytoolchain\arm-none-eabi\include\c++\10.2.1\bits\std_abs.h **** 
  16:c:\program files\daisytoolchain\arm-none-eabi\include\c++\10.2.1\bits\std_abs.h **** // Under Section 7 of GPL version 3, you are granted additional
  17:c:\program files\daisytoolchain\arm-none-eabi\include\c++\10.2.1\bits\std_abs.h **** // permissions described in the GCC Runtime Library Exception, version
  18:c:\program files\daisytoolchain\arm-none-eabi\include\c++\10.2.1\bits\std_abs.h **** // 3.1, as published by the Free Software Foundation.
  19:c:\program files\daisytoolchain\arm-none-eabi\include\c++\10.2.1\bits\std_abs.h **** 
  20:c:\program files\daisytoolchain\arm-none-eabi\include\c++\10.2.1\bits\std_abs.h **** // You should have received a copy of the GNU General Public License and
  21:c:\program files\daisytoolchain\arm-none-eabi\include\c++\10.2.1\bits\std_abs.h **** // a copy of the GCC Runtime Library Exception along with this program;
  22:c:\program files\daisytoolchain\arm-none-eabi\include\c++\10.2.1\bits\std_abs.h **** // see the files COPYING3 and COPYING.RUNTIME respectively.  If not, see
  23:c:\program files\daisytoolchain\arm-none-eabi\include\c++\10.2.1\bits\std_abs.h **** // <http://www.gnu.org/licenses/>.
  24:c:\program files\daisytoolchain\arm-none-eabi\include\c++\10.2.1\bits\std_abs.h **** 
  25:c:\program files\daisytoolchain\arm-none-eabi\include\c++\10.2.1\bits\std_abs.h **** /** @file include/bits/std_abs.h
  26:c:\program files\daisytoolchain\arm-none-eabi\include\c++\10.2.1\bits\std_abs.h ****  *  This is an internal header file, included by other library headers.
  27:c:\program files\daisytoolchain\arm-none-eabi\include\c++\10.2.1\bits\std_abs.h ****  *  Do not attempt to use it directly. @headername{cmath, cstdlib}
  28:c:\program files\daisytoolchain\arm-none-eabi\include\c++\10.2.1\bits\std_abs.h ****  */
ARM GAS  C:\Users\galla\AppData\Local\Temp\ccVNmTCK.s 			page 18


  29:c:\program files\daisytoolchain\arm-none-eabi\include\c++\10.2.1\bits\std_abs.h **** 
  30:c:\program files\daisytoolchain\arm-none-eabi\include\c++\10.2.1\bits\std_abs.h **** #ifndef _GLIBCXX_BITS_STD_ABS_H
  31:c:\program files\daisytoolchain\arm-none-eabi\include\c++\10.2.1\bits\std_abs.h **** #define _GLIBCXX_BITS_STD_ABS_H
  32:c:\program files\daisytoolchain\arm-none-eabi\include\c++\10.2.1\bits\std_abs.h **** 
  33:c:\program files\daisytoolchain\arm-none-eabi\include\c++\10.2.1\bits\std_abs.h **** #pragma GCC system_header
  34:c:\program files\daisytoolchain\arm-none-eabi\include\c++\10.2.1\bits\std_abs.h **** 
  35:c:\program files\daisytoolchain\arm-none-eabi\include\c++\10.2.1\bits\std_abs.h **** #include <bits/c++config.h>
  36:c:\program files\daisytoolchain\arm-none-eabi\include\c++\10.2.1\bits\std_abs.h **** 
  37:c:\program files\daisytoolchain\arm-none-eabi\include\c++\10.2.1\bits\std_abs.h **** #define _GLIBCXX_INCLUDE_NEXT_C_HEADERS
  38:c:\program files\daisytoolchain\arm-none-eabi\include\c++\10.2.1\bits\std_abs.h **** #include_next <stdlib.h>
  39:c:\program files\daisytoolchain\arm-none-eabi\include\c++\10.2.1\bits\std_abs.h **** #ifdef __CORRECT_ISO_CPP_MATH_H_PROTO
  40:c:\program files\daisytoolchain\arm-none-eabi\include\c++\10.2.1\bits\std_abs.h **** # include_next <math.h>
  41:c:\program files\daisytoolchain\arm-none-eabi\include\c++\10.2.1\bits\std_abs.h **** #endif
  42:c:\program files\daisytoolchain\arm-none-eabi\include\c++\10.2.1\bits\std_abs.h **** #undef _GLIBCXX_INCLUDE_NEXT_C_HEADERS
  43:c:\program files\daisytoolchain\arm-none-eabi\include\c++\10.2.1\bits\std_abs.h **** 
  44:c:\program files\daisytoolchain\arm-none-eabi\include\c++\10.2.1\bits\std_abs.h **** #undef abs
  45:c:\program files\daisytoolchain\arm-none-eabi\include\c++\10.2.1\bits\std_abs.h **** 
  46:c:\program files\daisytoolchain\arm-none-eabi\include\c++\10.2.1\bits\std_abs.h **** extern "C++"
  47:c:\program files\daisytoolchain\arm-none-eabi\include\c++\10.2.1\bits\std_abs.h **** {
  48:c:\program files\daisytoolchain\arm-none-eabi\include\c++\10.2.1\bits\std_abs.h **** namespace std _GLIBCXX_VISIBILITY(default)
  49:c:\program files\daisytoolchain\arm-none-eabi\include\c++\10.2.1\bits\std_abs.h **** {
  50:c:\program files\daisytoolchain\arm-none-eabi\include\c++\10.2.1\bits\std_abs.h **** _GLIBCXX_BEGIN_NAMESPACE_VERSION
  51:c:\program files\daisytoolchain\arm-none-eabi\include\c++\10.2.1\bits\std_abs.h **** 
  52:c:\program files\daisytoolchain\arm-none-eabi\include\c++\10.2.1\bits\std_abs.h ****   using ::abs;
  53:c:\program files\daisytoolchain\arm-none-eabi\include\c++\10.2.1\bits\std_abs.h **** 
  54:c:\program files\daisytoolchain\arm-none-eabi\include\c++\10.2.1\bits\std_abs.h **** #ifndef __CORRECT_ISO_CPP_STDLIB_H_PROTO
  55:c:\program files\daisytoolchain\arm-none-eabi\include\c++\10.2.1\bits\std_abs.h ****   inline long
  56:c:\program files\daisytoolchain\arm-none-eabi\include\c++\10.2.1\bits\std_abs.h ****   abs(long __i) { return __builtin_labs(__i); }
  57:c:\program files\daisytoolchain\arm-none-eabi\include\c++\10.2.1\bits\std_abs.h **** #endif
  58:c:\program files\daisytoolchain\arm-none-eabi\include\c++\10.2.1\bits\std_abs.h **** 
  59:c:\program files\daisytoolchain\arm-none-eabi\include\c++\10.2.1\bits\std_abs.h **** #ifdef _GLIBCXX_USE_LONG_LONG
  60:c:\program files\daisytoolchain\arm-none-eabi\include\c++\10.2.1\bits\std_abs.h ****   inline long long
  61:c:\program files\daisytoolchain\arm-none-eabi\include\c++\10.2.1\bits\std_abs.h ****   abs(long long __x) { return __builtin_llabs (__x); }
  62:c:\program files\daisytoolchain\arm-none-eabi\include\c++\10.2.1\bits\std_abs.h **** #endif
  63:c:\program files\daisytoolchain\arm-none-eabi\include\c++\10.2.1\bits\std_abs.h **** 
  64:c:\program files\daisytoolchain\arm-none-eabi\include\c++\10.2.1\bits\std_abs.h **** // _GLIBCXX_RESOLVE_LIB_DEFECTS
  65:c:\program files\daisytoolchain\arm-none-eabi\include\c++\10.2.1\bits\std_abs.h **** // 2192. Validity and return type of std::abs(0u) is unclear
  66:c:\program files\daisytoolchain\arm-none-eabi\include\c++\10.2.1\bits\std_abs.h **** // 2294. <cstdlib> should declare abs(double)
  67:c:\program files\daisytoolchain\arm-none-eabi\include\c++\10.2.1\bits\std_abs.h **** // 2735. std::abs(short), std::abs(signed char) and others should return int
  68:c:\program files\daisytoolchain\arm-none-eabi\include\c++\10.2.1\bits\std_abs.h **** 
  69:c:\program files\daisytoolchain\arm-none-eabi\include\c++\10.2.1\bits\std_abs.h **** #ifndef __CORRECT_ISO_CPP_MATH_H_PROTO
  70:c:\program files\daisytoolchain\arm-none-eabi\include\c++\10.2.1\bits\std_abs.h ****   inline _GLIBCXX_CONSTEXPR double
  71:c:\program files\daisytoolchain\arm-none-eabi\include\c++\10.2.1\bits\std_abs.h ****   abs(double __x)
  72:c:\program files\daisytoolchain\arm-none-eabi\include\c++\10.2.1\bits\std_abs.h ****   { return __builtin_fabs(__x); }
  73:c:\program files\daisytoolchain\arm-none-eabi\include\c++\10.2.1\bits\std_abs.h **** 
  74:c:\program files\daisytoolchain\arm-none-eabi\include\c++\10.2.1\bits\std_abs.h ****   inline _GLIBCXX_CONSTEXPR float
  75:c:\program files\daisytoolchain\arm-none-eabi\include\c++\10.2.1\bits\std_abs.h ****   abs(float __x)
  76:c:\program files\daisytoolchain\arm-none-eabi\include\c++\10.2.1\bits\std_abs.h ****   { return __builtin_fabsf(__x); }
 381              		.loc 11 76 31 view .LVU33
 382 000e B0EEC08A 		vabs.f32	s16, s0
 383              	.LBE185:
 384              	.LBE184:
 385              		.loc 10 44 27 view .LVU34
 386 0012 F0EE007A 		vmov.f32	s15, #2.0e+0
 387              	.LVL11:
 388              	.LBB187:
 389              	.LBI184:
ARM GAS  C:\Users\galla\AppData\Local\Temp\ccVNmTCK.s 			page 19


  75:c:\program files\daisytoolchain\arm-none-eabi\include\c++\10.2.1\bits\std_abs.h ****   { return __builtin_fabsf(__x); }
 390              		.loc 11 75 3 is_stmt 1 view .LVU35
 391              	.LBB186:
 392              		.loc 11 76 5 view .LVU36
 393              		.loc 11 76 5 is_stmt 0 view .LVU37
 394              	.LBE186:
 395              	.LBE187:
  42:main.cpp      **** 
 396              		.loc 10 42 5 is_stmt 1 view .LVU38
 397              		.loc 10 44 5 view .LVU39
 398              		.loc 10 44 27 is_stmt 0 view .LVU40
 399 0016 B0EE689A 		vmov.f32	s18, s17
 400              	.LBB188:
 401              	.LBB189:
 402              		.file 12 "c:\\program files\\daisytoolchain\\arm-none-eabi\\include\\c++\\10.2.1\\cmath"
   1:c:\program files\daisytoolchain\arm-none-eabi\include\c++\10.2.1\cmath **** // -*- C++ -*- C forwarding header.
   2:c:\program files\daisytoolchain\arm-none-eabi\include\c++\10.2.1\cmath **** 
   3:c:\program files\daisytoolchain\arm-none-eabi\include\c++\10.2.1\cmath **** // Copyright (C) 1997-2020 Free Software Foundation, Inc.
   4:c:\program files\daisytoolchain\arm-none-eabi\include\c++\10.2.1\cmath **** //
   5:c:\program files\daisytoolchain\arm-none-eabi\include\c++\10.2.1\cmath **** // This file is part of the GNU ISO C++ Library.  This library is free
   6:c:\program files\daisytoolchain\arm-none-eabi\include\c++\10.2.1\cmath **** // software; you can redistribute it and/or modify it under the
   7:c:\program files\daisytoolchain\arm-none-eabi\include\c++\10.2.1\cmath **** // terms of the GNU General Public License as published by the
   8:c:\program files\daisytoolchain\arm-none-eabi\include\c++\10.2.1\cmath **** // Free Software Foundation; either version 3, or (at your option)
   9:c:\program files\daisytoolchain\arm-none-eabi\include\c++\10.2.1\cmath **** // any later version.
  10:c:\program files\daisytoolchain\arm-none-eabi\include\c++\10.2.1\cmath **** 
  11:c:\program files\daisytoolchain\arm-none-eabi\include\c++\10.2.1\cmath **** // This library is distributed in the hope that it will be useful,
  12:c:\program files\daisytoolchain\arm-none-eabi\include\c++\10.2.1\cmath **** // but WITHOUT ANY WARRANTY; without even the implied warranty of
  13:c:\program files\daisytoolchain\arm-none-eabi\include\c++\10.2.1\cmath **** // MERCHANTABILITY or FITNESS FOR A PARTICULAR PURPOSE.  See the
  14:c:\program files\daisytoolchain\arm-none-eabi\include\c++\10.2.1\cmath **** // GNU General Public License for more details.
  15:c:\program files\daisytoolchain\arm-none-eabi\include\c++\10.2.1\cmath **** 
  16:c:\program files\daisytoolchain\arm-none-eabi\include\c++\10.2.1\cmath **** // Under Section 7 of GPL version 3, you are granted additional
  17:c:\program files\daisytoolchain\arm-none-eabi\include\c++\10.2.1\cmath **** // permissions described in the GCC Runtime Library Exception, version
  18:c:\program files\daisytoolchain\arm-none-eabi\include\c++\10.2.1\cmath **** // 3.1, as published by the Free Software Foundation.
  19:c:\program files\daisytoolchain\arm-none-eabi\include\c++\10.2.1\cmath **** 
  20:c:\program files\daisytoolchain\arm-none-eabi\include\c++\10.2.1\cmath **** // You should have received a copy of the GNU General Public License and
  21:c:\program files\daisytoolchain\arm-none-eabi\include\c++\10.2.1\cmath **** // a copy of the GCC Runtime Library Exception along with this program;
  22:c:\program files\daisytoolchain\arm-none-eabi\include\c++\10.2.1\cmath **** // see the files COPYING3 and COPYING.RUNTIME respectively.  If not, see
  23:c:\program files\daisytoolchain\arm-none-eabi\include\c++\10.2.1\cmath **** // <http://www.gnu.org/licenses/>.
  24:c:\program files\daisytoolchain\arm-none-eabi\include\c++\10.2.1\cmath **** 
  25:c:\program files\daisytoolchain\arm-none-eabi\include\c++\10.2.1\cmath **** /** @file include/cmath
  26:c:\program files\daisytoolchain\arm-none-eabi\include\c++\10.2.1\cmath ****  *  This is a Standard C++ Library file.  You should @c \#include this file
  27:c:\program files\daisytoolchain\arm-none-eabi\include\c++\10.2.1\cmath ****  *  in your programs, rather than any of the @a *.h implementation files.
  28:c:\program files\daisytoolchain\arm-none-eabi\include\c++\10.2.1\cmath ****  *
  29:c:\program files\daisytoolchain\arm-none-eabi\include\c++\10.2.1\cmath ****  *  This is the C++ version of the Standard C Library header @c math.h,
  30:c:\program files\daisytoolchain\arm-none-eabi\include\c++\10.2.1\cmath ****  *  and its contents are (mostly) the same as that header, but are all
  31:c:\program files\daisytoolchain\arm-none-eabi\include\c++\10.2.1\cmath ****  *  contained in the namespace @c std (except for names which are defined
  32:c:\program files\daisytoolchain\arm-none-eabi\include\c++\10.2.1\cmath ****  *  as macros in C).
  33:c:\program files\daisytoolchain\arm-none-eabi\include\c++\10.2.1\cmath ****  */
  34:c:\program files\daisytoolchain\arm-none-eabi\include\c++\10.2.1\cmath **** 
  35:c:\program files\daisytoolchain\arm-none-eabi\include\c++\10.2.1\cmath **** //
  36:c:\program files\daisytoolchain\arm-none-eabi\include\c++\10.2.1\cmath **** // ISO C++ 14882: 26.5  C library
  37:c:\program files\daisytoolchain\arm-none-eabi\include\c++\10.2.1\cmath **** //
  38:c:\program files\daisytoolchain\arm-none-eabi\include\c++\10.2.1\cmath **** 
  39:c:\program files\daisytoolchain\arm-none-eabi\include\c++\10.2.1\cmath **** #pragma GCC system_header
  40:c:\program files\daisytoolchain\arm-none-eabi\include\c++\10.2.1\cmath **** 
  41:c:\program files\daisytoolchain\arm-none-eabi\include\c++\10.2.1\cmath **** #include <bits/c++config.h>
  42:c:\program files\daisytoolchain\arm-none-eabi\include\c++\10.2.1\cmath **** #include <bits/cpp_type_traits.h>
ARM GAS  C:\Users\galla\AppData\Local\Temp\ccVNmTCK.s 			page 20


  43:c:\program files\daisytoolchain\arm-none-eabi\include\c++\10.2.1\cmath **** #include <ext/type_traits.h>
  44:c:\program files\daisytoolchain\arm-none-eabi\include\c++\10.2.1\cmath **** #define _GLIBCXX_INCLUDE_NEXT_C_HEADERS
  45:c:\program files\daisytoolchain\arm-none-eabi\include\c++\10.2.1\cmath **** #include_next <math.h>
  46:c:\program files\daisytoolchain\arm-none-eabi\include\c++\10.2.1\cmath **** #undef _GLIBCXX_INCLUDE_NEXT_C_HEADERS
  47:c:\program files\daisytoolchain\arm-none-eabi\include\c++\10.2.1\cmath **** #include <bits/std_abs.h>
  48:c:\program files\daisytoolchain\arm-none-eabi\include\c++\10.2.1\cmath **** 
  49:c:\program files\daisytoolchain\arm-none-eabi\include\c++\10.2.1\cmath **** #ifndef _GLIBCXX_CMATH
  50:c:\program files\daisytoolchain\arm-none-eabi\include\c++\10.2.1\cmath **** #define _GLIBCXX_CMATH 1
  51:c:\program files\daisytoolchain\arm-none-eabi\include\c++\10.2.1\cmath **** 
  52:c:\program files\daisytoolchain\arm-none-eabi\include\c++\10.2.1\cmath **** // Get rid of those macros defined in <math.h> in lieu of real functions.
  53:c:\program files\daisytoolchain\arm-none-eabi\include\c++\10.2.1\cmath **** #undef div
  54:c:\program files\daisytoolchain\arm-none-eabi\include\c++\10.2.1\cmath **** #undef acos
  55:c:\program files\daisytoolchain\arm-none-eabi\include\c++\10.2.1\cmath **** #undef asin
  56:c:\program files\daisytoolchain\arm-none-eabi\include\c++\10.2.1\cmath **** #undef atan
  57:c:\program files\daisytoolchain\arm-none-eabi\include\c++\10.2.1\cmath **** #undef atan2
  58:c:\program files\daisytoolchain\arm-none-eabi\include\c++\10.2.1\cmath **** #undef ceil
  59:c:\program files\daisytoolchain\arm-none-eabi\include\c++\10.2.1\cmath **** #undef cos
  60:c:\program files\daisytoolchain\arm-none-eabi\include\c++\10.2.1\cmath **** #undef cosh
  61:c:\program files\daisytoolchain\arm-none-eabi\include\c++\10.2.1\cmath **** #undef exp
  62:c:\program files\daisytoolchain\arm-none-eabi\include\c++\10.2.1\cmath **** #undef fabs
  63:c:\program files\daisytoolchain\arm-none-eabi\include\c++\10.2.1\cmath **** #undef floor
  64:c:\program files\daisytoolchain\arm-none-eabi\include\c++\10.2.1\cmath **** #undef fmod
  65:c:\program files\daisytoolchain\arm-none-eabi\include\c++\10.2.1\cmath **** #undef frexp
  66:c:\program files\daisytoolchain\arm-none-eabi\include\c++\10.2.1\cmath **** #undef ldexp
  67:c:\program files\daisytoolchain\arm-none-eabi\include\c++\10.2.1\cmath **** #undef log
  68:c:\program files\daisytoolchain\arm-none-eabi\include\c++\10.2.1\cmath **** #undef log10
  69:c:\program files\daisytoolchain\arm-none-eabi\include\c++\10.2.1\cmath **** #undef modf
  70:c:\program files\daisytoolchain\arm-none-eabi\include\c++\10.2.1\cmath **** #undef pow
  71:c:\program files\daisytoolchain\arm-none-eabi\include\c++\10.2.1\cmath **** #undef sin
  72:c:\program files\daisytoolchain\arm-none-eabi\include\c++\10.2.1\cmath **** #undef sinh
  73:c:\program files\daisytoolchain\arm-none-eabi\include\c++\10.2.1\cmath **** #undef sqrt
  74:c:\program files\daisytoolchain\arm-none-eabi\include\c++\10.2.1\cmath **** #undef tan
  75:c:\program files\daisytoolchain\arm-none-eabi\include\c++\10.2.1\cmath **** #undef tanh
  76:c:\program files\daisytoolchain\arm-none-eabi\include\c++\10.2.1\cmath **** 
  77:c:\program files\daisytoolchain\arm-none-eabi\include\c++\10.2.1\cmath **** extern "C++"
  78:c:\program files\daisytoolchain\arm-none-eabi\include\c++\10.2.1\cmath **** {
  79:c:\program files\daisytoolchain\arm-none-eabi\include\c++\10.2.1\cmath **** namespace std _GLIBCXX_VISIBILITY(default)
  80:c:\program files\daisytoolchain\arm-none-eabi\include\c++\10.2.1\cmath **** {
  81:c:\program files\daisytoolchain\arm-none-eabi\include\c++\10.2.1\cmath **** _GLIBCXX_BEGIN_NAMESPACE_VERSION
  82:c:\program files\daisytoolchain\arm-none-eabi\include\c++\10.2.1\cmath **** 
  83:c:\program files\daisytoolchain\arm-none-eabi\include\c++\10.2.1\cmath ****   using ::acos;
  84:c:\program files\daisytoolchain\arm-none-eabi\include\c++\10.2.1\cmath **** 
  85:c:\program files\daisytoolchain\arm-none-eabi\include\c++\10.2.1\cmath **** #ifndef __CORRECT_ISO_CPP_MATH_H_PROTO
  86:c:\program files\daisytoolchain\arm-none-eabi\include\c++\10.2.1\cmath ****   inline _GLIBCXX_CONSTEXPR float
  87:c:\program files\daisytoolchain\arm-none-eabi\include\c++\10.2.1\cmath ****   acos(float __x)
  88:c:\program files\daisytoolchain\arm-none-eabi\include\c++\10.2.1\cmath ****   { return __builtin_acosf(__x); }
  89:c:\program files\daisytoolchain\arm-none-eabi\include\c++\10.2.1\cmath **** 
  90:c:\program files\daisytoolchain\arm-none-eabi\include\c++\10.2.1\cmath ****   inline _GLIBCXX_CONSTEXPR long double
  91:c:\program files\daisytoolchain\arm-none-eabi\include\c++\10.2.1\cmath ****   acos(long double __x)
  92:c:\program files\daisytoolchain\arm-none-eabi\include\c++\10.2.1\cmath ****   { return __builtin_acosl(__x); }
  93:c:\program files\daisytoolchain\arm-none-eabi\include\c++\10.2.1\cmath **** #endif
  94:c:\program files\daisytoolchain\arm-none-eabi\include\c++\10.2.1\cmath **** 
  95:c:\program files\daisytoolchain\arm-none-eabi\include\c++\10.2.1\cmath ****   template<typename _Tp>
  96:c:\program files\daisytoolchain\arm-none-eabi\include\c++\10.2.1\cmath ****     inline _GLIBCXX_CONSTEXPR
  97:c:\program files\daisytoolchain\arm-none-eabi\include\c++\10.2.1\cmath ****     typename __gnu_cxx::__enable_if<__is_integer<_Tp>::__value, 
  98:c:\program files\daisytoolchain\arm-none-eabi\include\c++\10.2.1\cmath ****                                     double>::__type
  99:c:\program files\daisytoolchain\arm-none-eabi\include\c++\10.2.1\cmath ****     acos(_Tp __x)
ARM GAS  C:\Users\galla\AppData\Local\Temp\ccVNmTCK.s 			page 21


 100:c:\program files\daisytoolchain\arm-none-eabi\include\c++\10.2.1\cmath ****     { return __builtin_acos(__x); }
 101:c:\program files\daisytoolchain\arm-none-eabi\include\c++\10.2.1\cmath **** 
 102:c:\program files\daisytoolchain\arm-none-eabi\include\c++\10.2.1\cmath ****   using ::asin;
 103:c:\program files\daisytoolchain\arm-none-eabi\include\c++\10.2.1\cmath **** 
 104:c:\program files\daisytoolchain\arm-none-eabi\include\c++\10.2.1\cmath **** #ifndef __CORRECT_ISO_CPP_MATH_H_PROTO
 105:c:\program files\daisytoolchain\arm-none-eabi\include\c++\10.2.1\cmath ****   inline _GLIBCXX_CONSTEXPR float
 106:c:\program files\daisytoolchain\arm-none-eabi\include\c++\10.2.1\cmath ****   asin(float __x)
 107:c:\program files\daisytoolchain\arm-none-eabi\include\c++\10.2.1\cmath ****   { return __builtin_asinf(__x); }
 108:c:\program files\daisytoolchain\arm-none-eabi\include\c++\10.2.1\cmath **** 
 109:c:\program files\daisytoolchain\arm-none-eabi\include\c++\10.2.1\cmath ****   inline _GLIBCXX_CONSTEXPR long double
 110:c:\program files\daisytoolchain\arm-none-eabi\include\c++\10.2.1\cmath ****   asin(long double __x)
 111:c:\program files\daisytoolchain\arm-none-eabi\include\c++\10.2.1\cmath ****   { return __builtin_asinl(__x); }
 112:c:\program files\daisytoolchain\arm-none-eabi\include\c++\10.2.1\cmath **** #endif
 113:c:\program files\daisytoolchain\arm-none-eabi\include\c++\10.2.1\cmath **** 
 114:c:\program files\daisytoolchain\arm-none-eabi\include\c++\10.2.1\cmath ****   template<typename _Tp>
 115:c:\program files\daisytoolchain\arm-none-eabi\include\c++\10.2.1\cmath ****     inline _GLIBCXX_CONSTEXPR
 116:c:\program files\daisytoolchain\arm-none-eabi\include\c++\10.2.1\cmath ****     typename __gnu_cxx::__enable_if<__is_integer<_Tp>::__value,
 117:c:\program files\daisytoolchain\arm-none-eabi\include\c++\10.2.1\cmath ****                                     double>::__type
 118:c:\program files\daisytoolchain\arm-none-eabi\include\c++\10.2.1\cmath ****     asin(_Tp __x)
 119:c:\program files\daisytoolchain\arm-none-eabi\include\c++\10.2.1\cmath ****     { return __builtin_asin(__x); }
 120:c:\program files\daisytoolchain\arm-none-eabi\include\c++\10.2.1\cmath **** 
 121:c:\program files\daisytoolchain\arm-none-eabi\include\c++\10.2.1\cmath ****   using ::atan;
 122:c:\program files\daisytoolchain\arm-none-eabi\include\c++\10.2.1\cmath **** 
 123:c:\program files\daisytoolchain\arm-none-eabi\include\c++\10.2.1\cmath **** #ifndef __CORRECT_ISO_CPP_MATH_H_PROTO
 124:c:\program files\daisytoolchain\arm-none-eabi\include\c++\10.2.1\cmath ****   inline _GLIBCXX_CONSTEXPR float
 125:c:\program files\daisytoolchain\arm-none-eabi\include\c++\10.2.1\cmath ****   atan(float __x)
 126:c:\program files\daisytoolchain\arm-none-eabi\include\c++\10.2.1\cmath ****   { return __builtin_atanf(__x); }
 127:c:\program files\daisytoolchain\arm-none-eabi\include\c++\10.2.1\cmath **** 
 128:c:\program files\daisytoolchain\arm-none-eabi\include\c++\10.2.1\cmath ****   inline _GLIBCXX_CONSTEXPR long double
 129:c:\program files\daisytoolchain\arm-none-eabi\include\c++\10.2.1\cmath ****   atan(long double __x)
 130:c:\program files\daisytoolchain\arm-none-eabi\include\c++\10.2.1\cmath ****   { return __builtin_atanl(__x); }
 131:c:\program files\daisytoolchain\arm-none-eabi\include\c++\10.2.1\cmath **** #endif
 132:c:\program files\daisytoolchain\arm-none-eabi\include\c++\10.2.1\cmath **** 
 133:c:\program files\daisytoolchain\arm-none-eabi\include\c++\10.2.1\cmath ****   template<typename _Tp>
 134:c:\program files\daisytoolchain\arm-none-eabi\include\c++\10.2.1\cmath ****     inline _GLIBCXX_CONSTEXPR
 135:c:\program files\daisytoolchain\arm-none-eabi\include\c++\10.2.1\cmath ****     typename __gnu_cxx::__enable_if<__is_integer<_Tp>::__value,
 136:c:\program files\daisytoolchain\arm-none-eabi\include\c++\10.2.1\cmath ****                                     double>::__type
 137:c:\program files\daisytoolchain\arm-none-eabi\include\c++\10.2.1\cmath ****     atan(_Tp __x)
 138:c:\program files\daisytoolchain\arm-none-eabi\include\c++\10.2.1\cmath ****     { return __builtin_atan(__x); }
 139:c:\program files\daisytoolchain\arm-none-eabi\include\c++\10.2.1\cmath **** 
 140:c:\program files\daisytoolchain\arm-none-eabi\include\c++\10.2.1\cmath ****   using ::atan2;
 141:c:\program files\daisytoolchain\arm-none-eabi\include\c++\10.2.1\cmath **** 
 142:c:\program files\daisytoolchain\arm-none-eabi\include\c++\10.2.1\cmath **** #ifndef __CORRECT_ISO_CPP_MATH_H_PROTO
 143:c:\program files\daisytoolchain\arm-none-eabi\include\c++\10.2.1\cmath ****   inline _GLIBCXX_CONSTEXPR float
 144:c:\program files\daisytoolchain\arm-none-eabi\include\c++\10.2.1\cmath ****   atan2(float __y, float __x)
 145:c:\program files\daisytoolchain\arm-none-eabi\include\c++\10.2.1\cmath ****   { return __builtin_atan2f(__y, __x); }
 146:c:\program files\daisytoolchain\arm-none-eabi\include\c++\10.2.1\cmath **** 
 147:c:\program files\daisytoolchain\arm-none-eabi\include\c++\10.2.1\cmath ****   inline _GLIBCXX_CONSTEXPR long double
 148:c:\program files\daisytoolchain\arm-none-eabi\include\c++\10.2.1\cmath ****   atan2(long double __y, long double __x)
 149:c:\program files\daisytoolchain\arm-none-eabi\include\c++\10.2.1\cmath ****   { return __builtin_atan2l(__y, __x); }
 150:c:\program files\daisytoolchain\arm-none-eabi\include\c++\10.2.1\cmath **** #endif
 151:c:\program files\daisytoolchain\arm-none-eabi\include\c++\10.2.1\cmath **** 
 152:c:\program files\daisytoolchain\arm-none-eabi\include\c++\10.2.1\cmath ****   template<typename _Tp, typename _Up>
 153:c:\program files\daisytoolchain\arm-none-eabi\include\c++\10.2.1\cmath ****     inline _GLIBCXX_CONSTEXPR
 154:c:\program files\daisytoolchain\arm-none-eabi\include\c++\10.2.1\cmath ****     typename __gnu_cxx::__promote_2<_Tp, _Up>::__type
 155:c:\program files\daisytoolchain\arm-none-eabi\include\c++\10.2.1\cmath ****     atan2(_Tp __y, _Up __x)
 156:c:\program files\daisytoolchain\arm-none-eabi\include\c++\10.2.1\cmath ****     {
ARM GAS  C:\Users\galla\AppData\Local\Temp\ccVNmTCK.s 			page 22


 157:c:\program files\daisytoolchain\arm-none-eabi\include\c++\10.2.1\cmath ****       typedef typename __gnu_cxx::__promote_2<_Tp, _Up>::__type __type;
 158:c:\program files\daisytoolchain\arm-none-eabi\include\c++\10.2.1\cmath ****       return atan2(__type(__y), __type(__x));
 159:c:\program files\daisytoolchain\arm-none-eabi\include\c++\10.2.1\cmath ****     }
 160:c:\program files\daisytoolchain\arm-none-eabi\include\c++\10.2.1\cmath **** 
 161:c:\program files\daisytoolchain\arm-none-eabi\include\c++\10.2.1\cmath ****   using ::ceil;
 162:c:\program files\daisytoolchain\arm-none-eabi\include\c++\10.2.1\cmath **** 
 163:c:\program files\daisytoolchain\arm-none-eabi\include\c++\10.2.1\cmath **** #ifndef __CORRECT_ISO_CPP_MATH_H_PROTO
 164:c:\program files\daisytoolchain\arm-none-eabi\include\c++\10.2.1\cmath ****   inline _GLIBCXX_CONSTEXPR float
 165:c:\program files\daisytoolchain\arm-none-eabi\include\c++\10.2.1\cmath ****   ceil(float __x)
 166:c:\program files\daisytoolchain\arm-none-eabi\include\c++\10.2.1\cmath ****   { return __builtin_ceilf(__x); }
 167:c:\program files\daisytoolchain\arm-none-eabi\include\c++\10.2.1\cmath **** 
 168:c:\program files\daisytoolchain\arm-none-eabi\include\c++\10.2.1\cmath ****   inline _GLIBCXX_CONSTEXPR long double
 169:c:\program files\daisytoolchain\arm-none-eabi\include\c++\10.2.1\cmath ****   ceil(long double __x)
 170:c:\program files\daisytoolchain\arm-none-eabi\include\c++\10.2.1\cmath ****   { return __builtin_ceill(__x); }
 171:c:\program files\daisytoolchain\arm-none-eabi\include\c++\10.2.1\cmath **** #endif
 172:c:\program files\daisytoolchain\arm-none-eabi\include\c++\10.2.1\cmath **** 
 173:c:\program files\daisytoolchain\arm-none-eabi\include\c++\10.2.1\cmath ****   template<typename _Tp>
 174:c:\program files\daisytoolchain\arm-none-eabi\include\c++\10.2.1\cmath ****     inline _GLIBCXX_CONSTEXPR
 175:c:\program files\daisytoolchain\arm-none-eabi\include\c++\10.2.1\cmath ****     typename __gnu_cxx::__enable_if<__is_integer<_Tp>::__value, 
 176:c:\program files\daisytoolchain\arm-none-eabi\include\c++\10.2.1\cmath ****                                     double>::__type
 177:c:\program files\daisytoolchain\arm-none-eabi\include\c++\10.2.1\cmath ****     ceil(_Tp __x)
 178:c:\program files\daisytoolchain\arm-none-eabi\include\c++\10.2.1\cmath ****     { return __builtin_ceil(__x); }
 179:c:\program files\daisytoolchain\arm-none-eabi\include\c++\10.2.1\cmath **** 
 180:c:\program files\daisytoolchain\arm-none-eabi\include\c++\10.2.1\cmath ****   using ::cos;
 181:c:\program files\daisytoolchain\arm-none-eabi\include\c++\10.2.1\cmath **** 
 182:c:\program files\daisytoolchain\arm-none-eabi\include\c++\10.2.1\cmath **** #ifndef __CORRECT_ISO_CPP_MATH_H_PROTO
 183:c:\program files\daisytoolchain\arm-none-eabi\include\c++\10.2.1\cmath ****   inline _GLIBCXX_CONSTEXPR float
 184:c:\program files\daisytoolchain\arm-none-eabi\include\c++\10.2.1\cmath ****   cos(float __x)
 185:c:\program files\daisytoolchain\arm-none-eabi\include\c++\10.2.1\cmath ****   { return __builtin_cosf(__x); }
 186:c:\program files\daisytoolchain\arm-none-eabi\include\c++\10.2.1\cmath **** 
 187:c:\program files\daisytoolchain\arm-none-eabi\include\c++\10.2.1\cmath ****   inline _GLIBCXX_CONSTEXPR long double
 188:c:\program files\daisytoolchain\arm-none-eabi\include\c++\10.2.1\cmath ****   cos(long double __x)
 189:c:\program files\daisytoolchain\arm-none-eabi\include\c++\10.2.1\cmath ****   { return __builtin_cosl(__x); }
 190:c:\program files\daisytoolchain\arm-none-eabi\include\c++\10.2.1\cmath **** #endif
 191:c:\program files\daisytoolchain\arm-none-eabi\include\c++\10.2.1\cmath **** 
 192:c:\program files\daisytoolchain\arm-none-eabi\include\c++\10.2.1\cmath ****   template<typename _Tp>
 193:c:\program files\daisytoolchain\arm-none-eabi\include\c++\10.2.1\cmath ****     inline _GLIBCXX_CONSTEXPR
 194:c:\program files\daisytoolchain\arm-none-eabi\include\c++\10.2.1\cmath ****     typename __gnu_cxx::__enable_if<__is_integer<_Tp>::__value,
 195:c:\program files\daisytoolchain\arm-none-eabi\include\c++\10.2.1\cmath ****                                     double>::__type
 196:c:\program files\daisytoolchain\arm-none-eabi\include\c++\10.2.1\cmath ****     cos(_Tp __x)
 197:c:\program files\daisytoolchain\arm-none-eabi\include\c++\10.2.1\cmath ****     { return __builtin_cos(__x); }
 198:c:\program files\daisytoolchain\arm-none-eabi\include\c++\10.2.1\cmath **** 
 199:c:\program files\daisytoolchain\arm-none-eabi\include\c++\10.2.1\cmath ****   using ::cosh;
 200:c:\program files\daisytoolchain\arm-none-eabi\include\c++\10.2.1\cmath **** 
 201:c:\program files\daisytoolchain\arm-none-eabi\include\c++\10.2.1\cmath **** #ifndef __CORRECT_ISO_CPP_MATH_H_PROTO
 202:c:\program files\daisytoolchain\arm-none-eabi\include\c++\10.2.1\cmath ****   inline _GLIBCXX_CONSTEXPR float
 203:c:\program files\daisytoolchain\arm-none-eabi\include\c++\10.2.1\cmath ****   cosh(float __x)
 204:c:\program files\daisytoolchain\arm-none-eabi\include\c++\10.2.1\cmath ****   { return __builtin_coshf(__x); }
 205:c:\program files\daisytoolchain\arm-none-eabi\include\c++\10.2.1\cmath **** 
 206:c:\program files\daisytoolchain\arm-none-eabi\include\c++\10.2.1\cmath ****   inline _GLIBCXX_CONSTEXPR long double
 207:c:\program files\daisytoolchain\arm-none-eabi\include\c++\10.2.1\cmath ****   cosh(long double __x)
 208:c:\program files\daisytoolchain\arm-none-eabi\include\c++\10.2.1\cmath ****   { return __builtin_coshl(__x); }
 209:c:\program files\daisytoolchain\arm-none-eabi\include\c++\10.2.1\cmath **** #endif
 210:c:\program files\daisytoolchain\arm-none-eabi\include\c++\10.2.1\cmath **** 
 211:c:\program files\daisytoolchain\arm-none-eabi\include\c++\10.2.1\cmath ****   template<typename _Tp>
 212:c:\program files\daisytoolchain\arm-none-eabi\include\c++\10.2.1\cmath ****     inline _GLIBCXX_CONSTEXPR
 213:c:\program files\daisytoolchain\arm-none-eabi\include\c++\10.2.1\cmath ****     typename __gnu_cxx::__enable_if<__is_integer<_Tp>::__value,
ARM GAS  C:\Users\galla\AppData\Local\Temp\ccVNmTCK.s 			page 23


 214:c:\program files\daisytoolchain\arm-none-eabi\include\c++\10.2.1\cmath ****                                     double>::__type
 215:c:\program files\daisytoolchain\arm-none-eabi\include\c++\10.2.1\cmath ****     cosh(_Tp __x)
 216:c:\program files\daisytoolchain\arm-none-eabi\include\c++\10.2.1\cmath ****     { return __builtin_cosh(__x); }
 217:c:\program files\daisytoolchain\arm-none-eabi\include\c++\10.2.1\cmath **** 
 218:c:\program files\daisytoolchain\arm-none-eabi\include\c++\10.2.1\cmath ****   using ::exp;
 219:c:\program files\daisytoolchain\arm-none-eabi\include\c++\10.2.1\cmath **** 
 220:c:\program files\daisytoolchain\arm-none-eabi\include\c++\10.2.1\cmath **** #ifndef __CORRECT_ISO_CPP_MATH_H_PROTO
 221:c:\program files\daisytoolchain\arm-none-eabi\include\c++\10.2.1\cmath ****   inline _GLIBCXX_CONSTEXPR float
 222:c:\program files\daisytoolchain\arm-none-eabi\include\c++\10.2.1\cmath ****   exp(float __x)
 223:c:\program files\daisytoolchain\arm-none-eabi\include\c++\10.2.1\cmath ****   { return __builtin_expf(__x); }
 224:c:\program files\daisytoolchain\arm-none-eabi\include\c++\10.2.1\cmath **** 
 225:c:\program files\daisytoolchain\arm-none-eabi\include\c++\10.2.1\cmath ****   inline _GLIBCXX_CONSTEXPR long double
 226:c:\program files\daisytoolchain\arm-none-eabi\include\c++\10.2.1\cmath ****   exp(long double __x)
 227:c:\program files\daisytoolchain\arm-none-eabi\include\c++\10.2.1\cmath ****   { return __builtin_expl(__x); }
 228:c:\program files\daisytoolchain\arm-none-eabi\include\c++\10.2.1\cmath **** #endif
 229:c:\program files\daisytoolchain\arm-none-eabi\include\c++\10.2.1\cmath **** 
 230:c:\program files\daisytoolchain\arm-none-eabi\include\c++\10.2.1\cmath ****   template<typename _Tp>
 231:c:\program files\daisytoolchain\arm-none-eabi\include\c++\10.2.1\cmath ****     inline _GLIBCXX_CONSTEXPR
 232:c:\program files\daisytoolchain\arm-none-eabi\include\c++\10.2.1\cmath ****     typename __gnu_cxx::__enable_if<__is_integer<_Tp>::__value,
 233:c:\program files\daisytoolchain\arm-none-eabi\include\c++\10.2.1\cmath ****                                     double>::__type
 234:c:\program files\daisytoolchain\arm-none-eabi\include\c++\10.2.1\cmath ****     exp(_Tp __x)
 235:c:\program files\daisytoolchain\arm-none-eabi\include\c++\10.2.1\cmath ****     { return __builtin_exp(__x); }
 236:c:\program files\daisytoolchain\arm-none-eabi\include\c++\10.2.1\cmath **** 
 237:c:\program files\daisytoolchain\arm-none-eabi\include\c++\10.2.1\cmath ****   using ::fabs;
 238:c:\program files\daisytoolchain\arm-none-eabi\include\c++\10.2.1\cmath **** 
 239:c:\program files\daisytoolchain\arm-none-eabi\include\c++\10.2.1\cmath **** #ifndef __CORRECT_ISO_CPP_MATH_H_PROTO
 240:c:\program files\daisytoolchain\arm-none-eabi\include\c++\10.2.1\cmath ****   inline _GLIBCXX_CONSTEXPR float
 241:c:\program files\daisytoolchain\arm-none-eabi\include\c++\10.2.1\cmath ****   fabs(float __x)
 242:c:\program files\daisytoolchain\arm-none-eabi\include\c++\10.2.1\cmath ****   { return __builtin_fabsf(__x); }
 243:c:\program files\daisytoolchain\arm-none-eabi\include\c++\10.2.1\cmath **** 
 244:c:\program files\daisytoolchain\arm-none-eabi\include\c++\10.2.1\cmath ****   inline _GLIBCXX_CONSTEXPR long double
 245:c:\program files\daisytoolchain\arm-none-eabi\include\c++\10.2.1\cmath ****   fabs(long double __x)
 246:c:\program files\daisytoolchain\arm-none-eabi\include\c++\10.2.1\cmath ****   { return __builtin_fabsl(__x); }
 247:c:\program files\daisytoolchain\arm-none-eabi\include\c++\10.2.1\cmath **** #endif
 248:c:\program files\daisytoolchain\arm-none-eabi\include\c++\10.2.1\cmath **** 
 249:c:\program files\daisytoolchain\arm-none-eabi\include\c++\10.2.1\cmath ****   template<typename _Tp>
 250:c:\program files\daisytoolchain\arm-none-eabi\include\c++\10.2.1\cmath ****     inline _GLIBCXX_CONSTEXPR
 251:c:\program files\daisytoolchain\arm-none-eabi\include\c++\10.2.1\cmath ****     typename __gnu_cxx::__enable_if<__is_integer<_Tp>::__value,
 252:c:\program files\daisytoolchain\arm-none-eabi\include\c++\10.2.1\cmath ****                                     double>::__type
 253:c:\program files\daisytoolchain\arm-none-eabi\include\c++\10.2.1\cmath ****     fabs(_Tp __x)
 254:c:\program files\daisytoolchain\arm-none-eabi\include\c++\10.2.1\cmath ****     { return __builtin_fabs(__x); }
 255:c:\program files\daisytoolchain\arm-none-eabi\include\c++\10.2.1\cmath **** 
 256:c:\program files\daisytoolchain\arm-none-eabi\include\c++\10.2.1\cmath ****   using ::floor;
 257:c:\program files\daisytoolchain\arm-none-eabi\include\c++\10.2.1\cmath **** 
 258:c:\program files\daisytoolchain\arm-none-eabi\include\c++\10.2.1\cmath **** #ifndef __CORRECT_ISO_CPP_MATH_H_PROTO
 259:c:\program files\daisytoolchain\arm-none-eabi\include\c++\10.2.1\cmath ****   inline _GLIBCXX_CONSTEXPR float
 260:c:\program files\daisytoolchain\arm-none-eabi\include\c++\10.2.1\cmath ****   floor(float __x)
 261:c:\program files\daisytoolchain\arm-none-eabi\include\c++\10.2.1\cmath ****   { return __builtin_floorf(__x); }
 262:c:\program files\daisytoolchain\arm-none-eabi\include\c++\10.2.1\cmath **** 
 263:c:\program files\daisytoolchain\arm-none-eabi\include\c++\10.2.1\cmath ****   inline _GLIBCXX_CONSTEXPR long double
 264:c:\program files\daisytoolchain\arm-none-eabi\include\c++\10.2.1\cmath ****   floor(long double __x)
 265:c:\program files\daisytoolchain\arm-none-eabi\include\c++\10.2.1\cmath ****   { return __builtin_floorl(__x); }
 266:c:\program files\daisytoolchain\arm-none-eabi\include\c++\10.2.1\cmath **** #endif
 267:c:\program files\daisytoolchain\arm-none-eabi\include\c++\10.2.1\cmath **** 
 268:c:\program files\daisytoolchain\arm-none-eabi\include\c++\10.2.1\cmath ****   template<typename _Tp>
 269:c:\program files\daisytoolchain\arm-none-eabi\include\c++\10.2.1\cmath ****     inline _GLIBCXX_CONSTEXPR
 270:c:\program files\daisytoolchain\arm-none-eabi\include\c++\10.2.1\cmath ****     typename __gnu_cxx::__enable_if<__is_integer<_Tp>::__value,
ARM GAS  C:\Users\galla\AppData\Local\Temp\ccVNmTCK.s 			page 24


 271:c:\program files\daisytoolchain\arm-none-eabi\include\c++\10.2.1\cmath ****                                     double>::__type
 272:c:\program files\daisytoolchain\arm-none-eabi\include\c++\10.2.1\cmath ****     floor(_Tp __x)
 273:c:\program files\daisytoolchain\arm-none-eabi\include\c++\10.2.1\cmath ****     { return __builtin_floor(__x); }
 274:c:\program files\daisytoolchain\arm-none-eabi\include\c++\10.2.1\cmath **** 
 275:c:\program files\daisytoolchain\arm-none-eabi\include\c++\10.2.1\cmath ****   using ::fmod;
 276:c:\program files\daisytoolchain\arm-none-eabi\include\c++\10.2.1\cmath **** 
 277:c:\program files\daisytoolchain\arm-none-eabi\include\c++\10.2.1\cmath **** #ifndef __CORRECT_ISO_CPP_MATH_H_PROTO
 278:c:\program files\daisytoolchain\arm-none-eabi\include\c++\10.2.1\cmath ****   inline _GLIBCXX_CONSTEXPR float
 279:c:\program files\daisytoolchain\arm-none-eabi\include\c++\10.2.1\cmath ****   fmod(float __x, float __y)
 280:c:\program files\daisytoolchain\arm-none-eabi\include\c++\10.2.1\cmath ****   { return __builtin_fmodf(__x, __y); }
 281:c:\program files\daisytoolchain\arm-none-eabi\include\c++\10.2.1\cmath **** 
 282:c:\program files\daisytoolchain\arm-none-eabi\include\c++\10.2.1\cmath ****   inline _GLIBCXX_CONSTEXPR long double
 283:c:\program files\daisytoolchain\arm-none-eabi\include\c++\10.2.1\cmath ****   fmod(long double __x, long double __y)
 284:c:\program files\daisytoolchain\arm-none-eabi\include\c++\10.2.1\cmath ****   { return __builtin_fmodl(__x, __y); }
 285:c:\program files\daisytoolchain\arm-none-eabi\include\c++\10.2.1\cmath **** #endif
 286:c:\program files\daisytoolchain\arm-none-eabi\include\c++\10.2.1\cmath **** 
 287:c:\program files\daisytoolchain\arm-none-eabi\include\c++\10.2.1\cmath ****   template<typename _Tp, typename _Up>
 288:c:\program files\daisytoolchain\arm-none-eabi\include\c++\10.2.1\cmath ****     inline _GLIBCXX_CONSTEXPR
 289:c:\program files\daisytoolchain\arm-none-eabi\include\c++\10.2.1\cmath ****     typename __gnu_cxx::__promote_2<_Tp, _Up>::__type
 290:c:\program files\daisytoolchain\arm-none-eabi\include\c++\10.2.1\cmath ****     fmod(_Tp __x, _Up __y)
 291:c:\program files\daisytoolchain\arm-none-eabi\include\c++\10.2.1\cmath ****     {
 292:c:\program files\daisytoolchain\arm-none-eabi\include\c++\10.2.1\cmath ****       typedef typename __gnu_cxx::__promote_2<_Tp, _Up>::__type __type;
 293:c:\program files\daisytoolchain\arm-none-eabi\include\c++\10.2.1\cmath ****       return fmod(__type(__x), __type(__y));
 294:c:\program files\daisytoolchain\arm-none-eabi\include\c++\10.2.1\cmath ****     }
 295:c:\program files\daisytoolchain\arm-none-eabi\include\c++\10.2.1\cmath **** 
 296:c:\program files\daisytoolchain\arm-none-eabi\include\c++\10.2.1\cmath ****   using ::frexp;
 297:c:\program files\daisytoolchain\arm-none-eabi\include\c++\10.2.1\cmath **** 
 298:c:\program files\daisytoolchain\arm-none-eabi\include\c++\10.2.1\cmath **** #ifndef __CORRECT_ISO_CPP_MATH_H_PROTO
 299:c:\program files\daisytoolchain\arm-none-eabi\include\c++\10.2.1\cmath ****   inline float
 300:c:\program files\daisytoolchain\arm-none-eabi\include\c++\10.2.1\cmath ****   frexp(float __x, int* __exp)
 301:c:\program files\daisytoolchain\arm-none-eabi\include\c++\10.2.1\cmath ****   { return __builtin_frexpf(__x, __exp); }
 302:c:\program files\daisytoolchain\arm-none-eabi\include\c++\10.2.1\cmath **** 
 303:c:\program files\daisytoolchain\arm-none-eabi\include\c++\10.2.1\cmath ****   inline long double
 304:c:\program files\daisytoolchain\arm-none-eabi\include\c++\10.2.1\cmath ****   frexp(long double __x, int* __exp)
 305:c:\program files\daisytoolchain\arm-none-eabi\include\c++\10.2.1\cmath ****   { return __builtin_frexpl(__x, __exp); }
 306:c:\program files\daisytoolchain\arm-none-eabi\include\c++\10.2.1\cmath **** #endif
 307:c:\program files\daisytoolchain\arm-none-eabi\include\c++\10.2.1\cmath **** 
 308:c:\program files\daisytoolchain\arm-none-eabi\include\c++\10.2.1\cmath ****   template<typename _Tp>
 309:c:\program files\daisytoolchain\arm-none-eabi\include\c++\10.2.1\cmath ****     inline _GLIBCXX_CONSTEXPR
 310:c:\program files\daisytoolchain\arm-none-eabi\include\c++\10.2.1\cmath ****     typename __gnu_cxx::__enable_if<__is_integer<_Tp>::__value, 
 311:c:\program files\daisytoolchain\arm-none-eabi\include\c++\10.2.1\cmath ****                                     double>::__type
 312:c:\program files\daisytoolchain\arm-none-eabi\include\c++\10.2.1\cmath ****     frexp(_Tp __x, int* __exp)
 313:c:\program files\daisytoolchain\arm-none-eabi\include\c++\10.2.1\cmath ****     { return __builtin_frexp(__x, __exp); }
 314:c:\program files\daisytoolchain\arm-none-eabi\include\c++\10.2.1\cmath **** 
 315:c:\program files\daisytoolchain\arm-none-eabi\include\c++\10.2.1\cmath ****   using ::ldexp;
 316:c:\program files\daisytoolchain\arm-none-eabi\include\c++\10.2.1\cmath **** 
 317:c:\program files\daisytoolchain\arm-none-eabi\include\c++\10.2.1\cmath **** #ifndef __CORRECT_ISO_CPP_MATH_H_PROTO
 318:c:\program files\daisytoolchain\arm-none-eabi\include\c++\10.2.1\cmath ****   inline _GLIBCXX_CONSTEXPR float
 319:c:\program files\daisytoolchain\arm-none-eabi\include\c++\10.2.1\cmath ****   ldexp(float __x, int __exp)
 320:c:\program files\daisytoolchain\arm-none-eabi\include\c++\10.2.1\cmath ****   { return __builtin_ldexpf(__x, __exp); }
 321:c:\program files\daisytoolchain\arm-none-eabi\include\c++\10.2.1\cmath **** 
 322:c:\program files\daisytoolchain\arm-none-eabi\include\c++\10.2.1\cmath ****   inline _GLIBCXX_CONSTEXPR long double
 323:c:\program files\daisytoolchain\arm-none-eabi\include\c++\10.2.1\cmath ****   ldexp(long double __x, int __exp)
 324:c:\program files\daisytoolchain\arm-none-eabi\include\c++\10.2.1\cmath ****   { return __builtin_ldexpl(__x, __exp); }
 325:c:\program files\daisytoolchain\arm-none-eabi\include\c++\10.2.1\cmath **** #endif
 326:c:\program files\daisytoolchain\arm-none-eabi\include\c++\10.2.1\cmath **** 
 327:c:\program files\daisytoolchain\arm-none-eabi\include\c++\10.2.1\cmath ****   template<typename _Tp>
ARM GAS  C:\Users\galla\AppData\Local\Temp\ccVNmTCK.s 			page 25


 328:c:\program files\daisytoolchain\arm-none-eabi\include\c++\10.2.1\cmath ****     inline _GLIBCXX_CONSTEXPR
 329:c:\program files\daisytoolchain\arm-none-eabi\include\c++\10.2.1\cmath ****     typename __gnu_cxx::__enable_if<__is_integer<_Tp>::__value, 
 330:c:\program files\daisytoolchain\arm-none-eabi\include\c++\10.2.1\cmath ****                                     double>::__type
 331:c:\program files\daisytoolchain\arm-none-eabi\include\c++\10.2.1\cmath ****     ldexp(_Tp __x, int __exp)
 332:c:\program files\daisytoolchain\arm-none-eabi\include\c++\10.2.1\cmath ****     { return __builtin_ldexp(__x, __exp); }
 333:c:\program files\daisytoolchain\arm-none-eabi\include\c++\10.2.1\cmath **** 
 334:c:\program files\daisytoolchain\arm-none-eabi\include\c++\10.2.1\cmath ****   using ::log;
 335:c:\program files\daisytoolchain\arm-none-eabi\include\c++\10.2.1\cmath **** 
 336:c:\program files\daisytoolchain\arm-none-eabi\include\c++\10.2.1\cmath **** #ifndef __CORRECT_ISO_CPP_MATH_H_PROTO
 337:c:\program files\daisytoolchain\arm-none-eabi\include\c++\10.2.1\cmath ****   inline _GLIBCXX_CONSTEXPR float
 338:c:\program files\daisytoolchain\arm-none-eabi\include\c++\10.2.1\cmath ****   log(float __x)
 339:c:\program files\daisytoolchain\arm-none-eabi\include\c++\10.2.1\cmath ****   { return __builtin_logf(__x); }
 403              		.loc 12 339 26 view .LVU41
 404 001a 38EE290A 		vadd.f32	s0, s16, s19
 405              	.LVL12:
 406              		.loc 12 339 26 view .LVU42
 407              	.LBE189:
 408              	.LBE188:
 409              		.loc 10 44 27 view .LVU43
 410 001e A8EE279A 		vfma.f32	s18, s16, s15
 411              	.LVL13:
 412              	.LBB191:
 413              	.LBI188:
 338:c:\program files\daisytoolchain\arm-none-eabi\include\c++\10.2.1\cmath ****   { return __builtin_logf(__x); }
 414              		.loc 12 338 3 is_stmt 1 view .LVU44
 415              	.LBB190:
 416              		.loc 12 339 5 view .LVU45
 417              		.loc 12 339 26 is_stmt 0 view .LVU46
 418 0022 FFF7FEFF 		bl	logf
 419              	.LVL14:
 420              		.loc 12 339 26 view .LVU47
 421              	.LBE190:
 422              	.LBE191:
 423              		.loc 10 44 57 view .LVU48
 424 0026 F0EE087A 		vmov.f32	s15, #3.0e+0
 425              		.loc 10 44 18 view .LVU49
 426 002a B1EE086A 		vmov.f32	s12, #6.0e+0
 427              		.loc 10 44 71 view .LVU50
 428 002e F2EE026A 		vmov.f32	s13, #9.0e+0
 429              		.loc 10 44 57 view .LVU51
 430 0032 78EEA77A 		vadd.f32	s15, s17, s15
  45:main.cpp      **** 
  46:main.cpp      ****     out = -1*num/12;
 431              		.loc 10 46 9 view .LVU52
 432 0036 B2EE087A 		vmov.f32	s14, #1.2e+1
  44:main.cpp      **** 
 433              		.loc 10 44 32 view .LVU53
 434 003a 39EE299A 		vadd.f32	s18, s18, s19
  44:main.cpp      **** 
 435              		.loc 10 44 52 view .LVU54
 436 003e 77EEA77A 		vadd.f32	s15, s15, s15
  44:main.cpp      **** 
 437              		.loc 10 44 18 view .LVU55
 438 0042 29EE069A 		vmul.f32	s18, s18, s12
  44:main.cpp      **** 
 439              		.loc 10 44 49 view .LVU56
 440 0046 28EE678A 		vnmul.f32	s16, s16, s15
ARM GAS  C:\Users\galla\AppData\Local\Temp\ccVNmTCK.s 			page 26


 441              	.LVL15:
  44:main.cpp      **** 
 442              		.loc 10 44 49 view .LVU57
 443 004a A9EE008A 		vfma.f32	s16, s18, s0
  44:main.cpp      **** 
 444              		.loc 10 44 71 view .LVU58
 445 004e A8EEE68A 		vfms.f32	s16, s17, s13
 446              	.LVL16:
 447              		.loc 10 46 5 is_stmt 1 view .LVU59
  47:main.cpp      **** 
  48:main.cpp      ****     return out;
 448              		.loc 10 48 5 view .LVU60
  46:main.cpp      **** 
 449              		.loc 10 46 13 is_stmt 0 view .LVU61
 450 0052 B1EE488A 		vneg.f32	s16, s16
 451              	.LVL17:
  49:main.cpp      **** }
 452              		.loc 10 49 1 view .LVU62
 453 0056 88EE070A 		vdiv.f32	s0, s16, s14
 454              	.LVL18:
 455              		.loc 10 49 1 view .LVU63
 456 005a BDEC048B 		vldm	sp!, {d8-d9}
 457              		.cfi_restore 82
 458              		.cfi_restore 83
 459              		.cfi_restore 80
 460              		.cfi_restore 81
 461              		.cfi_def_cfa_offset 8
 462              		.loc 10 49 1 view .LVU64
 463 005e 08BD     		pop	{r3, pc}
 464              		.cfi_endproc
 465              	.LFE4736:
 467              		.section	.text._Z2tsf,"ax",%progbits
 468              		.align	1
 469              		.p2align 2,,3
 470              		.global	_Z2tsf
 471              		.syntax unified
 472              		.thumb
 473              		.thumb_func
 474              		.fpu fpv5-d16
 476              	_Z2tsf:
 477              	.LVL19:
 478              	.LFB4737:
  50:main.cpp      **** 
  51:main.cpp      **** float ts(float in) {
 479              		.loc 10 51 20 is_stmt 1 view -0
 480              		.cfi_startproc
 481              		@ args = 0, pretend = 0, frame = 0
 482              		@ frame_needed = 0, uses_anonymous_args = 0
 483              		@ link register save eliminated.
  52:main.cpp      ****     return in / (1 + abs(in));
 484              		.loc 10 52 5 view .LVU66
 485              		.loc 10 52 20 is_stmt 0 view .LVU67
 486 0000 B7EE007A 		vmov.f32	s14, #1.0e+0
 487              	.LVL20:
 488              	.LBB192:
 489              	.LBI192:
  75:c:\program files\daisytoolchain\arm-none-eabi\include\c++\10.2.1\bits\std_abs.h ****   { return __builtin_fabsf(__x); }
ARM GAS  C:\Users\galla\AppData\Local\Temp\ccVNmTCK.s 			page 27


 490              		.loc 11 75 3 is_stmt 1 view .LVU68
 491              	.LBB193:
 492              		.loc 11 76 5 view .LVU69
 493              		.loc 11 76 31 is_stmt 0 view .LVU70
 494 0004 F0EEC07A 		vabs.f32	s15, s0
 495              	.LBE193:
 496              	.LBE192:
 497              		.loc 10 52 20 view .LVU71
 498 0008 77EE877A 		vadd.f32	s15, s15, s14
  53:main.cpp      **** }
 499              		.loc 10 53 1 view .LVU72
 500 000c 80EE270A 		vdiv.f32	s0, s0, s15
 501              	.LVL21:
 502              		.loc 10 53 1 view .LVU73
 503 0010 7047     		bx	lr
 504              		.cfi_endproc
 505              	.LFE4737:
 507 0012 00BF     		.section	.text._Z5bm3ADf,"ax",%progbits
 508              		.align	1
 509              		.p2align 2,,3
 510              		.global	_Z5bm3ADf
 511              		.syntax unified
 512              		.thumb
 513              		.thumb_func
 514              		.fpu fpv5-d16
 516              	_Z5bm3ADf:
 517              	.LVL22:
 518              	.LFB4738:
  54:main.cpp      **** 
  55:main.cpp      **** float bm3AD(float x) {
 519              		.loc 10 55 22 is_stmt 1 view -0
 520              		.cfi_startproc
 521              		@ args = 0, pretend = 0, frame = 0
 522              		@ frame_needed = 0, uses_anonymous_args = 0
 523              		@ link register save eliminated.
  56:main.cpp      ****     float out;
 524              		.loc 10 56 5 view .LVU75
  57:main.cpp      ****     float stage1;
 525              		.loc 10 57 5 view .LVU76
  58:main.cpp      **** 
  59:main.cpp      ****     if (x >= 0.4) {
 526              		.loc 10 59 5 view .LVU77
 527 0000 9FED357B 		vldr.64	d7, .L41
 528              		.loc 10 59 9 is_stmt 0 view .LVU78
 529 0004 B7EEC00A 		vcvt.f64.f32	d0, s0
 530              	.LVL23:
 531              		.loc 10 59 5 view .LVU79
 532 0008 B4EEC70B 		vcmpe.f64	d0, d7
 533 000c F1EE10FA 		vmrs	APSR_nzcv, FPSCR
 534 0010 21DB     		blt	.L37
  60:main.cpp      ****         stage1 = 0.666667*x*x*x;
 535              		.loc 10 60 9 is_stmt 1 view .LVU80
 536              		.loc 10 60 26 is_stmt 0 view .LVU81
 537 0012 9FED337B 		vldr.64	d7, .L41+8
 538 0016 20EE077B 		vmul.f64	d7, d0, d7
 539              		.loc 10 60 28 view .LVU82
 540 001a 27EE007B 		vmul.f64	d7, d7, d0
ARM GAS  C:\Users\galla\AppData\Local\Temp\ccVNmTCK.s 			page 28


 541              		.loc 10 60 30 view .LVU83
 542 001e 27EE000B 		vmul.f64	d0, d7, d0
 543              		.loc 10 60 16 view .LVU84
 544 0022 B7EEC00B 		vcvt.f32.f64	s0, d0
 545              	.LVL24:
 546              	.L25:
  61:main.cpp      ****     } else if(x<= -0.4) {
  62:main.cpp      ****         stage1 = -1*0.666667*x*x*x;
  63:main.cpp      ****     } else {
  64:main.cpp      ****         stage1 = 0.041666*x*x*x*x;
  65:main.cpp      ****     }
  66:main.cpp      **** 
  67:main.cpp      ****     stage1 *= 40;
 547              		.loc 10 67 5 is_stmt 1 view .LVU85
  68:main.cpp      **** 
  69:main.cpp      ****     if (stage1 >= 0.4) {
 548              		.loc 10 69 5 view .LVU86
  67:main.cpp      **** 
 549              		.loc 10 67 12 is_stmt 0 view .LVU87
 550 0026 DFED366A 		vldr.32	s13, .L41+40
 551 002a 20EE260A 		vmul.f32	s0, s0, s13
 552              	.LVL25:
 553              		.loc 10 69 5 view .LVU88
 554 002e 9FED2A7B 		vldr.64	d7, .L41
 555              		.loc 10 69 9 view .LVU89
 556 0032 B7EEC00A 		vcvt.f64.f32	d0, s0
 557              	.LVL26:
 558              		.loc 10 69 5 view .LVU90
 559 0036 B4EEC70B 		vcmpe.f64	d0, d7
 560 003a F1EE10FA 		vmrs	APSR_nzcv, FPSCR
 561 003e 1CDB     		blt	.L39
  70:main.cpp      ****         out = 0.666667*stage1*stage1*stage1;
 562              		.loc 10 70 9 is_stmt 1 view .LVU91
 563              		.loc 10 70 23 is_stmt 0 view .LVU92
 564 0040 9FED277B 		vldr.64	d7, .L41+8
 565 0044 20EE077B 		vmul.f64	d7, d0, d7
 566              		.loc 10 70 30 view .LVU93
 567 0048 27EE007B 		vmul.f64	d7, d7, d0
 568              		.loc 10 70 37 view .LVU94
 569 004c 27EE000B 		vmul.f64	d0, d7, d0
 570              		.loc 10 70 13 view .LVU95
 571 0050 B7EEC00B 		vcvt.f32.f64	s0, d0
 572              	.LVL27:
 573              		.loc 10 70 13 view .LVU96
 574 0054 7047     		bx	lr
 575              	.LVL28:
 576              	.L37:
  61:main.cpp      ****         stage1 = -1*0.666667*x*x*x;
 577              		.loc 10 61 12 is_stmt 1 view .LVU97
 578 0056 9FED247B 		vldr.64	d7, .L41+16
 579 005a B4EEC70B 		vcmpe.f64	d0, d7
 580 005e F1EE10FA 		vmrs	APSR_nzcv, FPSCR
 581 0062 29D8     		bhi	.L38
  62:main.cpp      ****     } else {
 582              		.loc 10 62 9 view .LVU98
  62:main.cpp      ****     } else {
 583              		.loc 10 62 29 is_stmt 0 view .LVU99
ARM GAS  C:\Users\galla\AppData\Local\Temp\ccVNmTCK.s 			page 29


 584 0064 9FED227B 		vldr.64	d7, .L41+24
 585 0068 20EE077B 		vmul.f64	d7, d0, d7
  62:main.cpp      ****     } else {
 586              		.loc 10 62 31 view .LVU100
 587 006c 27EE007B 		vmul.f64	d7, d7, d0
  62:main.cpp      ****     } else {
 588              		.loc 10 62 33 view .LVU101
 589 0070 27EE000B 		vmul.f64	d0, d7, d0
  62:main.cpp      ****     } else {
 590              		.loc 10 62 16 view .LVU102
 591 0074 B7EEC00B 		vcvt.f32.f64	s0, d0
 592              	.LVL29:
  62:main.cpp      ****     } else {
 593              		.loc 10 62 16 view .LVU103
 594 0078 D5E7     		b	.L25
 595              	.LVL30:
 596              	.L39:
  71:main.cpp      ****     } else if(stage1 <= -0.4) {
 597              		.loc 10 71 12 is_stmt 1 view .LVU104
 598 007a 9FED1B7B 		vldr.64	d7, .L41+16
 599 007e B4EEC70B 		vcmpe.f64	d0, d7
 600 0082 F1EE10FA 		vmrs	APSR_nzcv, FPSCR
 601 0086 0AD8     		bhi	.L40
  72:main.cpp      ****         out = -1*0.666667*stage1*stage1*stage1; // slilcon diode hard clipping
 602              		.loc 10 72 9 view .LVU105
 603              		.loc 10 72 26 is_stmt 0 view .LVU106
 604 0088 9FED197B 		vldr.64	d7, .L41+24
 605 008c 20EE077B 		vmul.f64	d7, d0, d7
 606              		.loc 10 72 33 view .LVU107
 607 0090 27EE007B 		vmul.f64	d7, d7, d0
 608              		.loc 10 72 40 view .LVU108
 609 0094 27EE000B 		vmul.f64	d0, d7, d0
 610              		.loc 10 72 13 view .LVU109
 611 0098 B7EEC00B 		vcvt.f32.f64	s0, d0
 612              	.LVL31:
 613              		.loc 10 72 13 view .LVU110
 614 009c 7047     		bx	lr
 615              	.LVL32:
 616              	.L40:
  73:main.cpp      ****     } else {
  74:main.cpp      ****         out = 0.041666*stage1*stage1*stage1*stage1;
 617              		.loc 10 74 9 is_stmt 1 view .LVU111
 618              		.loc 10 74 23 is_stmt 0 view .LVU112
 619 009e 9FED167B 		vldr.64	d7, .L41+32
 620 00a2 20EE077B 		vmul.f64	d7, d0, d7
 621              		.loc 10 74 30 view .LVU113
 622 00a6 27EE007B 		vmul.f64	d7, d7, d0
 623              		.loc 10 74 37 view .LVU114
 624 00aa 27EE007B 		vmul.f64	d7, d7, d0
 625              		.loc 10 74 44 view .LVU115
 626 00ae 27EE000B 		vmul.f64	d0, d7, d0
 627              		.loc 10 74 13 view .LVU116
 628 00b2 B7EEC00B 		vcvt.f32.f64	s0, d0
 629              	.LVL33:
  75:main.cpp      ****     }
  76:main.cpp      ****     return out;
 630              		.loc 10 76 5 is_stmt 1 view .LVU117
ARM GAS  C:\Users\galla\AppData\Local\Temp\ccVNmTCK.s 			page 30


  77:main.cpp      **** }
 631              		.loc 10 77 1 is_stmt 0 view .LVU118
 632 00b6 7047     		bx	lr
 633              	.LVL34:
 634              	.L38:
  64:main.cpp      ****     }
 635              		.loc 10 64 9 is_stmt 1 view .LVU119
  64:main.cpp      ****     }
 636              		.loc 10 64 26 is_stmt 0 view .LVU120
 637 00b8 9FED0F7B 		vldr.64	d7, .L41+32
 638 00bc 20EE077B 		vmul.f64	d7, d0, d7
  64:main.cpp      ****     }
 639              		.loc 10 64 28 view .LVU121
 640 00c0 27EE007B 		vmul.f64	d7, d7, d0
  64:main.cpp      ****     }
 641              		.loc 10 64 30 view .LVU122
 642 00c4 27EE007B 		vmul.f64	d7, d7, d0
  64:main.cpp      ****     }
 643              		.loc 10 64 32 view .LVU123
 644 00c8 27EE000B 		vmul.f64	d0, d7, d0
  64:main.cpp      ****     }
 645              		.loc 10 64 16 view .LVU124
 646 00cc B7EEC00B 		vcvt.f32.f64	s0, d0
 647              	.LVL35:
  64:main.cpp      ****     }
 648              		.loc 10 64 16 view .LVU125
 649 00d0 A9E7     		b	.L25
 650              	.L42:
 651 00d2 00BFAFF3 		.align	3
 651      0080
 652              	.L41:
 653 00d8 9A999999 		.word	-1717986918
 654 00dc 9999D93F 		.word	1071225241
 655 00e0 5D514A08 		.word	139088221
 656 00e4 5655E53F 		.word	1071994198
 657 00e8 9A999999 		.word	-1717986918
 658 00ec 9999D9BF 		.word	-1076258407
 659 00f0 5D514A08 		.word	139088221
 660 00f4 5655E5BF 		.word	-1075489450
 661 00f8 63D4B5F6 		.word	-155855773
 662 00fc 3E55A53F 		.word	1067799870
 663 0100 00002042 		.word	1109393408
 664              		.cfi_endproc
 665              	.LFE4738:
 667              		.section	.text._Z2bmf,"ax",%progbits
 668              		.align	1
 669              		.p2align 2,,3
 670              		.global	_Z2bmf
 671              		.syntax unified
 672              		.thumb
 673              		.thumb_func
 674              		.fpu fpv5-d16
 676              	_Z2bmf:
 677              	.LVL36:
 678              	.LFB4739:
  78:main.cpp      **** 
  79:main.cpp      **** float bm(float in) {
ARM GAS  C:\Users\galla\AppData\Local\Temp\ccVNmTCK.s 			page 31


 679              		.loc 10 79 20 is_stmt 1 view -0
 680              		.cfi_startproc
 681              		@ args = 0, pretend = 0, frame = 0
 682              		@ frame_needed = 0, uses_anonymous_args = 0
 683              		@ link register save eliminated.
  80:main.cpp      ****     if (in > 0.4) {
 684              		.loc 10 80 5 view .LVU127
 685 0000 9FED0B7B 		vldr.64	d7, .L47
 686              		.loc 10 80 9 is_stmt 0 view .LVU128
 687 0004 B7EEC06A 		vcvt.f64.f32	d6, s0
 688              		.loc 10 80 5 view .LVU129
 689 0008 B4EEC76B 		vcmpe.f64	d6, d7
 690 000c F1EE10FA 		vmrs	APSR_nzcv, FPSCR
 691 0010 0BDC     		bgt	.L45
  81:main.cpp      ****         return 0.4;
  82:main.cpp      ****     } else if (in < -0.4) {
 692              		.loc 10 82 12 is_stmt 1 view .LVU130
  83:main.cpp      ****         return -0.4;
  84:main.cpp      ****     } else {
  85:main.cpp      ****         return in;
 693              		.loc 10 85 16 is_stmt 0 view .LVU131
 694 0012 DFED0B7A 		vldr.32	s15, .L47+16
  82:main.cpp      ****         return -0.4;
 695              		.loc 10 82 12 view .LVU132
 696 0016 9FED085B 		vldr.64	d5, .L47+8
 697              		.loc 10 85 16 view .LVU133
 698 001a B4EEC56B 		vcmpe.f64	d6, d5
 699 001e F1EE10FA 		vmrs	APSR_nzcv, FPSCR
 700 0022 48BF     		it	mi
 701 0024 B0EE670A 		vmovmi.f32	s0, s15
 702              	.LVL37:
 703              		.loc 10 85 16 view .LVU134
 704 0028 7047     		bx	lr
 705              	.LVL38:
 706              	.L45:
  81:main.cpp      ****         return 0.4;
 707              		.loc 10 81 16 view .LVU135
 708 002a 9FED060A 		vldr.32	s0, .L47+20
 709              	.LVL39:
  86:main.cpp      ****     }
  87:main.cpp      **** }
 710              		.loc 10 87 1 view .LVU136
 711 002e 7047     		bx	lr
 712              	.L48:
 713              		.align	3
 714              	.L47:
 715 0030 9A999999 		.word	-1717986918
 716 0034 9999D93F 		.word	1071225241
 717 0038 9A999999 		.word	-1717986918
 718 003c 9999D9BF 		.word	-1076258407
 719 0040 CDCCCCBE 		.word	-1093874483
 720 0044 CDCCCC3E 		.word	1053609165
 721              		.cfi_endproc
 722              	.LFE4739:
 724              		.section	.text._Z5HM3ADf,"ax",%progbits
 725              		.align	1
 726              		.p2align 2,,3
ARM GAS  C:\Users\galla\AppData\Local\Temp\ccVNmTCK.s 			page 32


 727              		.global	_Z5HM3ADf
 728              		.syntax unified
 729              		.thumb
 730              		.thumb_func
 731              		.fpu fpv5-d16
 733              	_Z5HM3ADf:
 734              	.LVL40:
 735              	.LFB4740:
  88:main.cpp      **** 
  89:main.cpp      **** float HM3AD(float in) {
 736              		.loc 10 89 23 is_stmt 1 view -0
 737              		.cfi_startproc
 738              		@ args = 0, pretend = 0, frame = 0
 739              		@ frame_needed = 0, uses_anonymous_args = 0
  90:main.cpp      ****     float out;
 740              		.loc 10 90 5 view .LVU138
  91:main.cpp      ****     float stage1;
 741              		.loc 10 91 5 view .LVU139
  92:main.cpp      **** 
  93:main.cpp      ****     float absx = abs(in);
 742              		.loc 10 93 5 view .LVU140
  89:main.cpp      ****     float out;
 743              		.loc 10 89 23 is_stmt 0 view .LVU141
 744 0000 08B5     		push	{r3, lr}
 745              		.cfi_def_cfa_offset 8
 746              		.cfi_offset 3, -8
 747              		.cfi_offset 14, -4
 748 0002 2DED048B 		vpush.64	{d8, d9}
 749              		.cfi_def_cfa_offset 24
 750              		.cfi_offset 80, -24
 751              		.cfi_offset 81, -20
 752              		.cfi_offset 82, -16
 753              		.cfi_offset 83, -12
  94:main.cpp      ****     float xx = in*in;
 754              		.loc 10 94 11 view .LVU142
 755 0006 60EE008A 		vmul.f32	s17, s0, s0
 756              	.LBB194:
 757              	.LBB195:
 758              		.loc 11 76 31 view .LVU143
 759 000a B0EEC08A 		vabs.f32	s16, s0
 760              	.LBE195:
 761              	.LBE194:
  95:main.cpp      **** 
  96:main.cpp      ****     float num = 6*(2*absx + xx + 1)*log(absx+1) - 2*(xx + 3)*absx - 9*xx;
 762              		.loc 10 96 40 view .LVU144
 763 000e F7EE009A 		vmov.f32	s19, #1.0e+0
 764              		.loc 10 96 27 view .LVU145
 765 0012 F0EE007A 		vmov.f32	s15, #2.0e+0
 766              	.LVL41:
 767              	.LBB197:
 768              	.LBI194:
  75:c:\program files\daisytoolchain\arm-none-eabi\include\c++\10.2.1\bits\std_abs.h ****   { return __builtin_fabsf(__x); }
 769              		.loc 11 75 3 is_stmt 1 view .LVU146
 770              	.LBB196:
 771              		.loc 11 76 5 view .LVU147
 772              		.loc 11 76 5 is_stmt 0 view .LVU148
 773              	.LBE196:
ARM GAS  C:\Users\galla\AppData\Local\Temp\ccVNmTCK.s 			page 33


 774              	.LBE197:
  94:main.cpp      ****     float xx = in*in;
 775              		.loc 10 94 5 is_stmt 1 view .LVU149
 776              		.loc 10 96 5 view .LVU150
 777              		.loc 10 96 27 is_stmt 0 view .LVU151
 778 0016 B0EE689A 		vmov.f32	s18, s17
 779              	.LBB198:
 780              	.LBB199:
 781              		.loc 12 339 26 view .LVU152
 782 001a 38EE290A 		vadd.f32	s0, s16, s19
 783              	.LVL42:
 784              		.loc 12 339 26 view .LVU153
 785              	.LBE199:
 786              	.LBE198:
 787              		.loc 10 96 27 view .LVU154
 788 001e A8EE279A 		vfma.f32	s18, s16, s15
 789              	.LVL43:
 790              	.LBB201:
 791              	.LBI198:
 338:c:\program files\daisytoolchain\arm-none-eabi\include\c++\10.2.1\cmath ****   { return __builtin_logf(__x); }
 792              		.loc 12 338 3 is_stmt 1 view .LVU155
 793              	.LBB200:
 794              		.loc 12 339 5 view .LVU156
 795              		.loc 12 339 26 is_stmt 0 view .LVU157
 796 0022 FFF7FEFF 		bl	logf
 797              	.LVL44:
 798              		.loc 12 339 26 view .LVU158
 799              	.LBE200:
 800              	.LBE201:
 801              		.loc 10 96 57 view .LVU159
 802 0026 F0EE087A 		vmov.f32	s15, #3.0e+0
  97:main.cpp      **** 
  98:main.cpp      ****     stage1 = -1*num/12;
  99:main.cpp      **** 
 100:main.cpp      ****     stage1 *= 40;
 803              		.loc 10 100 12 view .LVU160
 804 002a 9FED357A 		vldr.32	s14, .L60+40
  96:main.cpp      **** 
 805              		.loc 10 96 18 view .LVU161
 806 002e F1EE084A 		vmov.f32	s9, #6.0e+0
  96:main.cpp      **** 
 807              		.loc 10 96 71 view .LVU162
 808 0032 B2EE025A 		vmov.f32	s10, #9.0e+0
  96:main.cpp      **** 
 809              		.loc 10 96 57 view .LVU163
 810 0036 78EEA77A 		vadd.f32	s15, s17, s15
  98:main.cpp      **** 
 811              		.loc 10 98 12 view .LVU164
 812 003a F2EE085A 		vmov.f32	s11, #1.2e+1
  96:main.cpp      **** 
 813              		.loc 10 96 32 view .LVU165
 814 003e 39EE299A 		vadd.f32	s18, s18, s19
  96:main.cpp      **** 
 815              		.loc 10 96 52 view .LVU166
 816 0042 77EEA77A 		vadd.f32	s15, s15, s15
  96:main.cpp      **** 
 817              		.loc 10 96 18 view .LVU167
ARM GAS  C:\Users\galla\AppData\Local\Temp\ccVNmTCK.s 			page 34


 818 0046 29EE249A 		vmul.f32	s18, s18, s9
  96:main.cpp      **** 
 819              		.loc 10 96 49 view .LVU168
 820 004a 28EE678A 		vnmul.f32	s16, s16, s15
 821              	.LVL45:
 101:main.cpp      **** 
 102:main.cpp      ****     if (stage1 >= 0.17) {
 822              		.loc 10 102 5 view .LVU169
 823 004e 9FED226B 		vldr.64	d6, .L60
  96:main.cpp      **** 
 824              		.loc 10 96 49 view .LVU170
 825 0052 A9EE008A 		vfma.f32	s16, s18, s0
  96:main.cpp      **** 
 826              		.loc 10 96 71 view .LVU171
 827 0056 A8EEC58A 		vfms.f32	s16, s17, s10
 828              	.LVL46:
  98:main.cpp      **** 
 829              		.loc 10 98 5 is_stmt 1 view .LVU172
  98:main.cpp      **** 
 830              		.loc 10 98 16 is_stmt 0 view .LVU173
 831 005a B1EE488A 		vneg.f32	s16, s16
 832              	.LVL47:
  98:main.cpp      **** 
 833              		.loc 10 98 12 view .LVU174
 834 005e 88EE250A 		vdiv.f32	s0, s16, s11
 835              	.LVL48:
 100:main.cpp      **** 
 836              		.loc 10 100 5 is_stmt 1 view .LVU175
 837              		.loc 10 102 5 view .LVU176
 100:main.cpp      **** 
 838              		.loc 10 100 12 is_stmt 0 view .LVU177
 839 0062 20EE070A 		vmul.f32	s0, s0, s14
 840              	.LVL49:
 841              		.loc 10 102 9 view .LVU178
 842 0066 B7EEC07A 		vcvt.f64.f32	d7, s0
 843              		.loc 10 102 5 view .LVU179
 844 006a B4EEC67B 		vcmpe.f64	d7, d6
 845 006e F1EE10FA 		vmrs	APSR_nzcv, FPSCR
 846 0072 0CDB     		blt	.L57
 103:main.cpp      ****         out = 0.000002833*stage1*stage1*stage1;
 847              		.loc 10 103 9 is_stmt 1 view .LVU180
 848              		.loc 10 103 26 is_stmt 0 view .LVU181
 849 0074 9FED1A0B 		vldr.64	d0, .L60+8
 850              	.LVL50:
 104:main.cpp      ****     } else if(stage1 <= -0.17) {
 105:main.cpp      ****         out = -1*0.000002833*stage1*stage1*stage1; // germanium diode hard clipping approximation
 106:main.cpp      ****     } else {
 107:main.cpp      ****         out = 0.041666*stage1*stage1*stage1*stage1;
 108:main.cpp      ****     }
 109:main.cpp      ****     return out;
 110:main.cpp      **** }
 851              		.loc 10 110 1 view .LVU182
 852 0078 BDEC048B 		vldm	sp!, {d8-d9}
 853              		.cfi_remember_state
 854              		.cfi_restore 82
 855              		.cfi_restore 83
 856              		.cfi_restore 80
ARM GAS  C:\Users\galla\AppData\Local\Temp\ccVNmTCK.s 			page 35


 857              		.cfi_restore 81
 858              		.cfi_def_cfa_offset 8
 859              	.LVL51:
 103:main.cpp      ****         out = 0.000002833*stage1*stage1*stage1;
 860              		.loc 10 103 26 view .LVU183
 861 007c 27EE000B 		vmul.f64	d0, d7, d0
 103:main.cpp      ****         out = 0.000002833*stage1*stage1*stage1;
 862              		.loc 10 103 33 view .LVU184
 863 0080 20EE070B 		vmul.f64	d0, d0, d7
 103:main.cpp      ****         out = 0.000002833*stage1*stage1*stage1;
 864              		.loc 10 103 40 view .LVU185
 865 0084 20EE070B 		vmul.f64	d0, d0, d7
 103:main.cpp      ****         out = 0.000002833*stage1*stage1*stage1;
 866              		.loc 10 103 13 view .LVU186
 867 0088 B7EEC00B 		vcvt.f32.f64	s0, d0
 868              	.LVL52:
 869              		.loc 10 110 1 view .LVU187
 870 008c 08BD     		pop	{r3, pc}
 871              	.LVL53:
 872              	.L57:
 873              		.cfi_restore_state
 104:main.cpp      ****     } else if(stage1 <= -0.17) {
 874              		.loc 10 104 12 is_stmt 1 view .LVU188
 875 008e 9FED166B 		vldr.64	d6, .L60+16
 876 0092 B4EEC67B 		vcmpe.f64	d7, d6
 877 0096 F1EE10FA 		vmrs	APSR_nzcv, FPSCR
 878 009a 0CD8     		bhi	.L58
 105:main.cpp      ****     } else {
 879              		.loc 10 105 9 view .LVU189
 105:main.cpp      ****     } else {
 880              		.loc 10 105 29 is_stmt 0 view .LVU190
 881 009c 9FED140B 		vldr.64	d0, .L60+24
 882              	.LVL54:
 883              		.loc 10 110 1 view .LVU191
 884 00a0 BDEC048B 		vldm	sp!, {d8-d9}
 885              		.cfi_remember_state
 886              		.cfi_restore 82
 887              		.cfi_restore 83
 888              		.cfi_restore 80
 889              		.cfi_restore 81
 890              		.cfi_def_cfa_offset 8
 891              	.LVL55:
 105:main.cpp      ****     } else {
 892              		.loc 10 105 29 view .LVU192
 893 00a4 27EE000B 		vmul.f64	d0, d7, d0
 105:main.cpp      ****     } else {
 894              		.loc 10 105 36 view .LVU193
 895 00a8 20EE070B 		vmul.f64	d0, d0, d7
 105:main.cpp      ****     } else {
 896              		.loc 10 105 43 view .LVU194
 897 00ac 20EE070B 		vmul.f64	d0, d0, d7
 105:main.cpp      ****     } else {
 898              		.loc 10 105 13 view .LVU195
 899 00b0 B7EEC00B 		vcvt.f32.f64	s0, d0
 900              	.LVL56:
 901              		.loc 10 110 1 view .LVU196
 902 00b4 08BD     		pop	{r3, pc}
ARM GAS  C:\Users\galla\AppData\Local\Temp\ccVNmTCK.s 			page 36


 903              	.LVL57:
 904              	.L58:
 905              		.cfi_restore_state
 107:main.cpp      ****     }
 906              		.loc 10 107 9 is_stmt 1 view .LVU197
 107:main.cpp      ****     }
 907              		.loc 10 107 23 is_stmt 0 view .LVU198
 908 00b6 9FED100B 		vldr.64	d0, .L60+32
 909              	.LVL58:
 910              		.loc 10 110 1 view .LVU199
 911 00ba BDEC048B 		vldm	sp!, {d8-d9}
 912              		.cfi_restore 82
 913              		.cfi_restore 83
 914              		.cfi_restore 80
 915              		.cfi_restore 81
 916              		.cfi_def_cfa_offset 8
 917              	.LVL59:
 107:main.cpp      ****     }
 918              		.loc 10 107 23 view .LVU200
 919 00be 27EE000B 		vmul.f64	d0, d7, d0
 107:main.cpp      ****     }
 920              		.loc 10 107 30 view .LVU201
 921 00c2 20EE070B 		vmul.f64	d0, d0, d7
 107:main.cpp      ****     }
 922              		.loc 10 107 37 view .LVU202
 923 00c6 20EE070B 		vmul.f64	d0, d0, d7
 107:main.cpp      ****     }
 924              		.loc 10 107 44 view .LVU203
 925 00ca 20EE070B 		vmul.f64	d0, d0, d7
 107:main.cpp      ****     }
 926              		.loc 10 107 13 view .LVU204
 927 00ce B7EEC00B 		vcvt.f32.f64	s0, d0
 928              	.LVL60:
 109:main.cpp      **** }
 929              		.loc 10 109 5 is_stmt 1 view .LVU205
 930              		.loc 10 110 1 is_stmt 0 view .LVU206
 931 00d2 08BD     		pop	{r3, pc}
 932              	.L61:
 933 00d4 AFF30080 		.align	3
 934              	.L60:
 935 00d8 C3F5285C 		.word	1546188227
 936 00dc 8FC2C53F 		.word	1069925007
 937 00e0 94B98238 		.word	948091284
 938 00e4 D2C3C73E 		.word	1053279186
 939 00e8 C3F5285C 		.word	1546188227
 940 00ec 8FC2C5BF 		.word	-1077558641
 941 00f0 94B98238 		.word	948091284
 942 00f4 D2C3C7BE 		.word	-1094204462
 943 00f8 63D4B5F6 		.word	-155855773
 944 00fc 3E55A53F 		.word	1067799870
 945 0100 00002042 		.word	1109393408
 946              		.cfi_endproc
 947              	.LFE4740:
 949              		.section	.text._Z2hmf,"ax",%progbits
 950              		.align	1
 951              		.p2align 2,,3
 952              		.global	_Z2hmf
ARM GAS  C:\Users\galla\AppData\Local\Temp\ccVNmTCK.s 			page 37


 953              		.syntax unified
 954              		.thumb
 955              		.thumb_func
 956              		.fpu fpv5-d16
 958              	_Z2hmf:
 959              	.LVL61:
 960              	.LFB4741:
 111:main.cpp      **** 
 112:main.cpp      **** float hm(float in) {
 961              		.loc 10 112 20 is_stmt 1 view -0
 962              		.cfi_startproc
 963              		@ args = 0, pretend = 0, frame = 0
 964              		@ frame_needed = 0, uses_anonymous_args = 0
 965              		@ link register save eliminated.
 113:main.cpp      ****     if (in > 0.17) {
 966              		.loc 10 113 5 view .LVU208
 967 0000 9FED0B7B 		vldr.64	d7, .L66
 968              		.loc 10 113 9 is_stmt 0 view .LVU209
 969 0004 B7EEC06A 		vcvt.f64.f32	d6, s0
 970              		.loc 10 113 5 view .LVU210
 971 0008 B4EEC76B 		vcmpe.f64	d6, d7
 972 000c F1EE10FA 		vmrs	APSR_nzcv, FPSCR
 973 0010 0BDC     		bgt	.L64
 114:main.cpp      ****         return 0.17;
 115:main.cpp      ****     } else if (in < -0.17) {
 974              		.loc 10 115 12 is_stmt 1 view .LVU211
 116:main.cpp      ****         return -0.17;
 117:main.cpp      ****     } else {
 118:main.cpp      ****         return in;
 975              		.loc 10 118 16 is_stmt 0 view .LVU212
 976 0012 DFED0B7A 		vldr.32	s15, .L66+16
 115:main.cpp      ****         return -0.17;
 977              		.loc 10 115 12 view .LVU213
 978 0016 9FED085B 		vldr.64	d5, .L66+8
 979              		.loc 10 118 16 view .LVU214
 980 001a B4EEC56B 		vcmpe.f64	d6, d5
 981 001e F1EE10FA 		vmrs	APSR_nzcv, FPSCR
 982 0022 48BF     		it	mi
 983 0024 B0EE670A 		vmovmi.f32	s0, s15
 984              	.LVL62:
 985              		.loc 10 118 16 view .LVU215
 986 0028 7047     		bx	lr
 987              	.LVL63:
 988              	.L64:
 114:main.cpp      ****         return 0.17;
 989              		.loc 10 114 16 view .LVU216
 990 002a 9FED060A 		vldr.32	s0, .L66+20
 991              	.LVL64:
 119:main.cpp      ****     }
 120:main.cpp      **** }
 992              		.loc 10 120 1 view .LVU217
 993 002e 7047     		bx	lr
 994              	.L67:
 995              		.align	3
 996              	.L66:
 997 0030 C3F5285C 		.word	1546188227
 998 0034 8FC2C53F 		.word	1069925007
ARM GAS  C:\Users\galla\AppData\Local\Temp\ccVNmTCK.s 			page 38


 999 0038 C3F5285C 		.word	1546188227
 1000 003c 8FC2C5BF 		.word	-1077558641
 1001 0040 7B142EBE 		.word	-1104276357
 1002 0044 7B142E3E 		.word	1043207291
 1003              		.cfi_endproc
 1004              	.LFE4741:
 1006              		.section	.text._Z9dist3ADAAf,"ax",%progbits
 1007              		.align	1
 1008              		.p2align 2,,3
 1009              		.global	_Z9dist3ADAAf
 1010              		.syntax unified
 1011              		.thumb
 1012              		.thumb_func
 1013              		.fpu fpv5-d16
 1015              	_Z9dist3ADAAf:
 1016              	.LVL65:
 1017              	.LFB4742:
 121:main.cpp      **** 
 122:main.cpp      **** float dist3ADAA(float in) {
 1018              		.loc 10 122 27 is_stmt 1 view -0
 1019              		.cfi_startproc
 1020              		@ args = 0, pretend = 0, frame = 0
 1021              		@ frame_needed = 0, uses_anonymous_args = 0
 123:main.cpp      ****     float out = 0;
 1022              		.loc 10 123 5 view .LVU219
 124:main.cpp      ****     float sigma = 0.00001;
 1023              		.loc 10 124 5 view .LVU220
 125:main.cpp      ****     float x = in;
 1024              		.loc 10 125 5 view .LVU221
 122:main.cpp      ****     float out = 0;
 1025              		.loc 10 122 27 is_stmt 0 view .LVU222
 1026 0000 2DE9F843 		push	{r3, r4, r5, r6, r7, r8, r9, lr}
 1027              		.cfi_def_cfa_offset 32
 1028              		.cfi_offset 3, -32
 1029              		.cfi_offset 4, -28
 1030              		.cfi_offset 5, -24
 1031              		.cfi_offset 6, -20
 1032              		.cfi_offset 7, -16
 1033              		.cfi_offset 8, -12
 1034              		.cfi_offset 9, -8
 1035              		.cfi_offset 14, -4
 126:main.cpp      **** 
 127:main.cpp      ****     float x_x1 = x-x1;
 1036              		.loc 10 127 19 view .LVU223
 1037 0004 D64C     		ldr	r4, .L177+32
 128:main.cpp      ****     float x1_x2 = x1-x2;
 1038              		.loc 10 128 21 view .LVU224
 1039 0006 D74D     		ldr	r5, .L177+36
 127:main.cpp      ****     float x1_x2 = x1-x2;
 1040              		.loc 10 127 19 view .LVU225
 1041 0008 94ED006A 		vldr.32	s12, [r4]
 129:main.cpp      ****     float x2_x3 = x2-x3;
 1042              		.loc 10 129 21 view .LVU226
 1043 000c D64E     		ldr	r6, .L177+40
 130:main.cpp      ****     float x1_x3 = x1-x3;
 131:main.cpp      ****     float x_x2 = x-x2;
 132:main.cpp      **** 
ARM GAS  C:\Users\galla\AppData\Local\Temp\ccVNmTCK.s 			page 39


 133:main.cpp      **** 
 134:main.cpp      ****     if (effect == 0) {
 1044              		.loc 10 134 16 view .LVU227
 1045 000e D74B     		ldr	r3, .L177+44
 128:main.cpp      ****     float x2_x3 = x2-x3;
 1046              		.loc 10 128 21 view .LVU228
 1047 0010 D5ED005A 		vldr.32	s11, [r5]
 129:main.cpp      ****     float x2_x3 = x2-x3;
 1048              		.loc 10 129 21 view .LVU229
 1049 0014 96ED005A 		vldr.32	s10, [r6]
 135:main.cpp      **** 
 136:main.cpp      ****         if(x_x1 < sigma){
 1050              		.loc 10 136 9 view .LVU230
 1051 0018 9FEDD57A 		vldr.32	s14, .L177+48
 134:main.cpp      **** 
 1052              		.loc 10 134 16 view .LVU231
 1053 001c 1B68     		ldr	r3, [r3]
 122:main.cpp      ****     float out = 0;
 1054              		.loc 10 122 27 view .LVU232
 1055 001e 2DED068B 		vpush.64	{d8, d9, d10}
 1056              		.cfi_def_cfa_offset 56
 1057              		.cfi_offset 80, -56
 1058              		.cfi_offset 81, -52
 1059              		.cfi_offset 82, -48
 1060              		.cfi_offset 83, -44
 1061              		.cfi_offset 84, -40
 1062              		.cfi_offset 85, -36
 127:main.cpp      ****     float x1_x2 = x1-x2;
 1063              		.loc 10 127 11 view .LVU233
 1064 0022 30EE468A 		vsub.f32	s16, s0, s12
 122:main.cpp      ****     float out = 0;
 1065              		.loc 10 122 27 view .LVU234
 1066 0026 F0EE409A 		vmov.f32	s19, s0
 1067              	.LVL66:
 127:main.cpp      ****     float x1_x2 = x1-x2;
 1068              		.loc 10 127 5 is_stmt 1 view .LVU235
 128:main.cpp      ****     float x2_x3 = x2-x3;
 1069              		.loc 10 128 5 view .LVU236
 128:main.cpp      ****     float x2_x3 = x2-x3;
 1070              		.loc 10 128 11 is_stmt 0 view .LVU237
 1071 002a 36EE65AA 		vsub.f32	s20, s12, s11
 1072              	.LVL67:
 129:main.cpp      ****     float x1_x3 = x1-x3;
 1073              		.loc 10 129 5 is_stmt 1 view .LVU238
 129:main.cpp      ****     float x1_x3 = x1-x3;
 1074              		.loc 10 129 11 is_stmt 0 view .LVU239
 1075 002e 75EEC58A 		vsub.f32	s17, s11, s10
 1076              	.LVL68:
 130:main.cpp      ****     float x_x2 = x-x2;
 1077              		.loc 10 130 5 is_stmt 1 view .LVU240
 130:main.cpp      ****     float x_x2 = x-x2;
 1078              		.loc 10 130 11 is_stmt 0 view .LVU241
 1079 0032 36EE459A 		vsub.f32	s18, s12, s10
 1080              	.LVL69:
 131:main.cpp      **** 
 1081              		.loc 10 131 5 is_stmt 1 view .LVU242
 131:main.cpp      **** 
ARM GAS  C:\Users\galla\AppData\Local\Temp\ccVNmTCK.s 			page 40


 1082              		.loc 10 131 11 is_stmt 0 view .LVU243
 1083 0036 70EE65AA 		vsub.f32	s21, s0, s11
 1084              	.LVL70:
 134:main.cpp      **** 
 1085              		.loc 10 134 5 is_stmt 1 view .LVU244
 1086              		.loc 10 136 9 is_stmt 0 view .LVU245
 1087 003a B4EEC78A 		vcmpe.f32	s16, s14
 134:main.cpp      **** 
 1088              		.loc 10 134 5 view .LVU246
 1089 003e A3B9     		cbnz	r3, .L69
 1090              		.loc 10 136 9 is_stmt 1 view .LVU247
 1091 0040 F1EE10FA 		vmrs	APSR_nzcv, FPSCR
 1092 0044 3AD5     		bpl	.L138
 137:main.cpp      ****             return ts( (x + x1) / 2);
 1093              		.loc 10 137 13 view .LVU248
 1094              		.loc 10 137 27 is_stmt 0 view .LVU249
 1095 0046 76EE005A 		vadd.f32	s11, s12, s0
 1096              	.L156:
 138:main.cpp      ****         } else if(x1_x2 < sigma) {
 139:main.cpp      ****             return ts( (x1 + x2) / 2);
 140:main.cpp      ****         } else if(x2_x3 < sigma) {
 141:main.cpp      ****             return ts( (x2 + x3) / 2);
 142:main.cpp      ****         } else if(x1_x3 < sigma) {
 143:main.cpp      ****             return ts( (x1 + x3) / 2);
 144:main.cpp      ****         } else if(x_x2 < sigma) {
 145:main.cpp      ****             return ts( (x + x2) / 2);
 1097              		.loc 10 145 22 view .LVU250
 1098 004a F6EE007A 		vmov.f32	s15, #5.0e-1
 1099              	.LBB202:
 1100              	.LBB203:
  52:main.cpp      **** }
 1101              		.loc 10 52 20 view .LVU251
 1102 004e F7EE006A 		vmov.f32	s13, #1.0e+0
 1103              	.LBE203:
 1104              	.LBE202:
 1105              		.loc 10 145 22 view .LVU252
 1106 0052 65EEA77A 		vmul.f32	s15, s11, s15
 1107              	.LVL71:
 1108              	.LBB207:
 1109              	.LBI202:
  51:main.cpp      ****     return in / (1 + abs(in));
 1110              		.loc 10 51 7 is_stmt 1 view .LVU253
 1111              	.LBB206:
  52:main.cpp      **** }
 1112              		.loc 10 52 5 view .LVU254
 1113              	.LBB204:
 1114              	.LBI204:
  75:c:\program files\daisytoolchain\arm-none-eabi\include\c++\10.2.1\bits\std_abs.h ****   { return __builtin_fabsf(__x); }
 1115              		.loc 11 75 3 view .LVU255
 1116              	.LBB205:
 1117              		.loc 11 76 5 view .LVU256
 1118              		.loc 11 76 31 is_stmt 0 view .LVU257
 1119 0056 B0EEE77A 		vabs.f32	s14, s15
 1120              	.LBE205:
 1121              	.LBE204:
  52:main.cpp      **** }
 1122              		.loc 10 52 20 view .LVU258
ARM GAS  C:\Users\galla\AppData\Local\Temp\ccVNmTCK.s 			page 41


 1123 005a 37EE267A 		vadd.f32	s14, s14, s13
  52:main.cpp      **** }
 1124              		.loc 10 52 29 view .LVU259
 1125 005e 87EE870A 		vdiv.f32	s0, s15, s14
 1126              	.LVL72:
 1127              	.L68:
  52:main.cpp      **** }
 1128              		.loc 10 52 29 view .LVU260
 1129              	.LBE206:
 1130              	.LBE207:
 146:main.cpp      ****         }
 147:main.cpp      **** 
 148:main.cpp      ****         f0 = ts3AD(x);
 149:main.cpp      ****         f1 = ts3AD(x1);
 150:main.cpp      ****         f2 = ts3AD(x2);
 151:main.cpp      ****         f3 = ts3AD(x3);
 152:main.cpp      ****     } else if(effect == 1) {
 153:main.cpp      **** 
 154:main.cpp      ****         if(x_x1 < sigma){
 155:main.cpp      ****             return bm( (x + x1) / 2);
 156:main.cpp      ****         } else if(x1_x2 < sigma) {
 157:main.cpp      ****             return bm( (x1 + x2) / 2);
 158:main.cpp      ****         } else if(x2_x3 < sigma) {
 159:main.cpp      ****             return bm( (x2 + x3) / 2);
 160:main.cpp      ****         } else if(x1_x3 < sigma) {
 161:main.cpp      ****             return bm( (x1 + x3) / 2);
 162:main.cpp      ****         } else if(x_x2 < sigma) {
 163:main.cpp      ****             return bm( (x + x2) / 2);
 164:main.cpp      ****         }
 165:main.cpp      **** 
 166:main.cpp      ****         f0 = bm3AD(x);
 167:main.cpp      ****         f1 = bm3AD(x1);
 168:main.cpp      ****         f2 = bm3AD(x2);
 169:main.cpp      ****         f3 = bm3AD(x3);
 170:main.cpp      ****     } else {
 171:main.cpp      ****         if(x_x1 < sigma){
 172:main.cpp      ****             return hm( (x + x1) / 2);
 173:main.cpp      ****         } else if(x1_x2 < sigma) {
 174:main.cpp      ****             return hm( (x1 + x2) / 2);
 175:main.cpp      ****         } else if(x2_x3 < sigma) {
 176:main.cpp      ****             return hm( (x2 + x3) / 2);
 177:main.cpp      ****         } else if(x1_x3 < sigma) {
 178:main.cpp      ****             return hm( (x1 + x3) / 2);
 179:main.cpp      ****         } else if(x_x2 < sigma) {
 180:main.cpp      ****             return hm( (x + x2) / 2);
 181:main.cpp      ****         }
 182:main.cpp      **** 
 183:main.cpp      ****         f0 = HM3AD(x);
 184:main.cpp      ****         f1 = HM3AD(x1);
 185:main.cpp      ****         f2 = HM3AD(x2);
 186:main.cpp      ****         f3 = HM3AD(x3);
 187:main.cpp      ****     }
 188:main.cpp      ****     
 189:main.cpp      ****     out = 1/x1_x2 * ( 2/x_x2*((f0-f1)/(x_x1) - (f1-f2)/(x1_x2)) - 2/x1_x3*((f1-f2)/(x1_x2) - (f2-f3
 190:main.cpp      **** 
 191:main.cpp      ****     x3 = x2;
 192:main.cpp      ****     x2 = x1;
ARM GAS  C:\Users\galla\AppData\Local\Temp\ccVNmTCK.s 			page 42


 193:main.cpp      ****     x1 = x;
 194:main.cpp      **** 
 195:main.cpp      ****     return out;
 196:main.cpp      **** 
 197:main.cpp      **** }
 1131              		.loc 10 197 1 view .LVU261
 1132 0062 BDEC068B 		vldm	sp!, {d8-d10}
 1133              		.cfi_remember_state
 1134              		.cfi_restore 84
 1135              		.cfi_restore 85
 1136              		.cfi_restore 82
 1137              		.cfi_restore 83
 1138              		.cfi_restore 80
 1139              		.cfi_restore 81
 1140              		.cfi_def_cfa_offset 32
 1141              	.LVL73:
 1142              		.loc 10 197 1 view .LVU262
 1143 0066 BDE8F883 		pop	{r3, r4, r5, r6, r7, r8, r9, pc}
 1144              	.LVL74:
 1145              	.L69:
 1146              		.cfi_restore_state
 152:main.cpp      **** 
 1147              		.loc 10 152 12 is_stmt 1 view .LVU263
 1148 006a 012B     		cmp	r3, #1
 1149 006c 40D0     		beq	.L171
 171:main.cpp      ****             return hm( (x + x1) / 2);
 1150              		.loc 10 171 9 view .LVU264
 1151 006e F1EE10FA 		vmrs	APSR_nzcv, FPSCR
 1152 0072 5ED4     		bmi	.L172
 173:main.cpp      ****             return hm( (x1 + x2) / 2);
 1153              		.loc 10 173 16 view .LVU265
 1154 0074 B4EEC7AA 		vcmpe.f32	s20, s14
 1155 0078 F1EE10FA 		vmrs	APSR_nzcv, FPSCR
 1156 007c 40F19E80 		bpl	.L149
 174:main.cpp      ****         } else if(x2_x3 < sigma) {
 1157              		.loc 10 174 13 view .LVU266
 174:main.cpp      ****         } else if(x2_x3 < sigma) {
 1158              		.loc 10 174 28 is_stmt 0 view .LVU267
 1159 0080 36EE256A 		vadd.f32	s12, s12, s11
 174:main.cpp      ****         } else if(x2_x3 < sigma) {
 1160              		.loc 10 174 22 view .LVU268
 1161 0084 F6EE005A 		vmov.f32	s11, #5.0e-1
 1162              	.L170:
 180:main.cpp      ****         }
 1163              		.loc 10 180 22 view .LVU269
 1164 0088 25EE860A 		vmul.f32	s0, s11, s12
 1165              	.LVL75:
 1166              	.LBB208:
 1167              	.LBI208:
 112:main.cpp      ****     if (in > 0.17) {
 1168              		.loc 10 112 7 is_stmt 1 view .LVU270
 1169              	.LBB209:
 113:main.cpp      ****         return 0.17;
 1170              		.loc 10 113 5 view .LVU271
 1171 008c 9FEDAC4B 		vldr.64	d4, .L177
 113:main.cpp      ****         return 0.17;
 1172              		.loc 10 113 9 is_stmt 0 view .LVU272
ARM GAS  C:\Users\galla\AppData\Local\Temp\ccVNmTCK.s 			page 43


 1173 0090 B7EEC07A 		vcvt.f64.f32	d7, s0
 113:main.cpp      ****         return 0.17;
 1174              		.loc 10 113 5 view .LVU273
 1175 0094 B4EEC47B 		vcmpe.f64	d7, d4
 1176 0098 F1EE10FA 		vmrs	APSR_nzcv, FPSCR
 1177 009c 79DC     		bgt	.L121
 115:main.cpp      ****         return -0.17;
 1178              		.loc 10 115 12 is_stmt 1 view .LVU274
 1179              	.LBE209:
 1180              	.LBE208:
 1181              	.LBB211:
 1182              	.LBB212:
 116:main.cpp      ****     } else {
 1183              		.loc 10 116 17 is_stmt 0 view .LVU275
 1184 009e DFEDB56A 		vldr.32	s13, .L177+52
 1185              	.LBE212:
 1186              	.LBE211:
 1187              	.LBB218:
 1188              	.LBB210:
 115:main.cpp      ****         return -0.17;
 1189              		.loc 10 115 12 view .LVU276
 1190 00a2 9FEDA95B 		vldr.64	d5, .L177+8
 1191              	.LBE210:
 1192              	.LBE218:
 1193              		.loc 10 197 1 view .LVU277
 1194 00a6 BDEC068B 		vldm	sp!, {d8-d10}
 1195              		.cfi_remember_state
 1196              		.cfi_restore 84
 1197              		.cfi_restore 85
 1198              		.cfi_restore 82
 1199              		.cfi_restore 83
 1200              		.cfi_restore 80
 1201              		.cfi_restore 81
 1202              		.cfi_def_cfa_offset 32
 1203              	.LVL76:
 1204              	.LBB219:
 1205              	.LBB213:
 116:main.cpp      ****     } else {
 1206              		.loc 10 116 17 view .LVU278
 1207 00aa B4EE457B 		vcmp.f64	d7, d5
 1208 00ae F1EE10FA 		vmrs	APSR_nzcv, FPSCR
 1209 00b2 48BF     		it	mi
 1210 00b4 B0EE660A 		vmovmi.f32	s0, s13
 1211              	.LVL77:
 116:main.cpp      ****     } else {
 1212              		.loc 10 116 17 view .LVU279
 1213              	.LBE213:
 1214              	.LBE219:
 1215              		.loc 10 197 1 view .LVU280
 1216 00b8 BDE8F883 		pop	{r3, r4, r5, r6, r7, r8, r9, pc}
 1217              	.LVL78:
 1218              	.L138:
 1219              		.cfi_restore_state
 138:main.cpp      ****             return ts( (x1 + x2) / 2);
 1220              		.loc 10 138 16 is_stmt 1 view .LVU281
 1221 00bc B4EEC7AA 		vcmpe.f32	s20, s14
 1222 00c0 F1EE10FA 		vmrs	APSR_nzcv, FPSCR
ARM GAS  C:\Users\galla\AppData\Local\Temp\ccVNmTCK.s 			page 44


 1223 00c4 53D4     		bmi	.L173
 140:main.cpp      ****             return ts( (x2 + x3) / 2);
 1224              		.loc 10 140 16 view .LVU282
 1225 00c6 F4EEC78A 		vcmpe.f32	s17, s14
 1226 00ca F1EE10FA 		vmrs	APSR_nzcv, FPSCR
 1227 00ce 40F18480 		bpl	.L140
 141:main.cpp      ****         } else if(x1_x3 < sigma) {
 1228              		.loc 10 141 13 view .LVU283
 141:main.cpp      ****         } else if(x1_x3 < sigma) {
 1229              		.loc 10 141 22 is_stmt 0 view .LVU284
 1230 00d2 F6EE007A 		vmov.f32	s15, #5.0e-1
 141:main.cpp      ****         } else if(x1_x3 < sigma) {
 1231              		.loc 10 141 28 view .LVU285
 1232 00d6 75EE855A 		vadd.f32	s11, s11, s10
 1233              	.LBB220:
 1234              	.LBB221:
  52:main.cpp      **** }
 1235              		.loc 10 52 20 view .LVU286
 1236 00da B7EE007A 		vmov.f32	s14, #1.0e+0
 1237              	.LBE221:
 1238              	.LBE220:
 141:main.cpp      ****         } else if(x1_x3 < sigma) {
 1239              		.loc 10 141 22 view .LVU287
 1240 00de 65EEA75A 		vmul.f32	s11, s11, s15
 1241              	.LVL79:
 1242              	.LBB225:
 1243              	.LBI220:
  51:main.cpp      ****     return in / (1 + abs(in));
 1244              		.loc 10 51 7 is_stmt 1 view .LVU288
 1245              	.LBB224:
  52:main.cpp      **** }
 1246              		.loc 10 52 5 view .LVU289
 1247              	.LBB222:
 1248              	.LBI222:
  75:c:\program files\daisytoolchain\arm-none-eabi\include\c++\10.2.1\bits\std_abs.h ****   { return __builtin_fabsf(__x); }
 1249              		.loc 11 75 3 view .LVU290
 1250              	.LBB223:
 1251              		.loc 11 76 5 view .LVU291
 1252              		.loc 11 76 31 is_stmt 0 view .LVU292
 1253 00e2 F0EEE57A 		vabs.f32	s15, s11
 1254              	.LBE223:
 1255              	.LBE222:
  52:main.cpp      **** }
 1256              		.loc 10 52 20 view .LVU293
 1257 00e6 77EE877A 		vadd.f32	s15, s15, s14
  52:main.cpp      **** }
 1258              		.loc 10 52 29 view .LVU294
 1259 00ea 85EEA70A 		vdiv.f32	s0, s11, s15
 1260              	.LVL80:
  52:main.cpp      **** }
 1261              		.loc 10 52 29 view .LVU295
 1262              	.LBE224:
 1263              	.LBE225:
 141:main.cpp      ****         } else if(x1_x3 < sigma) {
 1264              		.loc 10 141 37 view .LVU296
 1265 00ee B8E7     		b	.L68
 1266              	.LVL81:
ARM GAS  C:\Users\galla\AppData\Local\Temp\ccVNmTCK.s 			page 45


 1267              	.L171:
 154:main.cpp      ****             return bm( (x + x1) / 2);
 1268              		.loc 10 154 9 is_stmt 1 view .LVU297
 1269 00f0 F1EE10FA 		vmrs	APSR_nzcv, FPSCR
 1270 00f4 53D5     		bpl	.L143
 155:main.cpp      ****         } else if(x1_x2 < sigma) {
 1271              		.loc 10 155 13 view .LVU298
 155:main.cpp      ****         } else if(x1_x2 < sigma) {
 1272              		.loc 10 155 27 is_stmt 0 view .LVU299
 1273 00f6 36EE006A 		vadd.f32	s12, s12, s0
 155:main.cpp      ****         } else if(x1_x2 < sigma) {
 1274              		.loc 10 155 22 view .LVU300
 1275 00fa F6EE005A 		vmov.f32	s11, #5.0e-1
 1276              	.L164:
 163:main.cpp      ****         }
 1277              		.loc 10 163 22 view .LVU301
 1278 00fe 25EE860A 		vmul.f32	s0, s11, s12
 1279              	.LVL82:
 1280              	.LBB226:
 1281              	.LBI226:
  79:main.cpp      ****     if (in > 0.4) {
 1282              		.loc 10 79 7 is_stmt 1 view .LVU302
 1283              	.LBB227:
  80:main.cpp      ****         return 0.4;
 1284              		.loc 10 80 5 view .LVU303
 1285 0102 9FED934B 		vldr.64	d4, .L177+16
  80:main.cpp      ****         return 0.4;
 1286              		.loc 10 80 9 is_stmt 0 view .LVU304
 1287 0106 B7EEC07A 		vcvt.f64.f32	d7, s0
  80:main.cpp      ****         return 0.4;
 1288              		.loc 10 80 5 view .LVU305
 1289 010a B4EEC47B 		vcmpe.f64	d7, d4
 1290 010e F1EE10FA 		vmrs	APSR_nzcv, FPSCR
 1291 0112 6FDC     		bgt	.L111
  82:main.cpp      ****         return -0.4;
 1292              		.loc 10 82 12 is_stmt 1 view .LVU306
 1293              	.LBE227:
 1294              	.LBE226:
 1295              	.LBB229:
 1296              	.LBB230:
  83:main.cpp      ****     } else {
 1297              		.loc 10 83 17 is_stmt 0 view .LVU307
 1298 0114 DFED986A 		vldr.32	s13, .L177+56
 1299              	.LBE230:
 1300              	.LBE229:
 1301              	.LBB233:
 1302              	.LBB228:
  82:main.cpp      ****         return -0.4;
 1303              		.loc 10 82 12 view .LVU308
 1304 0118 9FED8F5B 		vldr.64	d5, .L177+24
 1305              	.LBE228:
 1306              	.LBE233:
 1307              		.loc 10 197 1 view .LVU309
 1308 011c BDEC068B 		vldm	sp!, {d8-d10}
 1309              		.cfi_remember_state
 1310              		.cfi_restore 84
 1311              		.cfi_restore 85
ARM GAS  C:\Users\galla\AppData\Local\Temp\ccVNmTCK.s 			page 46


 1312              		.cfi_restore 82
 1313              		.cfi_restore 83
 1314              		.cfi_restore 80
 1315              		.cfi_restore 81
 1316              		.cfi_def_cfa_offset 32
 1317              	.LVL83:
 1318              	.LBB234:
 1319              	.LBB231:
  83:main.cpp      ****     } else {
 1320              		.loc 10 83 17 view .LVU310
 1321 0120 B4EE457B 		vcmp.f64	d7, d5
 1322 0124 F1EE10FA 		vmrs	APSR_nzcv, FPSCR
 1323 0128 48BF     		it	mi
 1324 012a B0EE660A 		vmovmi.f32	s0, s13
 1325              	.LVL84:
  83:main.cpp      ****     } else {
 1326              		.loc 10 83 17 view .LVU311
 1327              	.LBE231:
 1328              	.LBE234:
 1329              		.loc 10 197 1 view .LVU312
 1330 012e BDE8F883 		pop	{r3, r4, r5, r6, r7, r8, r9, pc}
 1331              	.LVL85:
 1332              	.L172:
 1333              		.cfi_restore_state
 172:main.cpp      ****         } else if(x1_x2 < sigma) {
 1334              		.loc 10 172 13 is_stmt 1 view .LVU313
 172:main.cpp      ****         } else if(x1_x2 < sigma) {
 1335              		.loc 10 172 27 is_stmt 0 view .LVU314
 1336 0132 36EE006A 		vadd.f32	s12, s12, s0
 172:main.cpp      ****         } else if(x1_x2 < sigma) {
 1337              		.loc 10 172 22 view .LVU315
 1338 0136 F6EE005A 		vmov.f32	s11, #5.0e-1
 1339              	.LBB235:
 1340              	.LBB214:
 113:main.cpp      ****         return 0.17;
 1341              		.loc 10 113 5 view .LVU316
 1342 013a 9FED814B 		vldr.64	d4, .L177
 1343              	.LBE214:
 1344              	.LBE235:
 172:main.cpp      ****         } else if(x1_x2 < sigma) {
 1345              		.loc 10 172 22 view .LVU317
 1346 013e 26EE250A 		vmul.f32	s0, s12, s11
 1347              	.LVL86:
 1348              	.LBB236:
 1349              	.LBI211:
 112:main.cpp      ****     if (in > 0.17) {
 1350              		.loc 10 112 7 is_stmt 1 view .LVU318
 1351              	.LBB215:
 113:main.cpp      ****         return 0.17;
 1352              		.loc 10 113 5 view .LVU319
 113:main.cpp      ****         return 0.17;
 1353              		.loc 10 113 9 is_stmt 0 view .LVU320
 1354 0142 B7EEC07A 		vcvt.f64.f32	d7, s0
 113:main.cpp      ****         return 0.17;
 1355              		.loc 10 113 5 view .LVU321
 1356 0146 B4EEC47B 		vcmpe.f64	d7, d4
 1357 014a F1EE10FA 		vmrs	APSR_nzcv, FPSCR
ARM GAS  C:\Users\galla\AppData\Local\Temp\ccVNmTCK.s 			page 47


 1358 014e 20DC     		bgt	.L121
 115:main.cpp      ****         return -0.17;
 1359              		.loc 10 115 12 is_stmt 1 view .LVU322
 116:main.cpp      ****     } else {
 1360              		.loc 10 116 17 is_stmt 0 view .LVU323
 1361 0150 DFED886A 		vldr.32	s13, .L177+52
 115:main.cpp      ****         return -0.17;
 1362              		.loc 10 115 12 view .LVU324
 1363 0154 9FED7C4B 		vldr.64	d4, .L177+8
 1364              	.LBE215:
 1365              	.LBE236:
 1366              		.loc 10 197 1 view .LVU325
 1367 0158 BDEC068B 		vldm	sp!, {d8-d10}
 1368              		.cfi_remember_state
 1369              		.cfi_restore 84
 1370              		.cfi_restore 85
 1371              		.cfi_restore 82
 1372              		.cfi_restore 83
 1373              		.cfi_restore 80
 1374              		.cfi_restore 81
 1375              		.cfi_def_cfa_offset 32
 1376              	.LVL87:
 1377              	.LBB237:
 1378              	.LBB216:
 116:main.cpp      ****     } else {
 1379              		.loc 10 116 17 view .LVU326
 1380 015c B4EE447B 		vcmp.f64	d7, d4
 1381 0160 F1EE10FA 		vmrs	APSR_nzcv, FPSCR
 1382 0164 48BF     		it	mi
 1383 0166 B0EE660A 		vmovmi.f32	s0, s13
 1384              	.LVL88:
 116:main.cpp      ****     } else {
 1385              		.loc 10 116 17 view .LVU327
 1386              	.LBE216:
 1387              	.LBE237:
 1388              		.loc 10 197 1 view .LVU328
 1389 016a BDE8F883 		pop	{r3, r4, r5, r6, r7, r8, r9, pc}
 1390              	.LVL89:
 1391              	.L173:
 1392              		.cfi_restore_state
 139:main.cpp      ****         } else if(x2_x3 < sigma) {
 1393              		.loc 10 139 13 is_stmt 1 view .LVU329
 139:main.cpp      ****         } else if(x2_x3 < sigma) {
 1394              		.loc 10 139 28 is_stmt 0 view .LVU330
 1395 016e 76EE255A 		vadd.f32	s11, s12, s11
 139:main.cpp      ****         } else if(x2_x3 < sigma) {
 1396              		.loc 10 139 22 view .LVU331
 1397 0172 B6EE006A 		vmov.f32	s12, #5.0e-1
 1398              	.LBB238:
 1399              	.LBB239:
  52:main.cpp      **** }
 1400              		.loc 10 52 20 view .LVU332
 1401 0176 B7EE007A 		vmov.f32	s14, #1.0e+0
 1402              	.LBE239:
 1403              	.LBE238:
 139:main.cpp      ****         } else if(x2_x3 < sigma) {
 1404              		.loc 10 139 22 view .LVU333
ARM GAS  C:\Users\galla\AppData\Local\Temp\ccVNmTCK.s 			page 48


 1405 017a 65EE865A 		vmul.f32	s11, s11, s12
 1406              	.LVL90:
 1407              	.LBB246:
 1408              	.LBI238:
  51:main.cpp      ****     return in / (1 + abs(in));
 1409              		.loc 10 51 7 is_stmt 1 view .LVU334
 1410              	.LBB244:
  52:main.cpp      **** }
 1411              		.loc 10 52 5 view .LVU335
 1412              	.LBB240:
 1413              	.LBI240:
  75:c:\program files\daisytoolchain\arm-none-eabi\include\c++\10.2.1\bits\std_abs.h ****   { return __builtin_fabsf(__x); }
 1414              		.loc 11 75 3 view .LVU336
 1415              	.LBB241:
 1416              		.loc 11 76 5 view .LVU337
 1417              		.loc 11 76 5 is_stmt 0 view .LVU338
 1418              	.LBE241:
 1419              	.LBE240:
 1420              	.LBE244:
 1421              	.LBE246:
 1422              		.loc 10 197 1 view .LVU339
 1423 017e BDEC068B 		vldm	sp!, {d8-d10}
 1424              		.cfi_remember_state
 1425              		.cfi_restore 84
 1426              		.cfi_restore 85
 1427              		.cfi_restore 82
 1428              		.cfi_restore 83
 1429              		.cfi_restore 80
 1430              		.cfi_restore 81
 1431              		.cfi_def_cfa_offset 32
 1432              	.LVL91:
 1433              	.LBB247:
 1434              	.LBB245:
 1435              	.LBB243:
 1436              	.LBB242:
 1437              		.loc 11 76 31 view .LVU340
 1438 0182 F0EEE57A 		vabs.f32	s15, s11
 1439              	.LBE242:
 1440              	.LBE243:
  52:main.cpp      **** }
 1441              		.loc 10 52 20 view .LVU341
 1442 0186 77EE877A 		vadd.f32	s15, s15, s14
  52:main.cpp      **** }
 1443              		.loc 10 52 29 view .LVU342
 1444 018a 85EEA70A 		vdiv.f32	s0, s11, s15
 1445              	.LVL92:
  52:main.cpp      **** }
 1446              		.loc 10 52 29 view .LVU343
 1447              	.LBE245:
 1448              	.LBE247:
 1449              		.loc 10 197 1 view .LVU344
 1450 018e BDE8F883 		pop	{r3, r4, r5, r6, r7, r8, r9, pc}
 1451              	.LVL93:
 1452              	.L121:
 1453              		.cfi_restore_state
 1454              		.loc 10 197 1 view .LVU345
 1455 0192 BDEC068B 		vldm	sp!, {d8-d10}
ARM GAS  C:\Users\galla\AppData\Local\Temp\ccVNmTCK.s 			page 49


 1456              		.cfi_remember_state
 1457              		.cfi_restore 84
 1458              		.cfi_restore 85
 1459              		.cfi_restore 82
 1460              		.cfi_restore 83
 1461              		.cfi_restore 80
 1462              		.cfi_restore 81
 1463              		.cfi_def_cfa_offset 32
 1464              	.LVL94:
 1465              	.LBB248:
 1466              	.LBB217:
 114:main.cpp      ****     } else if (in < -0.17) {
 1467              		.loc 10 114 16 view .LVU346
 1468 0196 9FED790A 		vldr.32	s0, .L177+60
 1469              	.LBE217:
 1470              	.LBE248:
 1471              		.loc 10 197 1 view .LVU347
 1472 019a BDE8F883 		pop	{r3, r4, r5, r6, r7, r8, r9, pc}
 1473              	.LVL95:
 1474              	.L143:
 1475              		.cfi_restore_state
 156:main.cpp      ****             return bm( (x1 + x2) / 2);
 1476              		.loc 10 156 16 is_stmt 1 view .LVU348
 1477 019e B4EEC7AA 		vcmpe.f32	s20, s14
 1478 01a2 F1EE10FA 		vmrs	APSR_nzcv, FPSCR
 1479 01a6 28D4     		bmi	.L174
 158:main.cpp      ****             return bm( (x2 + x3) / 2);
 1480              		.loc 10 158 16 view .LVU349
 1481 01a8 F4EEC78A 		vcmpe.f32	s17, s14
 1482 01ac F1EE10FA 		vmrs	APSR_nzcv, FPSCR
 1483 01b0 3AD5     		bpl	.L145
 159:main.cpp      ****         } else if(x1_x3 < sigma) {
 1484              		.loc 10 159 13 view .LVU350
 159:main.cpp      ****         } else if(x1_x3 < sigma) {
 1485              		.loc 10 159 28 is_stmt 0 view .LVU351
 1486 01b2 75EE855A 		vadd.f32	s11, s11, s10
 1487              	.L161:
 163:main.cpp      ****         }
 1488              		.loc 10 163 22 view .LVU352
 1489 01b6 B6EE006A 		vmov.f32	s12, #5.0e-1
 1490 01ba A0E7     		b	.L164
 1491              	.L149:
 175:main.cpp      ****             return hm( (x2 + x3) / 2);
 1492              		.loc 10 175 16 is_stmt 1 view .LVU353
 1493 01bc F4EEC78A 		vcmpe.f32	s17, s14
 1494 01c0 F1EE10FA 		vmrs	APSR_nzcv, FPSCR
 1495 01c4 1ED4     		bmi	.L175
 177:main.cpp      ****             return hm( (x1 + x3) / 2);
 1496              		.loc 10 177 16 view .LVU354
 1497 01c6 B4EEC79A 		vcmpe.f32	s18, s14
 1498 01ca F1EE10FA 		vmrs	APSR_nzcv, FPSCR
 1499 01ce 33D5     		bpl	.L151
 178:main.cpp      ****         } else if(x_x2 < sigma) {
 1500              		.loc 10 178 13 view .LVU355
 178:main.cpp      ****         } else if(x_x2 < sigma) {
 1501              		.loc 10 178 28 is_stmt 0 view .LVU356
 1502 01d0 76EE055A 		vadd.f32	s11, s12, s10
ARM GAS  C:\Users\galla\AppData\Local\Temp\ccVNmTCK.s 			page 50


 1503              	.L167:
 180:main.cpp      ****         }
 1504              		.loc 10 180 22 view .LVU357
 1505 01d4 B6EE006A 		vmov.f32	s12, #5.0e-1
 1506 01d8 56E7     		b	.L170
 1507              	.L140:
 142:main.cpp      ****             return ts( (x1 + x3) / 2);
 1508              		.loc 10 142 16 is_stmt 1 view .LVU358
 1509 01da B4EEC79A 		vcmpe.f32	s18, s14
 1510 01de F1EE10FA 		vmrs	APSR_nzcv, FPSCR
 1511 01e2 12D4     		bmi	.L176
 144:main.cpp      ****             return ts( (x + x2) / 2);
 1512              		.loc 10 144 16 view .LVU359
 1513 01e4 F4EEC7AA 		vcmpe.f32	s21, s14
 1514 01e8 F1EE10FA 		vmrs	APSR_nzcv, FPSCR
 1515 01ec 35D5     		bpl	.L142
 145:main.cpp      ****         }
 1516              		.loc 10 145 13 view .LVU360
 145:main.cpp      ****         }
 1517              		.loc 10 145 27 is_stmt 0 view .LVU361
 1518 01ee 75EE805A 		vadd.f32	s11, s11, s0
 1519 01f2 2AE7     		b	.L156
 1520              	.LVL96:
 1521              	.L111:
 1522              	.LBB249:
 1523              	.LBB232:
  81:main.cpp      ****     } else if (in < -0.4) {
 1524              		.loc 10 81 16 view .LVU362
 1525 01f4 9FED620A 		vldr.32	s0, .L177+64
 1526              	.LVL97:
  81:main.cpp      ****     } else if (in < -0.4) {
 1527              		.loc 10 81 16 view .LVU363
 1528 01f8 33E7     		b	.L68
 1529              	.LVL98:
 1530              	.L174:
  81:main.cpp      ****     } else if (in < -0.4) {
 1531              		.loc 10 81 16 view .LVU364
 1532              	.LBE232:
 1533              	.LBE249:
 157:main.cpp      ****         } else if(x2_x3 < sigma) {
 1534              		.loc 10 157 13 is_stmt 1 view .LVU365
 157:main.cpp      ****         } else if(x2_x3 < sigma) {
 1535              		.loc 10 157 28 is_stmt 0 view .LVU366
 1536 01fa 36EE256A 		vadd.f32	s12, s12, s11
 157:main.cpp      ****         } else if(x2_x3 < sigma) {
 1537              		.loc 10 157 22 view .LVU367
 1538 01fe F6EE005A 		vmov.f32	s11, #5.0e-1
 1539 0202 7CE7     		b	.L164
 1540              	.L175:
 176:main.cpp      ****         } else if(x1_x3 < sigma) {
 1541              		.loc 10 176 13 is_stmt 1 view .LVU368
 176:main.cpp      ****         } else if(x1_x3 < sigma) {
 1542              		.loc 10 176 28 is_stmt 0 view .LVU369
 1543 0204 75EE855A 		vadd.f32	s11, s11, s10
 1544 0208 E4E7     		b	.L167
 1545              	.L176:
 143:main.cpp      ****         } else if(x_x2 < sigma) {
ARM GAS  C:\Users\galla\AppData\Local\Temp\ccVNmTCK.s 			page 51


 1546              		.loc 10 143 13 is_stmt 1 view .LVU370
 143:main.cpp      ****         } else if(x_x2 < sigma) {
 1547              		.loc 10 143 28 is_stmt 0 view .LVU371
 1548 020a 76EE055A 		vadd.f32	s11, s12, s10
 143:main.cpp      ****         } else if(x_x2 < sigma) {
 1549              		.loc 10 143 22 view .LVU372
 1550 020e B6EE005A 		vmov.f32	s10, #5.0e-1
 1551              	.LBB250:
 1552              	.LBB251:
  52:main.cpp      **** }
 1553              		.loc 10 52 20 view .LVU373
 1554 0212 B7EE007A 		vmov.f32	s14, #1.0e+0
 1555              	.LBE251:
 1556              	.LBE250:
 143:main.cpp      ****         } else if(x_x2 < sigma) {
 1557              		.loc 10 143 22 view .LVU374
 1558 0216 25EE855A 		vmul.f32	s10, s11, s10
 1559              	.LVL99:
 1560              	.LBB255:
 1561              	.LBI250:
  51:main.cpp      ****     return in / (1 + abs(in));
 1562              		.loc 10 51 7 is_stmt 1 view .LVU375
 1563              	.LBB254:
  52:main.cpp      **** }
 1564              		.loc 10 52 5 view .LVU376
 1565              	.LBB252:
 1566              	.LBI252:
  75:c:\program files\daisytoolchain\arm-none-eabi\include\c++\10.2.1\bits\std_abs.h ****   { return __builtin_fabsf(__x); }
 1567              		.loc 11 75 3 view .LVU377
 1568              	.LBB253:
 1569              		.loc 11 76 5 view .LVU378
 1570              		.loc 11 76 31 is_stmt 0 view .LVU379
 1571 021a F0EEC57A 		vabs.f32	s15, s10
 1572              	.LBE253:
 1573              	.LBE252:
  52:main.cpp      **** }
 1574              		.loc 10 52 20 view .LVU380
 1575 021e 77EE877A 		vadd.f32	s15, s15, s14
  52:main.cpp      **** }
 1576              		.loc 10 52 29 view .LVU381
 1577 0222 85EE270A 		vdiv.f32	s0, s10, s15
 1578              	.LVL100:
  52:main.cpp      **** }
 1579              		.loc 10 52 29 view .LVU382
 1580              	.LBE254:
 1581              	.LBE255:
 143:main.cpp      ****         } else if(x_x2 < sigma) {
 1582              		.loc 10 143 37 view .LVU383
 1583 0226 1CE7     		b	.L68
 1584              	.LVL101:
 1585              	.L145:
 160:main.cpp      ****             return bm( (x1 + x3) / 2);
 1586              		.loc 10 160 16 is_stmt 1 view .LVU384
 1587 0228 B4EEC79A 		vcmpe.f32	s18, s14
 1588 022c F1EE10FA 		vmrs	APSR_nzcv, FPSCR
 1589 0230 0AD5     		bpl	.L146
 161:main.cpp      ****         } else if(x_x2 < sigma) {
ARM GAS  C:\Users\galla\AppData\Local\Temp\ccVNmTCK.s 			page 52


 1590              		.loc 10 161 13 view .LVU385
 161:main.cpp      ****         } else if(x_x2 < sigma) {
 1591              		.loc 10 161 28 is_stmt 0 view .LVU386
 1592 0232 76EE055A 		vadd.f32	s11, s12, s10
 1593 0236 BEE7     		b	.L161
 1594              	.L151:
 179:main.cpp      ****             return hm( (x + x2) / 2);
 1595              		.loc 10 179 16 is_stmt 1 view .LVU387
 1596 0238 F4EEC7AA 		vcmpe.f32	s21, s14
 1597 023c F1EE10FA 		vmrs	APSR_nzcv, FPSCR
 1598 0240 5ED5     		bpl	.L152
 180:main.cpp      ****         }
 1599              		.loc 10 180 13 view .LVU388
 180:main.cpp      ****         }
 1600              		.loc 10 180 27 is_stmt 0 view .LVU389
 1601 0242 75EE805A 		vadd.f32	s11, s11, s0
 1602 0246 C5E7     		b	.L167
 1603              	.L146:
 162:main.cpp      ****             return bm( (x + x2) / 2);
 1604              		.loc 10 162 16 is_stmt 1 view .LVU390
 1605 0248 F4EEC7AA 		vcmpe.f32	s21, s14
 1606 024c F1EE10FA 		vmrs	APSR_nzcv, FPSCR
 1607 0250 40F1A080 		bpl	.L147
 163:main.cpp      ****         }
 1608              		.loc 10 163 13 view .LVU391
 163:main.cpp      ****         }
 1609              		.loc 10 163 27 is_stmt 0 view .LVU392
 1610 0254 75EE805A 		vadd.f32	s11, s11, s0
 1611 0258 ADE7     		b	.L161
 1612              	.L142:
 148:main.cpp      ****         f1 = ts3AD(x1);
 1613              		.loc 10 148 9 is_stmt 1 view .LVU393
 148:main.cpp      ****         f1 = ts3AD(x1);
 1614              		.loc 10 148 19 is_stmt 0 view .LVU394
 1615 025a FFF7FEFF 		bl	_Z5ts3ADf
 1616              	.LVL102:
 148:main.cpp      ****         f1 = ts3AD(x1);
 1617              		.loc 10 148 19 view .LVU395
 1618 025e F0EE407A 		vmov.f32	s15, s0
 148:main.cpp      ****         f1 = ts3AD(x1);
 1619              		.loc 10 148 12 view .LVU396
 1620 0262 DFF82891 		ldr	r9, .L177+76
 149:main.cpp      ****         f2 = ts3AD(x2);
 1621              		.loc 10 149 19 view .LVU397
 1622 0266 94ED000A 		vldr.32	s0, [r4]
 148:main.cpp      ****         f1 = ts3AD(x1);
 1623              		.loc 10 148 12 view .LVU398
 1624 026a C9ED007A 		vstr.32	s15, [r9]
 149:main.cpp      ****         f2 = ts3AD(x2);
 1625              		.loc 10 149 9 is_stmt 1 view .LVU399
 149:main.cpp      ****         f2 = ts3AD(x2);
 1626              		.loc 10 149 19 is_stmt 0 view .LVU400
 1627 026e FFF7FEFF 		bl	_Z5ts3ADf
 1628              	.LVL103:
 1629 0272 F0EE407A 		vmov.f32	s15, s0
 149:main.cpp      ****         f2 = ts3AD(x2);
 1630              		.loc 10 149 12 view .LVU401
ARM GAS  C:\Users\galla\AppData\Local\Temp\ccVNmTCK.s 			page 53


 1631 0276 DFF81881 		ldr	r8, .L177+80
 150:main.cpp      ****         f3 = ts3AD(x3);
 1632              		.loc 10 150 19 view .LVU402
 1633 027a 95ED000A 		vldr.32	s0, [r5]
 150:main.cpp      ****         f3 = ts3AD(x3);
 1634              		.loc 10 150 12 view .LVU403
 1635 027e 414F     		ldr	r7, .L177+68
 149:main.cpp      ****         f2 = ts3AD(x2);
 1636              		.loc 10 149 12 view .LVU404
 1637 0280 C8ED007A 		vstr.32	s15, [r8]
 150:main.cpp      ****         f3 = ts3AD(x3);
 1638              		.loc 10 150 9 is_stmt 1 view .LVU405
 150:main.cpp      ****         f3 = ts3AD(x3);
 1639              		.loc 10 150 19 is_stmt 0 view .LVU406
 1640 0284 FFF7FEFF 		bl	_Z5ts3ADf
 1641              	.LVL104:
 1642 0288 F0EE407A 		vmov.f32	s15, s0
 151:main.cpp      ****     } else if(effect == 1) {
 1643              		.loc 10 151 19 view .LVU407
 1644 028c 96ED000A 		vldr.32	s0, [r6]
 150:main.cpp      ****         f3 = ts3AD(x3);
 1645              		.loc 10 150 12 view .LVU408
 1646 0290 C7ED007A 		vstr.32	s15, [r7]
 151:main.cpp      ****     } else if(effect == 1) {
 1647              		.loc 10 151 9 is_stmt 1 view .LVU409
 151:main.cpp      ****     } else if(effect == 1) {
 1648              		.loc 10 151 19 is_stmt 0 view .LVU410
 1649 0294 FFF7FEFF 		bl	_Z5ts3ADf
 1650              	.LVL105:
 1651              	.L154:
 186:main.cpp      ****     }
 1652              		.loc 10 186 12 view .LVU411
 1653 0298 3B4B     		ldr	r3, .L177+72
 189:main.cpp      **** 
 1654              		.loc 10 189 34 view .LVU412
 1655 029a D9ED004A 		vldr.32	s9, [r9]
 1656 029e 98ED004A 		vldr.32	s8, [r8]
 189:main.cpp      **** 
 1657              		.loc 10 189 51 view .LVU413
 1658 02a2 97ED005A 		vldr.32	s10, [r7]
 191:main.cpp      ****     x2 = x1;
 1659              		.loc 10 191 8 view .LVU414
 1660 02a6 D5ED005A 		vldr.32	s11, [r5]
 192:main.cpp      ****     x1 = x;
 1661              		.loc 10 192 8 view .LVU415
 1662 02aa 94ED006A 		vldr.32	s12, [r4]
 186:main.cpp      ****     }
 1663              		.loc 10 186 12 view .LVU416
 1664 02ae 83ED000A 		vstr.32	s0, [r3]
 1665              	.L81:
 189:main.cpp      **** 
 1666              		.loc 10 189 5 is_stmt 1 view .LVU417
 189:main.cpp      **** 
 1667              		.loc 10 189 51 is_stmt 0 view .LVU418
 1668 02b2 74EE457A 		vsub.f32	s15, s8, s10
 191:main.cpp      ****     x2 = x1;
 1669              		.loc 10 191 8 view .LVU419
ARM GAS  C:\Users\galla\AppData\Local\Temp\ccVNmTCK.s 			page 54


 1670 02b6 C6ED005A 		vstr.32	s11, [r6]
 189:main.cpp      **** 
 1671              		.loc 10 189 97 view .LVU420
 1672 02ba 35EE405A 		vsub.f32	s10, s10, s0
 192:main.cpp      ****     x1 = x;
 1673              		.loc 10 192 8 view .LVU421
 1674 02be 85ED006A 		vstr.32	s12, [r5]
 189:main.cpp      **** 
 1675              		.loc 10 189 24 view .LVU422
 1676 02c2 F0EE003A 		vmov.f32	s7, #2.0e+0
 193:main.cpp      **** 
 1677              		.loc 10 193 8 view .LVU423
 1678 02c6 C4ED009A 		vstr.32	s19, [r4]
 189:main.cpp      **** 
 1679              		.loc 10 189 34 view .LVU424
 1680 02ca 74EEC44A 		vsub.f32	s9, s9, s8
 189:main.cpp      **** 
 1681              		.loc 10 189 101 view .LVU425
 1682 02ce C5EE286A 		vdiv.f32	s13, s10, s17
 189:main.cpp      **** 
 1683              		.loc 10 189 55 view .LVU426
 1684 02d2 87EE8A4A 		vdiv.f32	s8, s15, s20
 189:main.cpp      **** 
 1685              		.loc 10 189 38 view .LVU427
 1686 02d6 84EE887A 		vdiv.f32	s14, s9, s16
 189:main.cpp      **** 
 1687              		.loc 10 189 68 view .LVU428
 1688 02da C3EE897A 		vdiv.f32	s15, s7, s18
 189:main.cpp      **** 
 1689              		.loc 10 189 24 view .LVU429
 1690 02de 83EEAA5A 		vdiv.f32	s10, s7, s21
 189:main.cpp      **** 
 1691              		.loc 10 189 12 view .LVU430
 1692 02e2 B7EE003A 		vmov.f32	s6, #1.0e+0
 189:main.cpp      **** 
 1693              		.loc 10 189 92 view .LVU431
 1694 02e6 74EE666A 		vsub.f32	s13, s8, s13
 189:main.cpp      **** 
 1695              		.loc 10 189 46 view .LVU432
 1696 02ea 37EE447A 		vsub.f32	s14, s14, s8
 189:main.cpp      **** 
 1697              		.loc 10 189 12 view .LVU433
 1698 02ee C3EE0A5A 		vdiv.f32	s11, s6, s20
 189:main.cpp      **** 
 1699              		.loc 10 189 65 view .LVU434
 1700 02f2 27EEE66A 		vnmul.f32	s12, s15, s13
 1701 02f6 A5EE076A 		vfma.f32	s12, s10, s14
 189:main.cpp      **** 
 1702              		.loc 10 189 9 view .LVU435
 1703 02fa 25EE860A 		vmul.f32	s0, s11, s12
 1704              	.LVL106:
 191:main.cpp      ****     x2 = x1;
 1705              		.loc 10 191 5 is_stmt 1 view .LVU436
 192:main.cpp      ****     x1 = x;
 1706              		.loc 10 192 5 view .LVU437
 193:main.cpp      **** 
 1707              		.loc 10 193 5 view .LVU438
ARM GAS  C:\Users\galla\AppData\Local\Temp\ccVNmTCK.s 			page 55


 195:main.cpp      **** 
 1708              		.loc 10 195 5 view .LVU439
 195:main.cpp      **** 
 1709              		.loc 10 195 12 is_stmt 0 view .LVU440
 1710 02fe B0E6     		b	.L68
 1711              	.LVL107:
 1712              	.L152:
 183:main.cpp      ****         f1 = HM3AD(x1);
 1713              		.loc 10 183 9 is_stmt 1 view .LVU441
 183:main.cpp      ****         f1 = HM3AD(x1);
 1714              		.loc 10 183 19 is_stmt 0 view .LVU442
 1715 0300 FFF7FEFF 		bl	_Z5HM3ADf
 1716              	.LVL108:
 183:main.cpp      ****         f1 = HM3AD(x1);
 1717              		.loc 10 183 19 view .LVU443
 1718 0304 F0EE407A 		vmov.f32	s15, s0
 183:main.cpp      ****         f1 = HM3AD(x1);
 1719              		.loc 10 183 12 view .LVU444
 1720 0308 DFF88090 		ldr	r9, .L177+76
 184:main.cpp      ****         f2 = HM3AD(x2);
 1721              		.loc 10 184 19 view .LVU445
 1722 030c 94ED000A 		vldr.32	s0, [r4]
 183:main.cpp      ****         f1 = HM3AD(x1);
 1723              		.loc 10 183 12 view .LVU446
 1724 0310 C9ED007A 		vstr.32	s15, [r9]
 184:main.cpp      ****         f2 = HM3AD(x2);
 1725              		.loc 10 184 9 is_stmt 1 view .LVU447
 184:main.cpp      ****         f2 = HM3AD(x2);
 1726              		.loc 10 184 19 is_stmt 0 view .LVU448
 1727 0314 FFF7FEFF 		bl	_Z5HM3ADf
 1728              	.LVL109:
 1729 0318 F0EE407A 		vmov.f32	s15, s0
 184:main.cpp      ****         f2 = HM3AD(x2);
 1730              		.loc 10 184 12 view .LVU449
 1731 031c DFF87080 		ldr	r8, .L177+80
 185:main.cpp      ****         f3 = HM3AD(x3);
 1732              		.loc 10 185 19 view .LVU450
 1733 0320 95ED000A 		vldr.32	s0, [r5]
 185:main.cpp      ****         f3 = HM3AD(x3);
 1734              		.loc 10 185 12 view .LVU451
 1735 0324 174F     		ldr	r7, .L177+68
 184:main.cpp      ****         f2 = HM3AD(x2);
 1736              		.loc 10 184 12 view .LVU452
 1737 0326 C8ED007A 		vstr.32	s15, [r8]
 185:main.cpp      ****         f3 = HM3AD(x3);
 1738              		.loc 10 185 9 is_stmt 1 view .LVU453
 185:main.cpp      ****         f3 = HM3AD(x3);
 1739              		.loc 10 185 19 is_stmt 0 view .LVU454
 1740 032a FFF7FEFF 		bl	_Z5HM3ADf
 1741              	.LVL110:
 1742 032e F0EE407A 		vmov.f32	s15, s0
 186:main.cpp      ****     }
 1743              		.loc 10 186 19 view .LVU455
 1744 0332 96ED000A 		vldr.32	s0, [r6]
 185:main.cpp      ****         f3 = HM3AD(x3);
 1745              		.loc 10 185 12 view .LVU456
 1746 0336 C7ED007A 		vstr.32	s15, [r7]
ARM GAS  C:\Users\galla\AppData\Local\Temp\ccVNmTCK.s 			page 56


 186:main.cpp      ****     }
 1747              		.loc 10 186 9 is_stmt 1 view .LVU457
 186:main.cpp      ****     }
 1748              		.loc 10 186 19 is_stmt 0 view .LVU458
 1749 033a FFF7FEFF 		bl	_Z5HM3ADf
 1750              	.LVL111:
 1751 033e ABE7     		b	.L154
 1752              	.L178:
 1753              		.align	3
 1754              	.L177:
 1755 0340 C3F5285C 		.word	1546188227
 1756 0344 8FC2C53F 		.word	1069925007
 1757 0348 C3F5285C 		.word	1546188227
 1758 034c 8FC2C5BF 		.word	-1077558641
 1759 0350 9A999999 		.word	-1717986918
 1760 0354 9999D93F 		.word	1071225241
 1761 0358 9A999999 		.word	-1717986918
 1762 035c 9999D9BF 		.word	-1076258407
 1763 0360 00000000 		.word	.LANCHOR1
 1764 0364 00000000 		.word	.LANCHOR2
 1765 0368 00000000 		.word	.LANCHOR3
 1766 036c 00000000 		.word	.LANCHOR4
 1767 0370 ACC52737 		.word	925353388
 1768 0374 7B142EBE 		.word	-1104276357
 1769 0378 CDCCCCBE 		.word	-1093874483
 1770 037c 7B142E3E 		.word	1043207291
 1771 0380 CDCCCC3E 		.word	1053609165
 1772 0384 00000000 		.word	.LANCHOR7
 1773 0388 00000000 		.word	.LANCHOR8
 1774 038c 00000000 		.word	.LANCHOR5
 1775 0390 00000000 		.word	.LANCHOR6
 1776              	.LVL112:
 1777              	.L147:
 166:main.cpp      ****         f1 = bm3AD(x1);
 1778              		.loc 10 166 9 is_stmt 1 view .LVU459
 166:main.cpp      ****         f1 = bm3AD(x1);
 1779              		.loc 10 166 19 is_stmt 0 view .LVU460
 1780 0394 FFF7FEFF 		bl	_Z5bm3ADf
 1781              	.LVL113:
 166:main.cpp      ****         f1 = bm3AD(x1);
 1782              		.loc 10 166 19 view .LVU461
 1783 0398 F0EE404A 		vmov.f32	s9, s0
 166:main.cpp      ****         f1 = bm3AD(x1);
 1784              		.loc 10 166 12 view .LVU462
 1785 039c 0F4B     		ldr	r3, .L179
 167:main.cpp      ****         f2 = bm3AD(x2);
 1786              		.loc 10 167 19 view .LVU463
 1787 039e B0EE460A 		vmov.f32	s0, s12
 166:main.cpp      ****         f1 = bm3AD(x1);
 1788              		.loc 10 166 12 view .LVU464
 1789 03a2 C3ED004A 		vstr.32	s9, [r3]
 167:main.cpp      ****         f2 = bm3AD(x2);
 1790              		.loc 10 167 9 is_stmt 1 view .LVU465
 167:main.cpp      ****         f2 = bm3AD(x2);
 1791              		.loc 10 167 19 is_stmt 0 view .LVU466
 1792 03a6 FFF7FEFF 		bl	_Z5bm3ADf
 1793              	.LVL114:
ARM GAS  C:\Users\galla\AppData\Local\Temp\ccVNmTCK.s 			page 57


 1794 03aa B0EE404A 		vmov.f32	s8, s0
 167:main.cpp      ****         f2 = bm3AD(x2);
 1795              		.loc 10 167 12 view .LVU467
 1796 03ae 0C4B     		ldr	r3, .L179+4
 168:main.cpp      ****         f3 = bm3AD(x3);
 1797              		.loc 10 168 19 view .LVU468
 1798 03b0 B0EE650A 		vmov.f32	s0, s11
 167:main.cpp      ****         f2 = bm3AD(x2);
 1799              		.loc 10 167 12 view .LVU469
 1800 03b4 83ED004A 		vstr.32	s8, [r3]
 168:main.cpp      ****         f3 = bm3AD(x3);
 1801              		.loc 10 168 9 is_stmt 1 view .LVU470
 168:main.cpp      ****         f3 = bm3AD(x3);
 1802              		.loc 10 168 19 is_stmt 0 view .LVU471
 1803 03b8 FFF7FEFF 		bl	_Z5bm3ADf
 1804              	.LVL115:
 1805 03bc F0EE407A 		vmov.f32	s15, s0
 168:main.cpp      ****         f3 = bm3AD(x3);
 1806              		.loc 10 168 12 view .LVU472
 1807 03c0 084B     		ldr	r3, .L179+8
 169:main.cpp      ****     } else {
 1808              		.loc 10 169 19 view .LVU473
 1809 03c2 B0EE450A 		vmov.f32	s0, s10
 168:main.cpp      ****         f3 = bm3AD(x3);
 1810              		.loc 10 168 12 view .LVU474
 1811 03c6 C3ED007A 		vstr.32	s15, [r3]
 169:main.cpp      ****     } else {
 1812              		.loc 10 169 9 is_stmt 1 view .LVU475
 168:main.cpp      ****         f3 = bm3AD(x3);
 1813              		.loc 10 168 19 is_stmt 0 view .LVU476
 1814 03ca B0EE675A 		vmov.f32	s10, s15
 169:main.cpp      ****     } else {
 1815              		.loc 10 169 12 view .LVU477
 1816 03ce 064B     		ldr	r3, .L179+12
 169:main.cpp      ****     } else {
 1817              		.loc 10 169 19 view .LVU478
 1818 03d0 FFF7FEFF 		bl	_Z5bm3ADf
 1819              	.LVL116:
 169:main.cpp      ****     } else {
 1820              		.loc 10 169 12 view .LVU479
 1821 03d4 83ED000A 		vstr.32	s0, [r3]
 1822 03d8 6BE7     		b	.L81
 1823              	.L180:
 1824 03da 00BF     		.align	2
 1825              	.L179:
 1826 03dc 00000000 		.word	.LANCHOR5
 1827 03e0 00000000 		.word	.LANCHOR6
 1828 03e4 00000000 		.word	.LANCHOR7
 1829 03e8 00000000 		.word	.LANCHOR8
 1830              		.cfi_endproc
 1831              	.LFE4742:
 1833              		.section	.text._Z13AudioCallbackPKPKfPPfj,"ax",%progbits
 1834              		.align	1
 1835              		.p2align 2,,3
 1836              		.global	_Z13AudioCallbackPKPKfPPfj
 1837              		.syntax unified
 1838              		.thumb
ARM GAS  C:\Users\galla\AppData\Local\Temp\ccVNmTCK.s 			page 58


 1839              		.thumb_func
 1840              		.fpu fpv5-d16
 1842              	_Z13AudioCallbackPKPKfPPfj:
 1843              	.LVL117:
 1844              	.LFB4743:
 198:main.cpp      **** 
 199:main.cpp      **** 
 200:main.cpp      **** void AudioCallback(AudioHandle::InputBuffer in, AudioHandle::OutputBuffer out, size_t size) {
 1845              		.loc 10 200 93 is_stmt 1 view -0
 1846              		.cfi_startproc
 1847              		@ args = 0, pretend = 0, frame = 0
 1848              		@ frame_needed = 0, uses_anonymous_args = 0
 201:main.cpp      ****     knob1 = hw.adc.GetFloat(0);
 1849              		.loc 10 201 5 view .LVU481
 200:main.cpp      ****     knob1 = hw.adc.GetFloat(0);
 1850              		.loc 10 200 93 is_stmt 0 view .LVU482
 1851 0000 2DE9F84F 		push	{r3, r4, r5, r6, r7, r8, r9, r10, fp, lr}
 1852              		.cfi_def_cfa_offset 40
 1853              		.cfi_offset 3, -40
 1854              		.cfi_offset 4, -36
 1855              		.cfi_offset 5, -32
 1856              		.cfi_offset 6, -28
 1857              		.cfi_offset 7, -24
 1858              		.cfi_offset 8, -20
 1859              		.cfi_offset 9, -16
 1860              		.cfi_offset 10, -12
 1861              		.cfi_offset 11, -8
 1862              		.cfi_offset 14, -4
 1863 0004 0646     		mov	r6, r0
 1864 0006 0F46     		mov	r7, r1
 1865              		.loc 10 201 28 view .LVU483
 1866 0008 7D48     		ldr	r0, .L200+16
 1867              	.LVL118:
 1868              		.loc 10 201 28 view .LVU484
 1869 000a 0021     		movs	r1, #0
 1870              	.LVL119:
 1871              		.loc 10 201 11 view .LVU485
 1872 000c DFF83082 		ldr	r8, .L200+80
 200:main.cpp      ****     knob1 = hw.adc.GetFloat(0);
 1873              		.loc 10 200 93 view .LVU486
 1874 0010 1546     		mov	r5, r2
 202:main.cpp      ****     knob2 = hw.adc.GetFloat(1);
 1875              		.loc 10 202 11 view .LVU487
 1876 0012 DFF830A2 		ldr	r10, .L200+84
 203:main.cpp      ****     knob3 = hw.adc.GetFloat(2);
 1877              		.loc 10 203 11 view .LVU488
 1878 0016 DFF83092 		ldr	r9, .L200+88
 200:main.cpp      ****     knob1 = hw.adc.GetFloat(0);
 1879              		.loc 10 200 93 view .LVU489
 1880 001a 2DED028B 		vpush.64	{d8}
 1881              		.cfi_def_cfa_offset 48
 1882              		.cfi_offset 80, -48
 1883              		.cfi_offset 81, -44
 201:main.cpp      ****     knob2 = hw.adc.GetFloat(1);
 1884              		.loc 10 201 28 view .LVU490
 1885 001e FFF7FEFF 		bl	_ZNK5daisy9AdcHandle8GetFloatEh
 1886              	.LVL120:
ARM GAS  C:\Users\galla\AppData\Local\Temp\ccVNmTCK.s 			page 59


 202:main.cpp      ****     knob2 = hw.adc.GetFloat(1);
 1887              		.loc 10 202 28 view .LVU491
 1888 0022 0121     		movs	r1, #1
 1889 0024 7648     		ldr	r0, .L200+16
 204:main.cpp      **** 
 205:main.cpp      **** 
 206:main.cpp      ****     tstone.setFreq(500 + knob2*3500);
 207:main.cpp      **** 
 208:main.cpp      ****     stage2.setGain(16*knob2);
 209:main.cpp      ****     stage3.setGain(-16*knob2);
 210:main.cpp      ****     stage4.setGain(4*knob2);
 1890              		.loc 10 210 19 view .LVU492
 1891 0026 B1EE008A 		vmov.f32	s16, #4.0e+0
 201:main.cpp      ****     knob2 = hw.adc.GetFloat(1);
 1892              		.loc 10 201 11 view .LVU493
 1893 002a 88ED000A 		vstr.32	s0, [r8]
 202:main.cpp      ****     knob3 = hw.adc.GetFloat(2);
 1894              		.loc 10 202 5 is_stmt 1 view .LVU494
 202:main.cpp      ****     knob3 = hw.adc.GetFloat(2);
 1895              		.loc 10 202 28 is_stmt 0 view .LVU495
 1896 002e FFF7FEFF 		bl	_ZNK5daisy9AdcHandle8GetFloatEh
 1897              	.LVL121:
 203:main.cpp      **** 
 1898              		.loc 10 203 28 view .LVU496
 1899 0032 0221     		movs	r1, #2
 1900 0034 7248     		ldr	r0, .L200+16
 202:main.cpp      ****     knob3 = hw.adc.GetFloat(2);
 1901              		.loc 10 202 11 view .LVU497
 1902 0036 8AED000A 		vstr.32	s0, [r10]
 203:main.cpp      **** 
 1903              		.loc 10 203 5 is_stmt 1 view .LVU498
 203:main.cpp      **** 
 1904              		.loc 10 203 28 is_stmt 0 view .LVU499
 1905 003a FFF7FEFF 		bl	_ZNK5daisy9AdcHandle8GetFloatEh
 1906              	.LVL122:
 206:main.cpp      **** 
 1907              		.loc 10 206 19 view .LVU500
 1908 003e DAED006A 		vldr.32	s13, [r10]
 203:main.cpp      **** 
 1909              		.loc 10 203 28 view .LVU501
 1910 0042 F0EE407A 		vmov.f32	s15, s0
 206:main.cpp      **** 
 1911              		.loc 10 206 19 view .LVU502
 1912 0046 9FED6F7A 		vldr.32	s14, .L200+20
 1913 004a 9FED6F0A 		vldr.32	s0, .L200+24
 1914 004e 6F48     		ldr	r0, .L200+28
 1915 0050 A6EE870A 		vfma.f32	s0, s13, s14
 203:main.cpp      **** 
 1916              		.loc 10 203 11 view .LVU503
 1917 0054 C9ED007A 		vstr.32	s15, [r9]
 206:main.cpp      **** 
 1918              		.loc 10 206 5 is_stmt 1 view .LVU504
 206:main.cpp      **** 
 1919              		.loc 10 206 19 is_stmt 0 view .LVU505
 1920 0058 FFF7FEFF 		bl	_ZN6TSTone7setFreqEf
 1921              	.LVL123:
 208:main.cpp      ****     stage3.setGain(-16*knob2);
ARM GAS  C:\Users\galla\AppData\Local\Temp\ccVNmTCK.s 			page 60


 1922              		.loc 10 208 5 is_stmt 1 view .LVU506
 208:main.cpp      ****     stage3.setGain(-16*knob2);
 1923              		.loc 10 208 19 is_stmt 0 view .LVU507
 1924 005c F3EE007A 		vmov.f32	s15, #1.6e+1
 1925 0060 9AED000A 		vldr.32	s0, [r10]
 1926 0064 6A48     		ldr	r0, .L200+32
 1927 0066 20EE270A 		vmul.f32	s0, s0, s15
 1928 006a FFF7FEFF 		bl	_ZN6PeakEQ7setGainEf
 1929              	.LVL124:
 209:main.cpp      ****     stage4.setGain(4*knob2);
 1930              		.loc 10 209 5 is_stmt 1 view .LVU508
 209:main.cpp      ****     stage4.setGain(4*knob2);
 1931              		.loc 10 209 19 is_stmt 0 view .LVU509
 1932 006e FBEE007A 		vmov.f32	s15, #-1.6e+1
 1933 0072 9AED000A 		vldr.32	s0, [r10]
 1934 0076 6748     		ldr	r0, .L200+36
 1935 0078 20EE270A 		vmul.f32	s0, s0, s15
 1936 007c FFF7FEFF 		bl	_ZN6PeakEQ7setGainEf
 1937              	.LVL125:
 1938              		.loc 10 210 5 is_stmt 1 view .LVU510
 1939              		.loc 10 210 19 is_stmt 0 view .LVU511
 1940 0080 9AED000A 		vldr.32	s0, [r10]
 1941 0084 6448     		ldr	r0, .L200+40
 1942 0086 20EE080A 		vmul.f32	s0, s0, s16
 1943 008a FFF7FEFF 		bl	_ZN6PeakEQ7setGainEf
 1944              	.LVL126:
 211:main.cpp      ****     stage5.setGain(4*knob2);
 1945              		.loc 10 211 5 is_stmt 1 view .LVU512
 1946              		.loc 10 211 19 is_stmt 0 view .LVU513
 1947 008e 9AED000A 		vldr.32	s0, [r10]
 1948 0092 6248     		ldr	r0, .L200+44
 1949 0094 20EE080A 		vmul.f32	s0, s0, s16
 1950 0098 FFF7FEFF 		bl	_ZN6PeakEQ7setGainEf
 1951              	.LVL127:
 212:main.cpp      ****     float gain;
 1952              		.loc 10 212 5 is_stmt 1 view .LVU514
 213:main.cpp      ****     if(effect == 0) {
 1953              		.loc 10 213 5 view .LVU515
 1954              	.LBB256:
 1955              		.loc 10 213 15 is_stmt 0 view .LVU516
 1956 009c 604B     		ldr	r3, .L200+48
 1957 009e 1C68     		ldr	r4, [r3]
 1958              		.loc 10 213 5 view .LVU517
 1959 00a0 44BB     		cbnz	r4, .L182
 1960              	.LVL128:
 1961              	.LBB257:
 214:main.cpp      ****         for (size_t i = 0; i < size; i++) {
 1962              		.loc 10 214 30 is_stmt 1 view .LVU518
 1963 00a2 1DB3     		cbz	r5, .L181
 1964              	.LVL129:
 1965              	.L184:
 1966              	.LBB258:
 215:main.cpp      ****             gain = 1 + knob1*159;
 1967              		.loc 10 215 13 discriminator 2 view .LVU519
 1968              		.loc 10 215 18 is_stmt 0 discriminator 2 view .LVU520
 1969 00a4 F7EE007A 		vmov.f32	s15, #1.0e+0
 1970 00a8 D8ED006A 		vldr.32	s13, [r8]
ARM GAS  C:\Users\galla\AppData\Local\Temp\ccVNmTCK.s 			page 61


 1971 00ac 9FED5D7A 		vldr.32	s14, .L200+52
 1972 00b0 4FEA840A 		lsl	r10, r4, #2
 216:main.cpp      ****             float dist = dist3ADAA(IN_L[i]*gain);
 1973              		.loc 10 216 42 discriminator 2 view .LVU521
 1974 00b4 3268     		ldr	r2, [r6]
 215:main.cpp      ****             gain = 1 + knob1*159;
 1975              		.loc 10 215 18 discriminator 2 view .LVU522
 1976 00b6 E6EE877A 		vfma.f32	s15, s13, s14
 1977              	.LVL130:
 1978              		.loc 10 216 13 is_stmt 1 discriminator 2 view .LVU523
 1979              		.loc 10 216 42 is_stmt 0 discriminator 2 view .LVU524
 1980 00ba 02EB8402 		add	r2, r2, r4, lsl #2
 1981              	.LBE258:
 214:main.cpp      ****         for (size_t i = 0; i < size; i++) {
 1982              		.loc 10 214 9 discriminator 2 view .LVU525
 1983 00be 0134     		adds	r4, r4, #1
 1984              	.LVL131:
 1985              	.LBB259:
 1986              		.loc 10 216 35 discriminator 2 view .LVU526
 1987 00c0 92ED000A 		vldr.32	s0, [r2]
 1988 00c4 27EE800A 		vmul.f32	s0, s15, s0
 1989 00c8 FFF7FEFF 		bl	_Z9dist3ADAAf
 1990              	.LVL132:
 217:main.cpp      ****             OUT_L[i] = knob3*tstone.Process(tsHP.Process(dist));
 1991              		.loc 10 217 13 is_stmt 1 discriminator 2 view .LVU527
 1992              		.loc 10 217 44 is_stmt 0 discriminator 2 view .LVU528
 1993 00cc 5648     		ldr	r0, .L200+56
 1994 00ce FFF7FEFF 		bl	_ZN6DistHP7ProcessEf
 1995              	.LVL133:
 1996              		.loc 10 217 44 discriminator 2 view .LVU529
 1997 00d2 4E48     		ldr	r0, .L200+28
 1998 00d4 FFF7FEFF 		bl	_ZN6TSTone7ProcessEf
 1999              	.LVL134:
 2000              		.loc 10 217 29 discriminator 2 view .LVU530
 2001 00d8 D9ED007A 		vldr.32	s15, [r9]
 2002              		.loc 10 217 22 discriminator 2 view .LVU531
 2003 00dc 3B68     		ldr	r3, [r7]
 2004              	.LBE259:
 214:main.cpp      ****             gain = 1 + knob1*159;
 2005              		.loc 10 214 30 discriminator 2 view .LVU532
 2006 00de A542     		cmp	r5, r4
 2007              	.LBB260:
 2008              		.loc 10 217 29 discriminator 2 view .LVU533
 2009 00e0 27EE800A 		vmul.f32	s0, s15, s0
 2010              		.loc 10 217 22 discriminator 2 view .LVU534
 2011 00e4 5344     		add	r3, r3, r10
 2012 00e6 83ED000A 		vstr.32	s0, [r3]
 2013              	.LBE260:
 214:main.cpp      ****             gain = 1 + knob1*159;
 2014              		.loc 10 214 9 is_stmt 1 discriminator 2 view .LVU535
 2015              	.LVL135:
 214:main.cpp      ****             gain = 1 + knob1*159;
 2016              		.loc 10 214 30 discriminator 2 view .LVU536
 2017 00ea DBD1     		bne	.L184
 2018              	.LVL136:
 2019              	.L181:
 214:main.cpp      ****             gain = 1 + knob1*159;
ARM GAS  C:\Users\galla\AppData\Local\Temp\ccVNmTCK.s 			page 62


 2020              		.loc 10 214 30 is_stmt 0 discriminator 2 view .LVU537
 2021              	.LBE257:
 2022              	.LBE256:
 218:main.cpp      ****         }
 219:main.cpp      ****     } else if(effect == 1) {
 220:main.cpp      ****         for (size_t i = 0; i < size; i++) {
 221:main.cpp      ****             gain = 0.2+knob1*0.8;
 222:main.cpp      ****             float dist = dist3ADAA(IN_L[i]*60*gain);
 223:main.cpp      ****             float temp = bmBP.Process(dist);
 224:main.cpp      ****             float low = bmLow.Process(temp);
 225:main.cpp      ****             float high = bmHigh.Process(temp);
 226:main.cpp      ****             OUT_L[i] = 4*knob3*(high*knob2 + abs(1-knob2)*low);
 227:main.cpp      ****         }
 228:main.cpp      **** 
 229:main.cpp      ****     } else if(effect == 2) {
 230:main.cpp      ****         for (size_t i = 0; i < size; i++) {
 231:main.cpp      ****             gain = 20 + knob1*140;
 232:main.cpp      ****             float dist = dist3ADAA(IN_L[i]*knob1);
 233:main.cpp      ****             float s1 = stage1.Process(dist);
 234:main.cpp      ****             float s2 = stage2.Process(s1);
 235:main.cpp      ****             float s3 = stage3.Process(s2);
 236:main.cpp      ****             float s4 = stage4.Process(s3);
 237:main.cpp      ****             float s5 = stage5.Process(s4);
 238:main.cpp      ****             OUT_L[i] = knob3*s5;
 239:main.cpp      ****         }
 240:main.cpp      ****     }
 241:main.cpp      **** 
 242:main.cpp      **** }// end of callback
 2023              		.loc 10 242 1 view .LVU538
 2024 00ec BDEC028B 		vldm	sp!, {d8}
 2025              		.cfi_remember_state
 2026              		.cfi_restore 80
 2027              		.cfi_restore 81
 2028              		.cfi_def_cfa_offset 40
 2029 00f0 BDE8F88F 		pop	{r3, r4, r5, r6, r7, r8, r9, r10, fp, pc}
 2030              	.LVL137:
 2031              	.L182:
 2032              		.cfi_restore_state
 219:main.cpp      ****         for (size_t i = 0; i < size; i++) {
 2033              		.loc 10 219 12 is_stmt 1 view .LVU539
 2034              	.LBB276:
 2035              	.LBB261:
 2036 00f4 012C     		cmp	r4, #1
 2037 00f6 2BD0     		beq	.L199
 2038              	.LBE261:
 2039              	.LBE276:
 229:main.cpp      ****         for (size_t i = 0; i < size; i++) {
 2040              		.loc 10 229 12 view .LVU540
 2041              	.LBB277:
 2042              	.LBB275:
 2043              	.LBB262:
 2044 00f8 022C     		cmp	r4, #2
 2045 00fa F7D1     		bne	.L181
 2046              	.LVL138:
 2047              	.LBB263:
 230:main.cpp      ****             gain = 20 + knob1*140;
 2048              		.loc 10 230 30 view .LVU541
ARM GAS  C:\Users\galla\AppData\Local\Temp\ccVNmTCK.s 			page 63


 2049 00fc 002D     		cmp	r5, #0
 2050 00fe F5D0     		beq	.L181
 230:main.cpp      ****             gain = 20 + knob1*140;
 2051              		.loc 10 230 21 is_stmt 0 view .LVU542
 2052 0100 0024     		movs	r4, #0
 2053              	.LVL139:
 2054              	.L187:
 2055              	.LBB264:
 231:main.cpp      ****             float dist = dist3ADAA(IN_L[i]*knob1);
 2056              		.loc 10 231 13 is_stmt 1 discriminator 2 view .LVU543
 232:main.cpp      ****             float s1 = stage1.Process(dist);
 2057              		.loc 10 232 13 discriminator 2 view .LVU544
 232:main.cpp      ****             float s1 = stage1.Process(dist);
 2058              		.loc 10 232 42 is_stmt 0 discriminator 2 view .LVU545
 2059 0102 3368     		ldr	r3, [r6]
 232:main.cpp      ****             float s1 = stage1.Process(dist);
 2060              		.loc 10 232 35 discriminator 2 view .LVU546
 2061 0104 D8ED007A 		vldr.32	s15, [r8]
 232:main.cpp      ****             float s1 = stage1.Process(dist);
 2062              		.loc 10 232 42 discriminator 2 view .LVU547
 2063 0108 03EB8403 		add	r3, r3, r4, lsl #2
 232:main.cpp      ****             float s1 = stage1.Process(dist);
 2064              		.loc 10 232 35 discriminator 2 view .LVU548
 2065 010c 93ED000A 		vldr.32	s0, [r3]
 2066 0110 20EE270A 		vmul.f32	s0, s0, s15
 2067 0114 FFF7FEFF 		bl	_Z9dist3ADAAf
 2068              	.LVL140:
 233:main.cpp      ****             float s2 = stage2.Process(s1);
 2069              		.loc 10 233 13 is_stmt 1 discriminator 2 view .LVU549
 233:main.cpp      ****             float s2 = stage2.Process(s1);
 2070              		.loc 10 233 38 is_stmt 0 discriminator 2 view .LVU550
 2071 0118 4448     		ldr	r0, .L200+60
 2072 011a FFF7FEFF 		bl	_ZN6PeakEQ7ProcessEf
 2073              	.LVL141:
 234:main.cpp      ****             float s3 = stage3.Process(s2);
 2074              		.loc 10 234 13 is_stmt 1 discriminator 2 view .LVU551
 234:main.cpp      ****             float s3 = stage3.Process(s2);
 2075              		.loc 10 234 38 is_stmt 0 discriminator 2 view .LVU552
 2076 011e 3C48     		ldr	r0, .L200+32
 2077 0120 FFF7FEFF 		bl	_ZN6PeakEQ7ProcessEf
 2078              	.LVL142:
 235:main.cpp      ****             float s4 = stage4.Process(s3);
 2079              		.loc 10 235 13 is_stmt 1 discriminator 2 view .LVU553
 235:main.cpp      ****             float s4 = stage4.Process(s3);
 2080              		.loc 10 235 38 is_stmt 0 discriminator 2 view .LVU554
 2081 0124 3B48     		ldr	r0, .L200+36
 2082 0126 FFF7FEFF 		bl	_ZN6PeakEQ7ProcessEf
 2083              	.LVL143:
 236:main.cpp      ****             float s5 = stage5.Process(s4);
 2084              		.loc 10 236 13 is_stmt 1 discriminator 2 view .LVU555
 236:main.cpp      ****             float s5 = stage5.Process(s4);
 2085              		.loc 10 236 38 is_stmt 0 discriminator 2 view .LVU556
 2086 012a 3B48     		ldr	r0, .L200+40
 2087 012c FFF7FEFF 		bl	_ZN6PeakEQ7ProcessEf
 2088              	.LVL144:
 237:main.cpp      ****             OUT_L[i] = knob3*s5;
 2089              		.loc 10 237 13 is_stmt 1 discriminator 2 view .LVU557
ARM GAS  C:\Users\galla\AppData\Local\Temp\ccVNmTCK.s 			page 64


 237:main.cpp      ****             OUT_L[i] = knob3*s5;
 2090              		.loc 10 237 38 is_stmt 0 discriminator 2 view .LVU558
 2091 0130 3A48     		ldr	r0, .L200+44
 2092 0132 FFF7FEFF 		bl	_ZN6PeakEQ7ProcessEf
 2093              	.LVL145:
 238:main.cpp      ****         }
 2094              		.loc 10 238 13 is_stmt 1 discriminator 2 view .LVU559
 238:main.cpp      ****         }
 2095              		.loc 10 238 29 is_stmt 0 discriminator 2 view .LVU560
 2096 0136 D9ED007A 		vldr.32	s15, [r9]
 2097 013a A200     		lsls	r2, r4, #2
 238:main.cpp      ****         }
 2098              		.loc 10 238 22 discriminator 2 view .LVU561
 2099 013c 3B68     		ldr	r3, [r7]
 2100              	.LBE264:
 230:main.cpp      ****             gain = 20 + knob1*140;
 2101              		.loc 10 230 9 discriminator 2 view .LVU562
 2102 013e 0134     		adds	r4, r4, #1
 2103              	.LVL146:
 2104              	.LBB265:
 238:main.cpp      ****         }
 2105              		.loc 10 238 29 discriminator 2 view .LVU563
 2106 0140 27EE800A 		vmul.f32	s0, s15, s0
 2107              	.LVL147:
 238:main.cpp      ****         }
 2108              		.loc 10 238 22 discriminator 2 view .LVU564
 2109 0144 1344     		add	r3, r3, r2
 2110              	.LBE265:
 230:main.cpp      ****             gain = 20 + knob1*140;
 2111              		.loc 10 230 30 discriminator 2 view .LVU565
 2112 0146 A542     		cmp	r5, r4
 2113              	.LBB266:
 238:main.cpp      ****         }
 2114              		.loc 10 238 22 discriminator 2 view .LVU566
 2115 0148 83ED000A 		vstr.32	s0, [r3]
 2116              	.LBE266:
 230:main.cpp      ****             gain = 20 + knob1*140;
 2117              		.loc 10 230 9 is_stmt 1 discriminator 2 view .LVU567
 2118              	.LVL148:
 230:main.cpp      ****             gain = 20 + knob1*140;
 2119              		.loc 10 230 30 discriminator 2 view .LVU568
 2120 014c D9D1     		bne	.L187
 2121 014e CDE7     		b	.L181
 2122              	.LVL149:
 2123              	.L199:
 230:main.cpp      ****             gain = 20 + knob1*140;
 2124              		.loc 10 230 30 is_stmt 0 discriminator 2 view .LVU569
 2125              	.LBE263:
 2126              	.LBE262:
 2127              	.LBB267:
 220:main.cpp      ****             gain = 0.2+knob1*0.8;
 2128              		.loc 10 220 30 is_stmt 1 view .LVU570
 2129 0150 002D     		cmp	r5, #0
 2130 0152 CBD0     		beq	.L181
 220:main.cpp      ****             gain = 0.2+knob1*0.8;
 2131              		.loc 10 220 21 is_stmt 0 view .LVU571
 2132 0154 0024     		movs	r4, #0
ARM GAS  C:\Users\galla\AppData\Local\Temp\ccVNmTCK.s 			page 65


 2133              	.LVL150:
 2134              	.L186:
 2135              	.LBB268:
 221:main.cpp      ****             float dist = dist3ADAA(IN_L[i]*60*gain);
 2136              		.loc 10 221 13 is_stmt 1 discriminator 2 view .LVU572
 221:main.cpp      ****             float dist = dist3ADAA(IN_L[i]*60*gain);
 2137              		.loc 10 221 24 is_stmt 0 discriminator 2 view .LVU573
 2138 0156 98ED007A 		vldr.32	s14, [r8]
 2139 015a 4FEA840B 		lsl	fp, r4, #2
 222:main.cpp      ****             float temp = bmBP.Process(dist);
 2140              		.loc 10 222 42 discriminator 2 view .LVU574
 2141 015e 3268     		ldr	r2, [r6]
 221:main.cpp      ****             float dist = dist3ADAA(IN_L[i]*60*gain);
 2142              		.loc 10 221 24 discriminator 2 view .LVU575
 2143 0160 B7EEC77A 		vcvt.f64.f32	d7, s14
 222:main.cpp      ****             float temp = bmBP.Process(dist);
 2144              		.loc 10 222 43 discriminator 2 view .LVU576
 2145 0164 DFED326A 		vldr.32	s13, .L200+64
 222:main.cpp      ****             float temp = bmBP.Process(dist);
 2146              		.loc 10 222 42 discriminator 2 view .LVU577
 2147 0168 02EB8402 		add	r2, r2, r4, lsl #2
 2148              	.LBE268:
 220:main.cpp      ****             gain = 0.2+knob1*0.8;
 2149              		.loc 10 220 9 discriminator 2 view .LVU578
 2150 016c 0134     		adds	r4, r4, #1
 2151              	.LVL151:
 2152              	.LBB273:
 221:main.cpp      ****             float dist = dist3ADAA(IN_L[i]*60*gain);
 2153              		.loc 10 221 23 discriminator 2 view .LVU579
 2154 016e 9FED205B 		vldr.64	d5, .L200
 2155 0172 9FED210B 		vldr.64	d0, .L200+8
 2156 0176 A7EE050B 		vfma.f64	d0, d7, d5
 2157              	.LVL152:
 222:main.cpp      ****             float temp = bmBP.Process(dist);
 2158              		.loc 10 222 13 is_stmt 1 discriminator 2 view .LVU580
 222:main.cpp      ****             float temp = bmBP.Process(dist);
 2159              		.loc 10 222 43 is_stmt 0 discriminator 2 view .LVU581
 2160 017a D2ED007A 		vldr.32	s15, [r2]
 2161 017e 67EEA67A 		vmul.f32	s15, s15, s13
 221:main.cpp      ****             float dist = dist3ADAA(IN_L[i]*60*gain);
 2162              		.loc 10 221 18 discriminator 2 view .LVU582
 2163 0182 B7EEC00B 		vcvt.f32.f64	s0, d0
 2164              	.LVL153:
 222:main.cpp      ****             float temp = bmBP.Process(dist);
 2165              		.loc 10 222 35 discriminator 2 view .LVU583
 2166 0186 27EE800A 		vmul.f32	s0, s15, s0
 2167              	.LVL154:
 222:main.cpp      ****             float temp = bmBP.Process(dist);
 2168              		.loc 10 222 35 discriminator 2 view .LVU584
 2169 018a FFF7FEFF 		bl	_Z9dist3ADAAf
 2170              	.LVL155:
 223:main.cpp      ****             float low = bmLow.Process(temp);
 2171              		.loc 10 223 13 is_stmt 1 discriminator 2 view .LVU585
 223:main.cpp      ****             float low = bmLow.Process(temp);
 2172              		.loc 10 223 38 is_stmt 0 discriminator 2 view .LVU586
 2173 018e 2948     		ldr	r0, .L200+68
 2174 0190 FFF7FEFF 		bl	_ZN6DistBP7ProcessEf
ARM GAS  C:\Users\galla\AppData\Local\Temp\ccVNmTCK.s 			page 66


 2175              	.LVL156:
 224:main.cpp      ****             float high = bmHigh.Process(temp);
 2176              		.loc 10 224 38 discriminator 2 view .LVU587
 2177 0194 2848     		ldr	r0, .L200+72
 223:main.cpp      ****             float low = bmLow.Process(temp);
 2178              		.loc 10 223 38 discriminator 2 view .LVU588
 2179 0196 B0EE408A 		vmov.f32	s16, s0
 2180              	.LVL157:
 224:main.cpp      ****             float high = bmHigh.Process(temp);
 2181              		.loc 10 224 13 is_stmt 1 discriminator 2 view .LVU589
 224:main.cpp      ****             float high = bmHigh.Process(temp);
 2182              		.loc 10 224 38 is_stmt 0 discriminator 2 view .LVU590
 2183 019a FFF7FEFF 		bl	_ZN5BMlow7ProcessEf
 2184              	.LVL158:
 224:main.cpp      ****             float high = bmHigh.Process(temp);
 2185              		.loc 10 224 38 discriminator 2 view .LVU591
 2186 019e F0EE407A 		vmov.f32	s15, s0
 225:main.cpp      ****             OUT_L[i] = 4*knob3*(high*knob2 + abs(1-knob2)*low);
 2187              		.loc 10 225 40 discriminator 2 view .LVU592
 2188 01a2 2648     		ldr	r0, .L200+76
 2189 01a4 B0EE480A 		vmov.f32	s0, s16
 224:main.cpp      ****             float high = bmHigh.Process(temp);
 2190              		.loc 10 224 38 discriminator 2 view .LVU593
 2191 01a8 B0EE678A 		vmov.f32	s16, s15
 2192              	.LVL159:
 225:main.cpp      ****             OUT_L[i] = 4*knob3*(high*knob2 + abs(1-knob2)*low);
 2193              		.loc 10 225 13 is_stmt 1 discriminator 2 view .LVU594
 225:main.cpp      ****             OUT_L[i] = 4*knob3*(high*knob2 + abs(1-knob2)*low);
 2194              		.loc 10 225 40 is_stmt 0 discriminator 2 view .LVU595
 2195 01ac FFF7FEFF 		bl	_ZN6BMhigh7ProcessEf
 2196              	.LVL160:
 226:main.cpp      ****         }
 2197              		.loc 10 226 13 is_stmt 1 discriminator 2 view .LVU596
 226:main.cpp      ****         }
 2198              		.loc 10 226 49 is_stmt 0 discriminator 2 view .LVU597
 2199 01b0 B7EE007A 		vmov.f32	s14, #1.0e+0
 226:main.cpp      ****         }
 2200              		.loc 10 226 37 discriminator 2 view .LVU598
 2201 01b4 9AED006A 		vldr.32	s12, [r10]
 2202              	.LVL161:
 2203              	.LBB269:
 2204              	.LBI269:
  75:c:\program files\daisytoolchain\arm-none-eabi\include\c++\10.2.1\bits\std_abs.h ****   { return __builtin_fabsf(__x); }
 2205              		.loc 11 75 3 is_stmt 1 discriminator 2 view .LVU599
 2206              	.LBB270:
 2207              		.loc 11 76 5 discriminator 2 view .LVU600
 2208              		.loc 11 76 5 is_stmt 0 discriminator 2 view .LVU601
 2209              	.LBE270:
 2210              	.LBE269:
 226:main.cpp      ****         }
 2211              		.loc 10 226 25 discriminator 2 view .LVU602
 2212 01b8 F1EE007A 		vmov.f32	s15, #4.0e+0
 2213 01bc D9ED006A 		vldr.32	s13, [r9]
 226:main.cpp      ****         }
 2214              		.loc 10 226 22 discriminator 2 view .LVU603
 2215 01c0 3B68     		ldr	r3, [r7]
 2216              	.LBE273:
ARM GAS  C:\Users\galla\AppData\Local\Temp\ccVNmTCK.s 			page 67


 220:main.cpp      ****             gain = 0.2+knob1*0.8;
 2217              		.loc 10 220 30 discriminator 2 view .LVU604
 2218 01c2 A542     		cmp	r5, r4
 2219              	.LBB274:
 226:main.cpp      ****         }
 2220              		.loc 10 226 49 discriminator 2 view .LVU605
 2221 01c4 37EE467A 		vsub.f32	s14, s14, s12
 226:main.cpp      ****         }
 2222              		.loc 10 226 25 discriminator 2 view .LVU606
 2223 01c8 66EEA76A 		vmul.f32	s13, s13, s15
 226:main.cpp      ****         }
 2224              		.loc 10 226 22 discriminator 2 view .LVU607
 2225 01cc 5B44     		add	r3, r3, fp
 2226              	.LBB272:
 2227              	.LBB271:
 2228              		.loc 11 76 31 discriminator 2 view .LVU608
 2229 01ce B0EEC77A 		vabs.f32	s14, s14
 2230              	.LBE271:
 2231              	.LBE272:
 226:main.cpp      ****         }
 2232              		.loc 10 226 58 discriminator 2 view .LVU609
 2233 01d2 67EE087A 		vmul.f32	s15, s14, s16
 226:main.cpp      ****         }
 2234              		.loc 10 226 44 discriminator 2 view .LVU610
 2235 01d6 E6EE007A 		vfma.f32	s15, s12, s0
 226:main.cpp      ****         }
 2236              		.loc 10 226 31 discriminator 2 view .LVU611
 2237 01da 66EEA77A 		vmul.f32	s15, s13, s15
 226:main.cpp      ****         }
 2238              		.loc 10 226 22 discriminator 2 view .LVU612
 2239 01de C3ED007A 		vstr.32	s15, [r3]
 2240              	.LBE274:
 220:main.cpp      ****             gain = 0.2+knob1*0.8;
 2241              		.loc 10 220 9 is_stmt 1 discriminator 2 view .LVU613
 2242              	.LVL162:
 220:main.cpp      ****             gain = 0.2+knob1*0.8;
 2243              		.loc 10 220 30 discriminator 2 view .LVU614
 2244 01e2 B8D1     		bne	.L186
 2245              	.LBE267:
 2246              	.LBE275:
 2247              	.LBE277:
 2248              		.loc 10 242 1 is_stmt 0 view .LVU615
 2249 01e4 BDEC028B 		vldm	sp!, {d8}
 2250              		.cfi_restore 80
 2251              		.cfi_restore 81
 2252              		.cfi_def_cfa_offset 40
 2253              	.LVL163:
 2254              		.loc 10 242 1 view .LVU616
 2255 01e8 BDE8F88F 		pop	{r3, r4, r5, r6, r7, r8, r9, r10, fp, pc}
 2256              	.LVL164:
 2257              	.L201:
 2258              		.loc 10 242 1 view .LVU617
 2259 01ec AFF30080 		.align	3
 2260              	.L200:
 2261 01f0 9A999999 		.word	-1717986918
 2262 01f4 9999E93F 		.word	1072273817
 2263 01f8 9A999999 		.word	-1717986918
ARM GAS  C:\Users\galla\AppData\Local\Temp\ccVNmTCK.s 			page 68


 2264 01fc 9999C93F 		.word	1070176665
 2265 0200 18000000 		.word	.LANCHOR9+24
 2266 0204 00C05A45 		.word	1163575296
 2267 0208 0000FA43 		.word	1140457472
 2268 020c 00000000 		.word	.LANCHOR13
 2269 0210 00000000 		.word	.LANCHOR14
 2270 0214 00000000 		.word	.LANCHOR15
 2271 0218 00000000 		.word	.LANCHOR16
 2272 021c 00000000 		.word	.LANCHOR17
 2273 0220 00000000 		.word	.LANCHOR4
 2274 0224 00001F43 		.word	1126105088
 2275 0228 00000000 		.word	.LANCHOR18
 2276 022c 00000000 		.word	.LANCHOR22
 2277 0230 00007042 		.word	1114636288
 2278 0234 00000000 		.word	.LANCHOR19
 2279 0238 00000000 		.word	.LANCHOR20
 2280 023c 00000000 		.word	.LANCHOR21
 2281 0240 00000000 		.word	.LANCHOR10
 2282 0244 00000000 		.word	.LANCHOR11
 2283 0248 00000000 		.word	.LANCHOR12
 2284              		.cfi_endproc
 2285              	.LFE4743:
 2287              		.section	.text._Z13InitializeADCv,"ax",%progbits
 2288              		.align	1
 2289              		.p2align 2,,3
 2290              		.global	_Z13InitializeADCv
 2291              		.syntax unified
 2292              		.thumb
 2293              		.thumb_func
 2294              		.fpu fpv5-d16
 2296              	_Z13InitializeADCv:
 2297              	.LFB4744:
 243:main.cpp      **** 
 244:main.cpp      **** void InitializeADC()
 245:main.cpp      **** {
 2298              		.loc 10 245 1 is_stmt 1 view -0
 2299              		.cfi_startproc
 2300              		@ args = 0, pretend = 0, frame = 72
 2301              		@ frame_needed = 0, uses_anonymous_args = 0
 246:main.cpp      **** 	AdcChannelConfig adc_config[3];
 2302              		.loc 10 246 2 view .LVU619
 247:main.cpp      ****     adc_config[0].InitSingle(hw.GetPin(15));//knob 1
 2303              		.loc 10 247 5 view .LVU620
 245:main.cpp      **** 	AdcChannelConfig adc_config[3];
 2304              		.loc 10 245 1 is_stmt 0 view .LVU621
 2305 0000 10B5     		push	{r4, lr}
 2306              		.cfi_def_cfa_offset 8
 2307              		.cfi_offset 4, -8
 2308              		.cfi_offset 14, -4
 2309              		.loc 10 247 29 view .LVU622
 2310 0002 0F20     		movs	r0, #15
 245:main.cpp      **** 	AdcChannelConfig adc_config[3];
 2311              		.loc 10 245 1 view .LVU623
 2312 0004 92B0     		sub	sp, sp, #72
 2313              		.cfi_def_cfa_offset 80
 2314              		.loc 10 247 29 view .LVU624
 2315 0006 FFF7FEFF 		bl	_ZN5daisy9DaisySeed6GetPinEh
ARM GAS  C:\Users\galla\AppData\Local\Temp\ccVNmTCK.s 			page 69


 2316              	.LVL165:
 2317 000a 0346     		mov	r3, r0	@ movhi
 2318 000c 0222     		movs	r2, #2
 2319 000e 04A8     		add	r0, sp, #16
 2320 0010 ADF80430 		strh	r3, [sp, #4]	@ movhi
 2321 0014 0199     		ldr	r1, [sp, #4]
 2322 0016 FFF7FEFF 		bl	_ZN5daisy16AdcChannelConfig10InitSingleE12dsy_gpio_pinNS0_15ConversionSpeedE
 2323              	.LVL166:
 248:main.cpp      ****     adc_config[1].InitSingle(hw.GetPin(16));//knob 2
 2324              		.loc 10 248 5 is_stmt 1 view .LVU625
 2325              		.loc 10 248 29 is_stmt 0 view .LVU626
 2326 001a 1020     		movs	r0, #16
 2327 001c FFF7FEFF 		bl	_ZN5daisy9DaisySeed6GetPinEh
 2328              	.LVL167:
 2329 0020 ADF80800 		strh	r0, [sp, #8]	@ movhi
 2330 0024 0299     		ldr	r1, [sp, #8]
 2331 0026 0222     		movs	r2, #2
 2332 0028 0DF12200 		add	r0, sp, #34
 249:main.cpp      ****     adc_config[2].InitSingle(hw.GetPin(17));//knob 3
 250:main.cpp      **** 	hw.adc.Init(adc_config, 3);
 2333              		.loc 10 250 13 view .LVU627
 2334 002c 0B4C     		ldr	r4, .L204
 248:main.cpp      ****     adc_config[1].InitSingle(hw.GetPin(16));//knob 2
 2335              		.loc 10 248 29 view .LVU628
 2336 002e FFF7FEFF 		bl	_ZN5daisy16AdcChannelConfig10InitSingleE12dsy_gpio_pinNS0_15ConversionSpeedE
 2337              	.LVL168:
 249:main.cpp      ****     adc_config[2].InitSingle(hw.GetPin(17));//knob 3
 2338              		.loc 10 249 5 is_stmt 1 view .LVU629
 249:main.cpp      ****     adc_config[2].InitSingle(hw.GetPin(17));//knob 3
 2339              		.loc 10 249 29 is_stmt 0 view .LVU630
 2340 0032 1120     		movs	r0, #17
 2341 0034 FFF7FEFF 		bl	_ZN5daisy9DaisySeed6GetPinEh
 2342              	.LVL169:
 2343 0038 ADF80C00 		strh	r0, [sp, #12]	@ movhi
 2344 003c 0399     		ldr	r1, [sp, #12]
 2345 003e 0DA8     		add	r0, sp, #52
 2346 0040 0222     		movs	r2, #2
 2347 0042 FFF7FEFF 		bl	_ZN5daisy16AdcChannelConfig10InitSingleE12dsy_gpio_pinNS0_15ConversionSpeedE
 2348              	.LVL170:
 2349              		.loc 10 250 2 is_stmt 1 view .LVU631
 2350              		.loc 10 250 13 is_stmt 0 view .LVU632
 2351 0046 0423     		movs	r3, #4
 2352 0048 0322     		movs	r2, #3
 2353 004a 04A9     		add	r1, sp, #16
 2354 004c 2046     		mov	r0, r4
 2355 004e FFF7FEFF 		bl	_ZN5daisy9AdcHandle4InitEPNS_16AdcChannelConfigEjNS0_12OverSamplingE
 2356              	.LVL171:
 251:main.cpp      **** 	hw.adc.Start();
 2357              		.loc 10 251 2 is_stmt 1 view .LVU633
 2358              		.loc 10 251 14 is_stmt 0 view .LVU634
 2359 0052 2046     		mov	r0, r4
 2360 0054 FFF7FEFF 		bl	_ZN5daisy9AdcHandle5StartEv
 2361              	.LVL172:
 252:main.cpp      **** }
 2362              		.loc 10 252 1 view .LVU635
 2363 0058 12B0     		add	sp, sp, #72
 2364              		.cfi_def_cfa_offset 8
ARM GAS  C:\Users\galla\AppData\Local\Temp\ccVNmTCK.s 			page 70


 2365              		@ sp needed
 2366 005a 10BD     		pop	{r4, pc}
 2367              	.L205:
 2368              		.align	2
 2369              	.L204:
 2370 005c 18000000 		.word	.LANCHOR9+24
 2371              		.cfi_endproc
 2372              	.LFE4744:
 2374              		.section	.text.startup.main,"ax",%progbits
 2375              		.align	1
 2376              		.p2align 2,,3
 2377              		.global	main
 2378              		.syntax unified
 2379              		.thumb
 2380              		.thumb_func
 2381              		.fpu fpv5-d16
 2383              	main:
 2384              	.LFB4745:
 253:main.cpp      **** 
 254:main.cpp      **** int main(void) {
 2385              		.loc 10 254 16 is_stmt 1 view -0
 2386              		.cfi_startproc
 2387              		@ Volatile: function does not return.
 2388              		@ args = 0, pretend = 0, frame = 88
 2389              		@ frame_needed = 0, uses_anonymous_args = 0
 255:main.cpp      **** 
 256:main.cpp      ****     hw.Configure();
 2390              		.loc 10 256 5 view .LVU637
 254:main.cpp      **** 
 2391              		.loc 10 254 16 is_stmt 0 view .LVU638
 2392 0000 80B5     		push	{r7, lr}
 2393              		.cfi_def_cfa_offset 8
 2394              		.cfi_offset 7, -8
 2395              		.cfi_offset 14, -4
 2396              		.loc 10 256 17 view .LVU639
 2397 0002 8748     		ldr	r0, .L222
 254:main.cpp      **** 
 2398              		.loc 10 254 16 view .LVU640
 2399 0004 98B0     		sub	sp, sp, #96
 2400              		.cfi_def_cfa_offset 104
 2401              		.loc 10 256 17 view .LVU641
 2402 0006 FFF7FEFF 		bl	_ZN5daisy9DaisySeed9ConfigureEv
 2403              	.LVL173:
 257:main.cpp      ****     hw.Init();
 2404              		.loc 10 257 5 is_stmt 1 view .LVU642
 2405              		.loc 10 257 12 is_stmt 0 view .LVU643
 2406 000a 0021     		movs	r1, #0
 2407 000c 8448     		ldr	r0, .L222
 258:main.cpp      ****     hw.SetAudioSampleRate(SaiHandle::Config::SampleRate::SAI_96KHZ);
 259:main.cpp      ****     hw.SetAudioBlockSize(4);
 260:main.cpp      **** 
 261:main.cpp      ****     InitializeADC();
 262:main.cpp      **** 
 263:main.cpp      ****     bmBP.Init();
 264:main.cpp      ****     bmHigh.Init();
 265:main.cpp      ****     bmLow.Init();
 266:main.cpp      **** 
ARM GAS  C:\Users\galla\AppData\Local\Temp\ccVNmTCK.s 			page 71


 267:main.cpp      ****     stage1.Init();
 268:main.cpp      ****     stage1.setParams(20, 300, 0.707);//0.707
 269:main.cpp      ****     stage1.setGain(-7);
 270:main.cpp      **** 
 271:main.cpp      ****     stage2.Init();
 272:main.cpp      ****     stage2.setParams(72, 300, 1.293);//1.707
 273:main.cpp      **** 
 274:main.cpp      ****     stage3.Init();
 275:main.cpp      ****     stage3.setParams(220, 300, 0.707);//1
 276:main.cpp      **** 
 277:main.cpp      ****     stage4.Init();
 278:main.cpp      ****     stage4.setParams(1000, 300, 1.707);//1.707
 279:main.cpp      **** 
 280:main.cpp      ****     stage5.Init();
 281:main.cpp      ****     stage5.setParams(1500, 300, 1.707);//1.707
 282:main.cpp      **** 
 283:main.cpp      ****     tstone.Init();
 284:main.cpp      ****     tsHP.Init();
 285:main.cpp      **** 
 286:main.cpp      ****     Switch momentary;
 287:main.cpp      ****     momentary.Init(seed::D0, 1000);
 2408              		.loc 10 287 19 view .LVU644
 2409 000e 0126     		movs	r6, #1
 257:main.cpp      ****     hw.Init();
 2410              		.loc 10 257 12 view .LVU645
 2411 0010 FFF7FEFF 		bl	_ZN5daisy9DaisySeed4InitEb
 2412              	.LVL174:
 258:main.cpp      ****     hw.SetAudioSampleRate(SaiHandle::Config::SampleRate::SAI_96KHZ);
 2413              		.loc 10 258 5 is_stmt 1 view .LVU646
 258:main.cpp      ****     hw.SetAudioSampleRate(SaiHandle::Config::SampleRate::SAI_96KHZ);
 2414              		.loc 10 258 26 is_stmt 0 view .LVU647
 2415 0014 0421     		movs	r1, #4
 2416 0016 8248     		ldr	r0, .L222
 288:main.cpp      **** 
 289:main.cpp      ****     Switch latching;
 290:main.cpp      ****     latching.Init(seed::D1); // FOR LATCHING SWITCHES
 2417              		.loc 10 290 18 view .LVU648
 2418 0018 0B24     		movs	r4, #11
 258:main.cpp      ****     hw.SetAudioSampleRate(SaiHandle::Config::SampleRate::SAI_96KHZ);
 2419              		.loc 10 258 26 view .LVU649
 2420 001a FFF7FEFF 		bl	_ZN5daisy9DaisySeed18SetAudioSampleRateENS_9SaiHandle6Config10SampleRateE
 2421              	.LVL175:
 259:main.cpp      **** 
 2422              		.loc 10 259 5 is_stmt 1 view .LVU650
 259:main.cpp      **** 
 2423              		.loc 10 259 25 is_stmt 0 view .LVU651
 2424 001e 0421     		movs	r1, #4
 2425 0020 7F48     		ldr	r0, .L222
 2426              		.loc 10 290 18 view .LVU652
 2427 0022 4FF00208 		mov	r8, #2
 259:main.cpp      **** 
 2428              		.loc 10 259 25 view .LVU653
 2429 0026 FFF7FEFF 		bl	_ZN5daisy9DaisySeed17SetAudioBlockSizeEj
 2430              	.LVL176:
 261:main.cpp      **** 
 2431              		.loc 10 261 5 is_stmt 1 view .LVU654
 2432              	.LBB314:
ARM GAS  C:\Users\galla\AppData\Local\Temp\ccVNmTCK.s 			page 72


 2433              	.LBB315:
 2434              		.file 13 "../../libDaisy/src/hid/switch3.h"
   1:../../libDaisy/src/hid/switch3.h **** #pragma once
   2:../../libDaisy/src/hid/switch3.h **** #include "daisy_core.h"
   3:../../libDaisy/src/hid/switch3.h **** #include "per/gpio.h"
   4:../../libDaisy/src/hid/switch3.h **** 
   5:../../libDaisy/src/hid/switch3.h **** namespace daisy
   6:../../libDaisy/src/hid/switch3.h **** {
   7:../../libDaisy/src/hid/switch3.h **** class Switch3
   8:../../libDaisy/src/hid/switch3.h **** {
   9:../../libDaisy/src/hid/switch3.h ****   public:
  10:../../libDaisy/src/hid/switch3.h ****     enum
  11:../../libDaisy/src/hid/switch3.h ****     {
  12:../../libDaisy/src/hid/switch3.h ****         POS_CENTER = 0,
  13:../../libDaisy/src/hid/switch3.h ****         POS_LEFT   = 1,
  14:../../libDaisy/src/hid/switch3.h ****         POS_UP     = 1,
  15:../../libDaisy/src/hid/switch3.h ****         POS_RIGHT  = 2,
  16:../../libDaisy/src/hid/switch3.h ****         POS_DOWN   = 2,
  17:../../libDaisy/src/hid/switch3.h ****     };
  18:../../libDaisy/src/hid/switch3.h **** 
  19:../../libDaisy/src/hid/switch3.h **** 
  20:../../libDaisy/src/hid/switch3.h ****     Switch3() {}
  21:../../libDaisy/src/hid/switch3.h ****     ~Switch3() {}
  22:../../libDaisy/src/hid/switch3.h **** 
  23:../../libDaisy/src/hid/switch3.h ****     void Init(dsy_gpio_pin pina, dsy_gpio_pin pinb)
  24:../../libDaisy/src/hid/switch3.h ****     {
  25:../../libDaisy/src/hid/switch3.h ****         pina_gpio_.pin  = pina;
  26:../../libDaisy/src/hid/switch3.h ****         pina_gpio_.mode = DSY_GPIO_MODE_INPUT;
 2435              		.loc 13 26 25 is_stmt 0 view .LVU655
 2436 002a 0025     		movs	r5, #0
 2437              	.LBE315:
 2438              	.LBE314:
 261:main.cpp      **** 
 2439              		.loc 10 261 18 view .LVU656
 2440 002c FFF7FEFF 		bl	_Z13InitializeADCv
 2441              	.LVL177:
 263:main.cpp      ****     bmHigh.Init();
 2442              		.loc 10 263 5 is_stmt 1 view .LVU657
 263:main.cpp      ****     bmHigh.Init();
 2443              		.loc 10 263 14 is_stmt 0 view .LVU658
 2444 0030 7C48     		ldr	r0, .L222+4
 2445 0032 FFF7FEFF 		bl	_ZN6DistBP4InitEv
 2446              	.LVL178:
 264:main.cpp      ****     bmLow.Init();
 2447              		.loc 10 264 5 is_stmt 1 view .LVU659
 264:main.cpp      ****     bmLow.Init();
 2448              		.loc 10 264 16 is_stmt 0 view .LVU660
 2449 0036 7C48     		ldr	r0, .L222+8
 2450 0038 FFF7FEFF 		bl	_ZN6BMhigh4InitEv
 2451              	.LVL179:
 265:main.cpp      **** 
 2452              		.loc 10 265 5 is_stmt 1 view .LVU661
 265:main.cpp      **** 
 2453              		.loc 10 265 15 is_stmt 0 view .LVU662
 2454 003c 7B48     		ldr	r0, .L222+12
 2455 003e FFF7FEFF 		bl	_ZN5BMlow4InitEv
 2456              	.LVL180:
ARM GAS  C:\Users\galla\AppData\Local\Temp\ccVNmTCK.s 			page 73


 267:main.cpp      ****     stage1.setParams(20, 300, 0.707);//0.707
 2457              		.loc 10 267 5 is_stmt 1 view .LVU663
 267:main.cpp      ****     stage1.setParams(20, 300, 0.707);//0.707
 2458              		.loc 10 267 16 is_stmt 0 view .LVU664
 2459 0042 7B48     		ldr	r0, .L222+16
 2460 0044 FFF7FEFF 		bl	_ZN6PeakEQ4InitEv
 2461              	.LVL181:
 268:main.cpp      ****     stage1.setGain(-7);
 2462              		.loc 10 268 5 is_stmt 1 view .LVU665
 268:main.cpp      ****     stage1.setGain(-7);
 2463              		.loc 10 268 21 is_stmt 0 view .LVU666
 2464 0048 9FED7A1A 		vldr.32	s2, .L222+20
 2465 004c DFED7A0A 		vldr.32	s1, .L222+24
 2466 0050 B3EE040A 		vmov.f32	s0, #2.0e+1
 2467 0054 7648     		ldr	r0, .L222+16
 2468              	.LBB318:
 2469              	.LBB316:
  25:../../libDaisy/src/hid/switch3.h ****         pina_gpio_.mode = DSY_GPIO_MODE_INPUT;
 2470              		.loc 13 25 25 view .LVU667
 2471 0056 0627     		movs	r7, #6
 2472              	.LBE316:
 2473              	.LBE318:
 268:main.cpp      ****     stage1.setGain(-7);
 2474              		.loc 10 268 21 view .LVU668
 2475 0058 FFF7FEFF 		bl	_ZN6PeakEQ9setParamsEfff
 2476              	.LVL182:
 269:main.cpp      **** 
 2477              		.loc 10 269 5 is_stmt 1 view .LVU669
 269:main.cpp      **** 
 2478              		.loc 10 269 19 is_stmt 0 view .LVU670
 2479 005c B9EE0C0A 		vmov.f32	s0, #-7.0e+0
 2480 0060 7348     		ldr	r0, .L222+16
 2481 0062 FFF7FEFF 		bl	_ZN6PeakEQ7setGainEf
 2482              	.LVL183:
 271:main.cpp      ****     stage2.setParams(72, 300, 1.293);//1.707
 2483              		.loc 10 271 5 is_stmt 1 view .LVU671
 271:main.cpp      ****     stage2.setParams(72, 300, 1.293);//1.707
 2484              		.loc 10 271 16 is_stmt 0 view .LVU672
 2485 0066 7548     		ldr	r0, .L222+28
 2486 0068 FFF7FEFF 		bl	_ZN6PeakEQ4InitEv
 2487              	.LVL184:
 272:main.cpp      **** 
 2488              		.loc 10 272 5 is_stmt 1 view .LVU673
 272:main.cpp      **** 
 2489              		.loc 10 272 21 is_stmt 0 view .LVU674
 2490 006c 9FED741A 		vldr.32	s2, .L222+32
 2491 0070 DFED710A 		vldr.32	s1, .L222+24
 2492 0074 9FED730A 		vldr.32	s0, .L222+36
 2493 0078 7048     		ldr	r0, .L222+28
 2494 007a FFF7FEFF 		bl	_ZN6PeakEQ9setParamsEfff
 2495              	.LVL185:
 274:main.cpp      ****     stage3.setParams(220, 300, 0.707);//1
 2496              		.loc 10 274 5 is_stmt 1 view .LVU675
 274:main.cpp      ****     stage3.setParams(220, 300, 0.707);//1
 2497              		.loc 10 274 16 is_stmt 0 view .LVU676
 2498 007e 7248     		ldr	r0, .L222+40
 2499 0080 FFF7FEFF 		bl	_ZN6PeakEQ4InitEv
ARM GAS  C:\Users\galla\AppData\Local\Temp\ccVNmTCK.s 			page 74


 2500              	.LVL186:
 275:main.cpp      **** 
 2501              		.loc 10 275 5 is_stmt 1 view .LVU677
 275:main.cpp      **** 
 2502              		.loc 10 275 21 is_stmt 0 view .LVU678
 2503 0084 9FED6B1A 		vldr.32	s2, .L222+20
 2504 0088 DFED6B0A 		vldr.32	s1, .L222+24
 2505 008c 9FED6F0A 		vldr.32	s0, .L222+44
 2506 0090 6D48     		ldr	r0, .L222+40
 2507 0092 FFF7FEFF 		bl	_ZN6PeakEQ9setParamsEfff
 2508              	.LVL187:
 277:main.cpp      ****     stage4.setParams(1000, 300, 1.707);//1.707
 2509              		.loc 10 277 5 is_stmt 1 view .LVU679
 277:main.cpp      ****     stage4.setParams(1000, 300, 1.707);//1.707
 2510              		.loc 10 277 16 is_stmt 0 view .LVU680
 2511 0096 6E48     		ldr	r0, .L222+48
 2512 0098 FFF7FEFF 		bl	_ZN6PeakEQ4InitEv
 2513              	.LVL188:
 278:main.cpp      **** 
 2514              		.loc 10 278 5 is_stmt 1 view .LVU681
 278:main.cpp      **** 
 2515              		.loc 10 278 21 is_stmt 0 view .LVU682
 2516 009c 9FED6D1A 		vldr.32	s2, .L222+52
 2517 00a0 DFED650A 		vldr.32	s1, .L222+24
 2518 00a4 9FED6C0A 		vldr.32	s0, .L222+56
 2519 00a8 6948     		ldr	r0, .L222+48
 2520 00aa FFF7FEFF 		bl	_ZN6PeakEQ9setParamsEfff
 2521              	.LVL189:
 280:main.cpp      ****     stage5.setParams(1500, 300, 1.707);//1.707
 2522              		.loc 10 280 5 is_stmt 1 view .LVU683
 280:main.cpp      ****     stage5.setParams(1500, 300, 1.707);//1.707
 2523              		.loc 10 280 16 is_stmt 0 view .LVU684
 2524 00ae 6B48     		ldr	r0, .L222+60
 2525 00b0 FFF7FEFF 		bl	_ZN6PeakEQ4InitEv
 2526              	.LVL190:
 281:main.cpp      **** 
 2527              		.loc 10 281 5 is_stmt 1 view .LVU685
 281:main.cpp      **** 
 2528              		.loc 10 281 21 is_stmt 0 view .LVU686
 2529 00b4 9FED671A 		vldr.32	s2, .L222+52
 2530 00b8 DFED5F0A 		vldr.32	s1, .L222+24
 2531 00bc 9FED680A 		vldr.32	s0, .L222+64
 2532 00c0 6648     		ldr	r0, .L222+60
 2533 00c2 FFF7FEFF 		bl	_ZN6PeakEQ9setParamsEfff
 2534              	.LVL191:
 283:main.cpp      ****     tsHP.Init();
 2535              		.loc 10 283 5 is_stmt 1 view .LVU687
 283:main.cpp      ****     tsHP.Init();
 2536              		.loc 10 283 16 is_stmt 0 view .LVU688
 2537 00c6 6748     		ldr	r0, .L222+68
 2538 00c8 FFF7FEFF 		bl	_ZN6TSTone4InitEv
 2539              	.LVL192:
 284:main.cpp      **** 
 2540              		.loc 10 284 5 is_stmt 1 view .LVU689
 284:main.cpp      **** 
 2541              		.loc 10 284 14 is_stmt 0 view .LVU690
 2542 00cc 6648     		ldr	r0, .L222+72
ARM GAS  C:\Users\galla\AppData\Local\Temp\ccVNmTCK.s 			page 75


 2543 00ce FFF7FEFF 		bl	_ZN6DistHP4InitEv
 2544              	.LVL193:
 286:main.cpp      ****     momentary.Init(seed::D0, 1000);
 2545              		.loc 10 286 5 is_stmt 1 view .LVU691
 2546              	.LBB319:
 2547              	.LBI319:
 2548              		.file 14 "../../libDaisy/src/hid/switch.h"
   1:../../libDaisy/src/hid/switch.h **** #pragma once
   2:../../libDaisy/src/hid/switch.h **** #ifndef DSY_SWITCH_H
   3:../../libDaisy/src/hid/switch.h **** #define DSY_SWITCH_H
   4:../../libDaisy/src/hid/switch.h **** #include "daisy_core.h"
   5:../../libDaisy/src/hid/switch.h **** #include "per/gpio.h"
   6:../../libDaisy/src/hid/switch.h **** #include "sys/system.h"
   7:../../libDaisy/src/hid/switch.h **** 
   8:../../libDaisy/src/hid/switch.h **** namespace daisy
   9:../../libDaisy/src/hid/switch.h **** {
  10:../../libDaisy/src/hid/switch.h **** /** 
  11:../../libDaisy/src/hid/switch.h ****     Generic Class for handling momentary/latching switches \n 
  12:../../libDaisy/src/hid/switch.h ****     Inspired/influenced by Mutable Instruments (pichenettes) Switch classes
  13:../../libDaisy/src/hid/switch.h ****     @author Stephen Hensley
  14:../../libDaisy/src/hid/switch.h ****     @date December 2019
  15:../../libDaisy/src/hid/switch.h ****     @ingroup controls
  16:../../libDaisy/src/hid/switch.h **** */
  17:../../libDaisy/src/hid/switch.h **** class Switch
  18:../../libDaisy/src/hid/switch.h **** {
  19:../../libDaisy/src/hid/switch.h ****   public:
  20:../../libDaisy/src/hid/switch.h ****     /** Specifies the expected behavior of the switch */
  21:../../libDaisy/src/hid/switch.h ****     enum Type
  22:../../libDaisy/src/hid/switch.h ****     {
  23:../../libDaisy/src/hid/switch.h ****         TYPE_TOGGLE,    /**< & */
  24:../../libDaisy/src/hid/switch.h ****         TYPE_MOMENTARY, /**< & */
  25:../../libDaisy/src/hid/switch.h ****     };
  26:../../libDaisy/src/hid/switch.h ****     /** Specifies whether the pressed is HIGH or LOW. */
  27:../../libDaisy/src/hid/switch.h ****     enum Polarity
  28:../../libDaisy/src/hid/switch.h ****     {
  29:../../libDaisy/src/hid/switch.h ****         POLARITY_NORMAL,   /**< & */
  30:../../libDaisy/src/hid/switch.h ****         POLARITY_INVERTED, /**< & */
  31:../../libDaisy/src/hid/switch.h ****     };
  32:../../libDaisy/src/hid/switch.h **** 
  33:../../libDaisy/src/hid/switch.h ****     /** Specifies whether to use built-in Pull Up/Down resistors to hold button at a given state wh
  34:../../libDaisy/src/hid/switch.h ****     enum Pull
  35:../../libDaisy/src/hid/switch.h ****     {
  36:../../libDaisy/src/hid/switch.h ****         PULL_UP,   /**< & */
  37:../../libDaisy/src/hid/switch.h ****         PULL_DOWN, /**< & */
  38:../../libDaisy/src/hid/switch.h ****         PULL_NONE, /**< & */
  39:../../libDaisy/src/hid/switch.h ****     };
  40:../../libDaisy/src/hid/switch.h **** 
  41:../../libDaisy/src/hid/switch.h ****     Switch() {}
 2549              		.loc 14 41 5 view .LVU692
 2550              		.loc 14 41 5 is_stmt 0 view .LVU693
 2551              	.LBE319:
 287:main.cpp      **** 
 2552              		.loc 10 287 5 is_stmt 1 view .LVU694
 287:main.cpp      **** 
 2553              		.loc 10 287 19 is_stmt 0 view .LVU695
 2554 00d2 0C23     		movs	r3, #12
 2555 00d4 8DF80860 		strb	r6, [sp, #8]
ARM GAS  C:\Users\galla\AppData\Local\Temp\ccVNmTCK.s 			page 76


 2556 00d8 06A8     		add	r0, sp, #24
 2557 00da 8DF80930 		strb	r3, [sp, #9]
 2558 00de 9FED5E0A 		vldr.32	s0, .L222+56
 2559 00e2 0299     		ldr	r1, [sp, #8]
 2560 00e4 FFF7FEFF 		bl	_ZN5daisy6Switch4InitE12dsy_gpio_pinf
 2561              	.LVL194:
 289:main.cpp      ****     latching.Init(seed::D1); // FOR LATCHING SWITCHES
 2562              		.loc 10 289 5 is_stmt 1 view .LVU696
 2563              	.LBB320:
 2564              	.LBI320:
 2565              		.loc 14 41 5 view .LVU697
 2566              		.loc 14 41 5 is_stmt 0 view .LVU698
 2567              	.LBE320:
 2568              		.loc 10 290 5 is_stmt 1 view .LVU699
 2569              		.loc 10 290 18 is_stmt 0 view .LVU700
 2570 00e8 8DF80D40 		strb	r4, [sp, #13]
 2571 00ec 8DF80C80 		strb	r8, [sp, #12]
 2572 00f0 0AA8     		add	r0, sp, #40
 2573 00f2 9FED5E0A 		vldr.32	s0, .L222+76
 2574 00f6 0399     		ldr	r1, [sp, #12]
 2575 00f8 FFF7FEFF 		bl	_ZN5daisy6Switch4InitE12dsy_gpio_pinf
 2576              	.LVL195:
 291:main.cpp      **** 
 292:main.cpp      ****     Switch3 toggle;
 2577              		.loc 10 292 5 is_stmt 1 view .LVU701
 2578              	.LBB321:
 2579              	.LBI321:
  20:../../libDaisy/src/hid/switch3.h ****     ~Switch3() {}
 2580              		.loc 13 20 5 view .LVU702
  20:../../libDaisy/src/hid/switch3.h ****     ~Switch3() {}
 2581              		.loc 13 20 5 is_stmt 0 view .LVU703
 2582              	.LBE321:
 293:main.cpp      ****     toggle.Init(seed::D7, seed::D8);
 2583              		.loc 10 293 5 is_stmt 1 view .LVU704
 2584              	.LBB322:
 2585              	.LBI314:
  23:../../libDaisy/src/hid/switch3.h ****     {
 2586              		.loc 13 23 10 view .LVU705
 2587              	.LBB317:
  25:../../libDaisy/src/hid/switch3.h ****         pina_gpio_.mode = DSY_GPIO_MODE_INPUT;
 2588              		.loc 13 25 9 view .LVU706
  25:../../libDaisy/src/hid/switch3.h ****         pina_gpio_.mode = DSY_GPIO_MODE_INPUT;
 2589              		.loc 13 25 25 is_stmt 0 view .LVU707
 2590 00fc 0A23     		movs	r3, #10
  27:../../libDaisy/src/hid/switch3.h ****         pina_gpio_.pull = DSY_GPIO_PULLUP;
  28:../../libDaisy/src/hid/switch3.h ****         dsy_gpio_init(&pina_gpio_);
 2591              		.loc 13 28 22 view .LVU708
 2592 00fe 04A8     		add	r0, sp, #16
 2593              	.LVL196:
  27:../../libDaisy/src/hid/switch3.h ****         pina_gpio_.pull = DSY_GPIO_PULLUP;
 2594              		.loc 13 27 25 view .LVU709
 2595 0100 8DF81360 		strb	r6, [sp, #19]
  25:../../libDaisy/src/hid/switch3.h ****         pina_gpio_.mode = DSY_GPIO_MODE_INPUT;
 2596              		.loc 13 25 25 view .LVU710
 2597 0104 8DF81130 		strb	r3, [sp, #17]
  26:../../libDaisy/src/hid/switch3.h ****         pina_gpio_.pull = DSY_GPIO_PULLUP;
 2598              		.loc 13 26 9 is_stmt 1 view .LVU711
ARM GAS  C:\Users\galla\AppData\Local\Temp\ccVNmTCK.s 			page 77


  27:../../libDaisy/src/hid/switch3.h ****         pina_gpio_.pull = DSY_GPIO_PULLUP;
 2599              		.loc 13 27 9 view .LVU712
 2600              		.loc 13 28 9 view .LVU713
  26:../../libDaisy/src/hid/switch3.h ****         pina_gpio_.pull = DSY_GPIO_PULLUP;
 2601              		.loc 13 26 25 is_stmt 0 view .LVU714
 2602 0108 8DF81250 		strb	r5, [sp, #18]
  25:../../libDaisy/src/hid/switch3.h ****         pina_gpio_.mode = DSY_GPIO_MODE_INPUT;
 2603              		.loc 13 25 25 view .LVU715
 2604 010c 8DF81070 		strb	r7, [sp, #16]
 2605              		.loc 13 28 22 view .LVU716
 2606 0110 FFF7FEFF 		bl	dsy_gpio_init
 2607              	.LVL197:
  29:../../libDaisy/src/hid/switch3.h **** 
  30:../../libDaisy/src/hid/switch3.h ****         pinb_gpio_.pin  = pinb;
 2608              		.loc 13 30 9 is_stmt 1 view .LVU717
  31:../../libDaisy/src/hid/switch3.h ****         pinb_gpio_.mode = DSY_GPIO_MODE_INPUT;
  32:../../libDaisy/src/hid/switch3.h ****         pinb_gpio_.pull = DSY_GPIO_PULLUP;
  33:../../libDaisy/src/hid/switch3.h ****         dsy_gpio_init(&pinb_gpio_);
 2609              		.loc 13 33 22 is_stmt 0 view .LVU718
 2610 0114 05A8     		add	r0, sp, #20
  30:../../libDaisy/src/hid/switch3.h ****         pinb_gpio_.mode = DSY_GPIO_MODE_INPUT;
 2611              		.loc 13 30 25 view .LVU719
 2612 0116 8DF81540 		strb	r4, [sp, #21]
  31:../../libDaisy/src/hid/switch3.h ****         pinb_gpio_.mode = DSY_GPIO_MODE_INPUT;
 2613              		.loc 13 31 9 is_stmt 1 view .LVU720
  30:../../libDaisy/src/hid/switch3.h ****         pinb_gpio_.mode = DSY_GPIO_MODE_INPUT;
 2614              		.loc 13 30 25 is_stmt 0 view .LVU721
 2615 011a 8DF81470 		strb	r7, [sp, #20]
  31:../../libDaisy/src/hid/switch3.h ****         pinb_gpio_.mode = DSY_GPIO_MODE_INPUT;
 2616              		.loc 13 31 25 view .LVU722
 2617 011e 8DF81650 		strb	r5, [sp, #22]
  32:../../libDaisy/src/hid/switch3.h ****         dsy_gpio_init(&pinb_gpio_);
 2618              		.loc 13 32 9 is_stmt 1 view .LVU723
  32:../../libDaisy/src/hid/switch3.h ****         dsy_gpio_init(&pinb_gpio_);
 2619              		.loc 13 32 25 is_stmt 0 view .LVU724
 2620 0122 8DF81760 		strb	r6, [sp, #23]
 2621              		.loc 13 33 9 is_stmt 1 view .LVU725
 2622              		.loc 13 33 22 is_stmt 0 view .LVU726
 2623 0126 FFF7FEFF 		bl	dsy_gpio_init
 2624              	.LVL198:
 2625              		.loc 13 33 22 view .LVU727
 2626              	.LBE317:
 2627              	.LBE322:
 294:main.cpp      **** 
 295:main.cpp      ****     GPIO sw, led;
 2628              		.loc 10 295 5 is_stmt 1 view .LVU728
 2629              	.LBB323:
 2630              	.LBI323:
 2631              		.file 15 "../../libDaisy/src/per/gpio.h"
   1:../../libDaisy/src/per/gpio.h **** #pragma once
   2:../../libDaisy/src/per/gpio.h **** #ifndef DSY_GPIO_H
   3:../../libDaisy/src/per/gpio.h **** #define DSY_GPIO_H
   4:../../libDaisy/src/per/gpio.h **** #include "daisy_core.h"
   5:../../libDaisy/src/per/gpio.h **** 
   6:../../libDaisy/src/per/gpio.h **** #ifdef __cplusplus
   7:../../libDaisy/src/per/gpio.h **** 
   8:../../libDaisy/src/per/gpio.h **** namespace daisy
ARM GAS  C:\Users\galla\AppData\Local\Temp\ccVNmTCK.s 			page 78


   9:../../libDaisy/src/per/gpio.h **** {
  10:../../libDaisy/src/per/gpio.h **** /** @brief General Purpose I/O control 
  11:../../libDaisy/src/per/gpio.h ****  *  @details peripheral control over a single GPIO
  12:../../libDaisy/src/per/gpio.h ****  *  @ingroup peripheral
  13:../../libDaisy/src/per/gpio.h ****  *   
  14:../../libDaisy/src/per/gpio.h ****  *  Button Input (with internal Pullup resistor)
  15:../../libDaisy/src/per/gpio.h ****  *  @include GPIO_Input.cpp 
  16:../../libDaisy/src/per/gpio.h ****  * 
  17:../../libDaisy/src/per/gpio.h ****  *  Output Example (perfect for blinking an LED)
  18:../../libDaisy/src/per/gpio.h ****  *  @include GPIO_Output.cpp
  19:../../libDaisy/src/per/gpio.h ****  * 
  20:../../libDaisy/src/per/gpio.h **** */
  21:../../libDaisy/src/per/gpio.h **** class GPIO
  22:../../libDaisy/src/per/gpio.h **** {
  23:../../libDaisy/src/per/gpio.h ****   public:
  24:../../libDaisy/src/per/gpio.h ****     /** @brief Mode of operation for the specified GPIO */
  25:../../libDaisy/src/per/gpio.h ****     enum class Mode
  26:../../libDaisy/src/per/gpio.h ****     {
  27:../../libDaisy/src/per/gpio.h ****         INPUT,     /**< Input for reading state of pin */
  28:../../libDaisy/src/per/gpio.h ****         OUTPUT,    /**< Output w/ push-pull configuration */
  29:../../libDaisy/src/per/gpio.h ****         OUTPUT_OD, /**< Output w/ open-drain configuration */
  30:../../libDaisy/src/per/gpio.h ****         ANALOG,    /**< Analog for connection to ADC or DAC peripheral */
  31:../../libDaisy/src/per/gpio.h ****     };
  32:../../libDaisy/src/per/gpio.h **** 
  33:../../libDaisy/src/per/gpio.h ****     /** @brief Configures whether an internal Pull up or Pull down resistor is used. 
  34:../../libDaisy/src/per/gpio.h ****      *  
  35:../../libDaisy/src/per/gpio.h ****      * Internal Pull up/down resistors are typically 40k ohms, and will be between
  36:../../libDaisy/src/per/gpio.h ****      * 30k and 50k
  37:../../libDaisy/src/per/gpio.h ****      * 
  38:../../libDaisy/src/per/gpio.h ****      * When the Pin is configured in Analog mode, the pull up/down resistors are
  39:../../libDaisy/src/per/gpio.h ****      * disabled by hardware. 
  40:../../libDaisy/src/per/gpio.h ****      */
  41:../../libDaisy/src/per/gpio.h ****     enum class Pull
  42:../../libDaisy/src/per/gpio.h ****     {
  43:../../libDaisy/src/per/gpio.h ****         NOPULL,   /**< No pull up resistor */
  44:../../libDaisy/src/per/gpio.h ****         PULLUP,   /**< Internal pull up enabled */
  45:../../libDaisy/src/per/gpio.h ****         PULLDOWN, /**< Internal pull down enabled*/
  46:../../libDaisy/src/per/gpio.h ****     };
  47:../../libDaisy/src/per/gpio.h **** 
  48:../../libDaisy/src/per/gpio.h ****     /** @brief Output speed controls the drive strength, and slew rate of the pin */
  49:../../libDaisy/src/per/gpio.h ****     enum class Speed
  50:../../libDaisy/src/per/gpio.h ****     {
  51:../../libDaisy/src/per/gpio.h ****         LOW,
  52:../../libDaisy/src/per/gpio.h ****         MEDIUM,
  53:../../libDaisy/src/per/gpio.h ****         HIGH,
  54:../../libDaisy/src/per/gpio.h ****         VERY_HIGH,
  55:../../libDaisy/src/per/gpio.h ****     };
  56:../../libDaisy/src/per/gpio.h **** 
  57:../../libDaisy/src/per/gpio.h ****     /** @brief Configuration for a given GPIO */
  58:../../libDaisy/src/per/gpio.h ****     struct Config
  59:../../libDaisy/src/per/gpio.h ****     {
  60:../../libDaisy/src/per/gpio.h ****         Pin   pin;
  61:../../libDaisy/src/per/gpio.h ****         Mode  mode;
  62:../../libDaisy/src/per/gpio.h ****         Pull  pull;
  63:../../libDaisy/src/per/gpio.h ****         Speed speed;
  64:../../libDaisy/src/per/gpio.h **** 
  65:../../libDaisy/src/per/gpio.h ****         /** Constructor with no arguments will prepare an invalid GPIO set as
ARM GAS  C:\Users\galla\AppData\Local\Temp\ccVNmTCK.s 			page 79


  66:../../libDaisy/src/per/gpio.h ****          *  an input, with no pullup. 
  67:../../libDaisy/src/per/gpio.h ****          */
  68:../../libDaisy/src/per/gpio.h ****         Config()
  69:../../libDaisy/src/per/gpio.h ****         : pin(), mode(Mode::INPUT), pull(Pull::NOPULL), speed(Speed::LOW)
  70:../../libDaisy/src/per/gpio.h ****         {
  71:../../libDaisy/src/per/gpio.h ****         }
  72:../../libDaisy/src/per/gpio.h ****     };
  73:../../libDaisy/src/per/gpio.h **** 
  74:../../libDaisy/src/per/gpio.h ****     GPIO() {}
 2632              		.loc 15 74 5 view .LVU729
 2633              	.LBB324:
 2634              	.LBB325:
 2635              	.LBI325:
  68:../../libDaisy/src/per/gpio.h ****         : pin(), mode(Mode::INPUT), pull(Pull::NOPULL), speed(Speed::LOW)
 2636              		.loc 15 68 9 view .LVU730
 2637              	.LBB326:
 2638              	.LBB327:
 2639              	.LBB328:
 2640              	.LBI328:
 2641              		.file 16 "../../libDaisy/src/daisy_core.h"
   1:../../libDaisy/src/daisy_core.h **** #pragma once
   2:../../libDaisy/src/daisy_core.h **** #ifndef DSY_CORE_HW_H
   3:../../libDaisy/src/daisy_core.h **** #define DSY_CORE_HW_H /**< & */
   4:../../libDaisy/src/daisy_core.h **** #include <stdint.h>
   5:../../libDaisy/src/daisy_core.h **** #include <stdlib.h>
   6:../../libDaisy/src/daisy_core.h **** 
   7:../../libDaisy/src/daisy_core.h **** #if defined(_MSC_VER)
   8:../../libDaisy/src/daisy_core.h **** #define FORCE_INLINE __forceinline /**< & */
   9:../../libDaisy/src/daisy_core.h **** #elif defined(__clang__)
  10:../../libDaisy/src/daisy_core.h **** #define FORCE_INLINE inline __attribute__((always_inline)) /**< & */
  11:../../libDaisy/src/daisy_core.h **** #pragma clang diagnostic ignored "-Wduplicate-decl-specifier"
  12:../../libDaisy/src/daisy_core.h **** #elif defined(__GNUC__)
  13:../../libDaisy/src/daisy_core.h **** #define FORCE_INLINE inline __attribute__((always_inline)) /**< & */
  14:../../libDaisy/src/daisy_core.h **** #else
  15:../../libDaisy/src/daisy_core.h **** #error unknown compiler
  16:../../libDaisy/src/daisy_core.h **** #endif
  17:../../libDaisy/src/daisy_core.h **** 
  18:../../libDaisy/src/daisy_core.h **** /** @addtogroup utility
  19:../../libDaisy/src/daisy_core.h ****     @{
  20:../../libDaisy/src/daisy_core.h **** */
  21:../../libDaisy/src/daisy_core.h **** 
  22:../../libDaisy/src/daisy_core.h **** /** Macro for area of memory that is configured as cacheless
  23:../../libDaisy/src/daisy_core.h **** This should be used primarily for DMA buffers, and the like.
  24:../../libDaisy/src/daisy_core.h **** */
  25:../../libDaisy/src/daisy_core.h **** #define DMA_BUFFER_MEM_SECTION __attribute__((section(".sram1_bss")))
  26:../../libDaisy/src/daisy_core.h **** /** 
  27:../../libDaisy/src/daisy_core.h **** THE DTCM RAM section is also non-cached. However, is not suitable 
  28:../../libDaisy/src/daisy_core.h **** for DMA transfers. Performance is on par with internal SRAM w/ 
  29:../../libDaisy/src/daisy_core.h **** cache enabled.
  30:../../libDaisy/src/daisy_core.h **** */
  31:../../libDaisy/src/daisy_core.h **** #define DTCM_MEM_SECTION __attribute__((section(".dtcmram_bss")))
  32:../../libDaisy/src/daisy_core.h **** 
  33:../../libDaisy/src/daisy_core.h **** #define FBIPMAX 0.999985f             /**< close to 1.0f-LSB at 16 bit */
  34:../../libDaisy/src/daisy_core.h **** #define FBIPMIN (-FBIPMAX)            /**< - (1 - LSB) */
  35:../../libDaisy/src/daisy_core.h **** #define U82F_SCALE 0.0078740f         /**< 1 / 127 */
  36:../../libDaisy/src/daisy_core.h **** #define F2U8_SCALE 127.0f             /**< 128 - 1 */
  37:../../libDaisy/src/daisy_core.h **** #define S82F_SCALE 0.0078125f         /**< 1 / (2**7) */
ARM GAS  C:\Users\galla\AppData\Local\Temp\ccVNmTCK.s 			page 80


  38:../../libDaisy/src/daisy_core.h **** #define F2S8_SCALE 127.0f             /**< (2 ** 7) - 1 */
  39:../../libDaisy/src/daisy_core.h **** #define S162F_SCALE 3.0517578125e-05f /**< 1 / (2** 15) */
  40:../../libDaisy/src/daisy_core.h **** #define F2S16_SCALE 32767.0f          /**< (2 ** 15) - 1 */
  41:../../libDaisy/src/daisy_core.h **** #define F2S24_SCALE 8388608.0f        /**< 2 ** 23 */
  42:../../libDaisy/src/daisy_core.h **** #define S242F_SCALE 1.192092896e-07f  /**< 1 / (2 ** 23) */
  43:../../libDaisy/src/daisy_core.h **** #define S24SIGN 0x800000              /**< 2 ** 23 */
  44:../../libDaisy/src/daisy_core.h **** #define S322F_SCALE 4.6566129e-10f    /**< 1 / (2** 31) */
  45:../../libDaisy/src/daisy_core.h **** #define F2S32_SCALE 2147483647.f      /**< (2 ** 31) - 1 */
  46:../../libDaisy/src/daisy_core.h **** 
  47:../../libDaisy/src/daisy_core.h **** 
  48:../../libDaisy/src/daisy_core.h **** /** shorthand macro for simplifying the reading of the left 
  49:../../libDaisy/src/daisy_core.h ****  *  channel of a non-interleaved output buffer named out */
  50:../../libDaisy/src/daisy_core.h **** #define OUT_L out[0]
  51:../../libDaisy/src/daisy_core.h **** 
  52:../../libDaisy/src/daisy_core.h **** /** shorthand macro for simplifying the reading of the right 
  53:../../libDaisy/src/daisy_core.h ****  *  channel of a non-interleaved output buffer named out */
  54:../../libDaisy/src/daisy_core.h **** #define OUT_R out[1]
  55:../../libDaisy/src/daisy_core.h **** 
  56:../../libDaisy/src/daisy_core.h **** /** shorthand macro for simplifying the reading of the left 
  57:../../libDaisy/src/daisy_core.h ****  *  channel of a non-interleaved input buffer named in */
  58:../../libDaisy/src/daisy_core.h **** #define IN_L in[0]
  59:../../libDaisy/src/daisy_core.h **** 
  60:../../libDaisy/src/daisy_core.h **** /** shorthand macro for simplifying the reading of the right 
  61:../../libDaisy/src/daisy_core.h ****  *  channel of a non-interleaved input buffer named in */
  62:../../libDaisy/src/daisy_core.h **** #define IN_R in[1]
  63:../../libDaisy/src/daisy_core.h **** 
  64:../../libDaisy/src/daisy_core.h **** /** 
  65:../../libDaisy/src/daisy_core.h ****     Computes cube.
  66:../../libDaisy/src/daisy_core.h ****     \param x Number to be cubed
  67:../../libDaisy/src/daisy_core.h ****     \return x ^ 3
  68:../../libDaisy/src/daisy_core.h **** */
  69:../../libDaisy/src/daisy_core.h **** FORCE_INLINE float cube(float x)
  70:../../libDaisy/src/daisy_core.h **** {
  71:../../libDaisy/src/daisy_core.h ****     return (x * x) * x;
  72:../../libDaisy/src/daisy_core.h **** }
  73:../../libDaisy/src/daisy_core.h **** 
  74:../../libDaisy/src/daisy_core.h **** /** 
  75:../../libDaisy/src/daisy_core.h ****     Converts unsigned 8-bit to float
  76:../../libDaisy/src/daisy_core.h ****     \param x Number to be scaled.
  77:../../libDaisy/src/daisy_core.h ****     \return Scaled number.
  78:../../libDaisy/src/daisy_core.h **** */
  79:../../libDaisy/src/daisy_core.h **** FORCE_INLINE float u82f(uint8_t x)
  80:../../libDaisy/src/daisy_core.h **** {
  81:../../libDaisy/src/daisy_core.h ****     return ((float)x - 127.f) * U82F_SCALE;
  82:../../libDaisy/src/daisy_core.h **** }
  83:../../libDaisy/src/daisy_core.h **** 
  84:../../libDaisy/src/daisy_core.h **** /**
  85:../../libDaisy/src/daisy_core.h ****     Converts float to unsigned 8-bit
  86:../../libDaisy/src/daisy_core.h **** */
  87:../../libDaisy/src/daisy_core.h **** FORCE_INLINE uint8_t f2u8(float x)
  88:../../libDaisy/src/daisy_core.h **** {
  89:../../libDaisy/src/daisy_core.h ****     x = x <= FBIPMIN ? FBIPMIN : x;
  90:../../libDaisy/src/daisy_core.h ****     x = x >= FBIPMAX ? FBIPMAX : x;
  91:../../libDaisy/src/daisy_core.h ****     return (uint8_t)((x * F2U8_SCALE) + F2U8_SCALE);
  92:../../libDaisy/src/daisy_core.h **** }
  93:../../libDaisy/src/daisy_core.h **** 
  94:../../libDaisy/src/daisy_core.h **** 
ARM GAS  C:\Users\galla\AppData\Local\Temp\ccVNmTCK.s 			page 81


  95:../../libDaisy/src/daisy_core.h **** /** 
  96:../../libDaisy/src/daisy_core.h ****     Converts Signed 8-bit to float
  97:../../libDaisy/src/daisy_core.h ****     \param x Number to be scaled.
  98:../../libDaisy/src/daisy_core.h ****     \return Scaled number.
  99:../../libDaisy/src/daisy_core.h **** */
 100:../../libDaisy/src/daisy_core.h **** FORCE_INLINE float s82f(int8_t x)
 101:../../libDaisy/src/daisy_core.h **** {
 102:../../libDaisy/src/daisy_core.h ****     return (float)x * S82F_SCALE;
 103:../../libDaisy/src/daisy_core.h **** }
 104:../../libDaisy/src/daisy_core.h **** 
 105:../../libDaisy/src/daisy_core.h **** /**
 106:../../libDaisy/src/daisy_core.h ****     Converts float to Signed 8-bit
 107:../../libDaisy/src/daisy_core.h **** */
 108:../../libDaisy/src/daisy_core.h **** FORCE_INLINE int8_t f2s8(float x)
 109:../../libDaisy/src/daisy_core.h **** {
 110:../../libDaisy/src/daisy_core.h ****     x = x <= FBIPMIN ? FBIPMIN : x;
 111:../../libDaisy/src/daisy_core.h ****     x = x >= FBIPMAX ? FBIPMAX : x;
 112:../../libDaisy/src/daisy_core.h ****     return (int32_t)(x * F2S8_SCALE);
 113:../../libDaisy/src/daisy_core.h **** }
 114:../../libDaisy/src/daisy_core.h **** 
 115:../../libDaisy/src/daisy_core.h **** /** 
 116:../../libDaisy/src/daisy_core.h ****     Converts Signed 16-bit to float
 117:../../libDaisy/src/daisy_core.h ****     \param x Number to be scaled.
 118:../../libDaisy/src/daisy_core.h ****     \return Scaled number.
 119:../../libDaisy/src/daisy_core.h **** */
 120:../../libDaisy/src/daisy_core.h **** FORCE_INLINE float s162f(int16_t x)
 121:../../libDaisy/src/daisy_core.h **** {
 122:../../libDaisy/src/daisy_core.h ****     return (float)x * S162F_SCALE;
 123:../../libDaisy/src/daisy_core.h **** }
 124:../../libDaisy/src/daisy_core.h **** 
 125:../../libDaisy/src/daisy_core.h **** /**
 126:../../libDaisy/src/daisy_core.h ****     Converts float to Signed 16-bit
 127:../../libDaisy/src/daisy_core.h **** */
 128:../../libDaisy/src/daisy_core.h **** FORCE_INLINE int16_t f2s16(float x)
 129:../../libDaisy/src/daisy_core.h **** {
 130:../../libDaisy/src/daisy_core.h ****     x = x <= FBIPMIN ? FBIPMIN : x;
 131:../../libDaisy/src/daisy_core.h ****     x = x >= FBIPMAX ? FBIPMAX : x;
 132:../../libDaisy/src/daisy_core.h ****     return (int32_t)(x * F2S16_SCALE);
 133:../../libDaisy/src/daisy_core.h **** }
 134:../../libDaisy/src/daisy_core.h **** 
 135:../../libDaisy/src/daisy_core.h **** /**
 136:../../libDaisy/src/daisy_core.h ****     Converts Signed 24-bit to float
 137:../../libDaisy/src/daisy_core.h ****  */
 138:../../libDaisy/src/daisy_core.h **** FORCE_INLINE float s242f(int32_t x)
 139:../../libDaisy/src/daisy_core.h **** {
 140:../../libDaisy/src/daisy_core.h ****     x = (x ^ S24SIGN) - S24SIGN; //sign extend aka ((x<<8)>>8)
 141:../../libDaisy/src/daisy_core.h ****     return (float)x * S242F_SCALE;
 142:../../libDaisy/src/daisy_core.h **** }
 143:../../libDaisy/src/daisy_core.h **** /**
 144:../../libDaisy/src/daisy_core.h ****     Converts float to Signed 24-bit
 145:../../libDaisy/src/daisy_core.h ****  */
 146:../../libDaisy/src/daisy_core.h **** FORCE_INLINE int32_t f2s24(float x)
 147:../../libDaisy/src/daisy_core.h **** {
 148:../../libDaisy/src/daisy_core.h ****     x = x <= FBIPMIN ? FBIPMIN : x;
 149:../../libDaisy/src/daisy_core.h ****     x = x >= FBIPMAX ? FBIPMAX : x;
 150:../../libDaisy/src/daisy_core.h ****     return (int32_t)(x * F2S24_SCALE);
 151:../../libDaisy/src/daisy_core.h **** }
ARM GAS  C:\Users\galla\AppData\Local\Temp\ccVNmTCK.s 			page 82


 152:../../libDaisy/src/daisy_core.h **** 
 153:../../libDaisy/src/daisy_core.h **** /**
 154:../../libDaisy/src/daisy_core.h ****     Converts Signed 32-bit to float
 155:../../libDaisy/src/daisy_core.h ****  */
 156:../../libDaisy/src/daisy_core.h **** FORCE_INLINE float s322f(int32_t x)
 157:../../libDaisy/src/daisy_core.h **** {
 158:../../libDaisy/src/daisy_core.h ****     return (float)x * S322F_SCALE;
 159:../../libDaisy/src/daisy_core.h **** }
 160:../../libDaisy/src/daisy_core.h **** /**
 161:../../libDaisy/src/daisy_core.h ****     Converts float to Signed 24-bit
 162:../../libDaisy/src/daisy_core.h ****  */
 163:../../libDaisy/src/daisy_core.h **** FORCE_INLINE int32_t f2s32(float x)
 164:../../libDaisy/src/daisy_core.h **** {
 165:../../libDaisy/src/daisy_core.h ****     x = x <= FBIPMIN ? FBIPMIN : x;
 166:../../libDaisy/src/daisy_core.h ****     x = x >= FBIPMAX ? FBIPMAX : x;
 167:../../libDaisy/src/daisy_core.h ****     return (int32_t)(x * F2S32_SCALE);
 168:../../libDaisy/src/daisy_core.h **** }
 169:../../libDaisy/src/daisy_core.h **** 
 170:../../libDaisy/src/daisy_core.h **** 
 171:../../libDaisy/src/daisy_core.h **** /** Enums and a simple struct for defining a hardware pin on the MCU
 172:../../libDaisy/src/daisy_core.h ****  *  These correlate with the stm32 datasheet, and are used to configure
 173:../../libDaisy/src/daisy_core.h ****  *  the hardware.
 174:../../libDaisy/src/daisy_core.h ****  * 
 175:../../libDaisy/src/daisy_core.h ****  *  This along with the dsy_gpio_pin class should no longer be used.
 176:../../libDaisy/src/daisy_core.h ****  *  They are available for backwards compatability. 
 177:../../libDaisy/src/daisy_core.h ****  * 
 178:../../libDaisy/src/daisy_core.h ****  *  Please use GPIOPort enum and the Pin struct instead.
 179:../../libDaisy/src/daisy_core.h ****  */
 180:../../libDaisy/src/daisy_core.h **** typedef enum
 181:../../libDaisy/src/daisy_core.h **** {
 182:../../libDaisy/src/daisy_core.h ****     DSY_GPIOA, /**< & */
 183:../../libDaisy/src/daisy_core.h ****     DSY_GPIOB, /**< & */
 184:../../libDaisy/src/daisy_core.h ****     DSY_GPIOC, /**< & */
 185:../../libDaisy/src/daisy_core.h ****     DSY_GPIOD, /**< & */
 186:../../libDaisy/src/daisy_core.h ****     DSY_GPIOE, /**< & */
 187:../../libDaisy/src/daisy_core.h ****     DSY_GPIOF, /**< & */
 188:../../libDaisy/src/daisy_core.h ****     DSY_GPIOG, /**< & */
 189:../../libDaisy/src/daisy_core.h ****     DSY_GPIOH, /**< & */
 190:../../libDaisy/src/daisy_core.h ****     DSY_GPIOI, /**< & */
 191:../../libDaisy/src/daisy_core.h ****     DSY_GPIOJ, /**< & */
 192:../../libDaisy/src/daisy_core.h ****     DSY_GPIOK, /**< & */
 193:../../libDaisy/src/daisy_core.h ****     DSY_GPIOX, /** This is a non-existant port for unsupported bits of hardware. */
 194:../../libDaisy/src/daisy_core.h ****     DSY_GPIO_LAST, /** Final enum member */
 195:../../libDaisy/src/daisy_core.h **** } dsy_gpio_port;
 196:../../libDaisy/src/daisy_core.h **** 
 197:../../libDaisy/src/daisy_core.h **** /** Hardware define pins 
 198:../../libDaisy/src/daisy_core.h ****  *  
 199:../../libDaisy/src/daisy_core.h ****  *  The dsy_gpio_pin struct should no longer be used, and is only available for
 200:../../libDaisy/src/daisy_core.h ****  *  backwards compatability.
 201:../../libDaisy/src/daisy_core.h ****  * 
 202:../../libDaisy/src/daisy_core.h ****  *  Please use Pin struct instead.
 203:../../libDaisy/src/daisy_core.h ****  */
 204:../../libDaisy/src/daisy_core.h **** typedef struct
 205:../../libDaisy/src/daisy_core.h **** {
 206:../../libDaisy/src/daisy_core.h ****     dsy_gpio_port port; /**< & */
 207:../../libDaisy/src/daisy_core.h ****     uint8_t       pin;  /**< number 0-15 */
 208:../../libDaisy/src/daisy_core.h **** } dsy_gpio_pin;
ARM GAS  C:\Users\galla\AppData\Local\Temp\ccVNmTCK.s 			page 83


 209:../../libDaisy/src/daisy_core.h **** 
 210:../../libDaisy/src/daisy_core.h **** /** Helper for creating pins from port/pin combos easily
 211:../../libDaisy/src/daisy_core.h ****  * 
 212:../../libDaisy/src/daisy_core.h ****  *  The dsy_gpio_pin struct should no longer be used, and is only available for
 213:../../libDaisy/src/daisy_core.h ****  *  backwards compatability.
 214:../../libDaisy/src/daisy_core.h ****  * 
 215:../../libDaisy/src/daisy_core.h ****  *  Please use Pin struct instead.
 216:../../libDaisy/src/daisy_core.h **** */
 217:../../libDaisy/src/daisy_core.h **** FORCE_INLINE dsy_gpio_pin dsy_pin(dsy_gpio_port port, uint8_t pin)
 218:../../libDaisy/src/daisy_core.h **** {
 219:../../libDaisy/src/daisy_core.h ****     dsy_gpio_pin p;
 220:../../libDaisy/src/daisy_core.h ****     p.port = port;
 221:../../libDaisy/src/daisy_core.h ****     p.pin  = pin;
 222:../../libDaisy/src/daisy_core.h ****     return p;
 223:../../libDaisy/src/daisy_core.h **** }
 224:../../libDaisy/src/daisy_core.h **** 
 225:../../libDaisy/src/daisy_core.h **** /** Helper for testing sameness of two dsy_gpio_pins
 226:../../libDaisy/src/daisy_core.h ****  *  \return    1 if same, 0 if different
 227:../../libDaisy/src/daisy_core.h ****  * 
 228:../../libDaisy/src/daisy_core.h ****  *  The dsy_gpio_pin struct should no longer be used, and is only available for
 229:../../libDaisy/src/daisy_core.h ****  *  backwards compatability.
 230:../../libDaisy/src/daisy_core.h ****  * 
 231:../../libDaisy/src/daisy_core.h ****  *  Please use Pin struct instead.
 232:../../libDaisy/src/daisy_core.h ****  */
 233:../../libDaisy/src/daisy_core.h **** FORCE_INLINE uint8_t dsy_pin_cmp(dsy_gpio_pin *a, dsy_gpio_pin *b)
 234:../../libDaisy/src/daisy_core.h **** {
 235:../../libDaisy/src/daisy_core.h ****     return ((a->port == b->port) && (a->pin == b->pin));
 236:../../libDaisy/src/daisy_core.h **** }
 237:../../libDaisy/src/daisy_core.h **** 
 238:../../libDaisy/src/daisy_core.h **** #ifdef __cplusplus
 239:../../libDaisy/src/daisy_core.h **** 
 240:../../libDaisy/src/daisy_core.h **** namespace daisy
 241:../../libDaisy/src/daisy_core.h **** {
 242:../../libDaisy/src/daisy_core.h **** /** @brief GPIO Port names */
 243:../../libDaisy/src/daisy_core.h **** enum GPIOPort
 244:../../libDaisy/src/daisy_core.h **** {
 245:../../libDaisy/src/daisy_core.h ****     PORTA, /**< Port A */
 246:../../libDaisy/src/daisy_core.h ****     PORTB, /**< Port B */
 247:../../libDaisy/src/daisy_core.h ****     PORTC, /**< Port C */
 248:../../libDaisy/src/daisy_core.h ****     PORTD, /**< Port D */
 249:../../libDaisy/src/daisy_core.h ****     PORTE, /**< Port E */
 250:../../libDaisy/src/daisy_core.h ****     PORTF, /**< Port F */
 251:../../libDaisy/src/daisy_core.h ****     PORTG, /**< Port G */
 252:../../libDaisy/src/daisy_core.h ****     PORTH, /**< Port H */
 253:../../libDaisy/src/daisy_core.h ****     PORTI, /**< Port I */
 254:../../libDaisy/src/daisy_core.h ****     PORTJ, /**< Port J */
 255:../../libDaisy/src/daisy_core.h ****     PORTK, /**< Port K */
 256:../../libDaisy/src/daisy_core.h ****     PORTX, /**< Used as a dummy port to signal an invalid pin. */
 257:../../libDaisy/src/daisy_core.h **** };
 258:../../libDaisy/src/daisy_core.h **** 
 259:../../libDaisy/src/daisy_core.h **** /** @brief representation of hardware port/pin combination */
 260:../../libDaisy/src/daisy_core.h **** struct Pin
 261:../../libDaisy/src/daisy_core.h **** {
 262:../../libDaisy/src/daisy_core.h ****     GPIOPort port;
 263:../../libDaisy/src/daisy_core.h ****     uint8_t  pin;
 264:../../libDaisy/src/daisy_core.h **** 
 265:../../libDaisy/src/daisy_core.h ****     /** @brief Constructor creates a valid pin. 
ARM GAS  C:\Users\galla\AppData\Local\Temp\ccVNmTCK.s 			page 84


 266:../../libDaisy/src/daisy_core.h ****      *  @param pt GPIOPort between PA, and PK corresponding to STM32 Port.
 267:../../libDaisy/src/daisy_core.h ****      *  @param pn pin number in range of 0-15
 268:../../libDaisy/src/daisy_core.h ****     */
 269:../../libDaisy/src/daisy_core.h ****     constexpr Pin(const GPIOPort pt, const uint8_t pn) : port(pt), pin(pn) {}
 270:../../libDaisy/src/daisy_core.h **** 
 271:../../libDaisy/src/daisy_core.h ****     /** @brief Basic Constructor creates an invalid Pin object */
 272:../../libDaisy/src/daisy_core.h ****     constexpr Pin() : port(PORTX), pin(255) {}
 2642              		.loc 16 272 15 view .LVU731
 2643              		.loc 16 272 15 is_stmt 0 view .LVU732
 2644              	.LBE328:
 2645              	.LBE327:
 2646              	.LBE326:
 2647              	.LBE325:
 2648              	.LBE324:
 2649              	.LBE323:
 296:main.cpp      ****     sw.Init(seed::D2, GPIO::Mode::OUTPUT);
 2650              		.loc 10 296 12 view .LVU733
 2651 012a 514B     		ldr	r3, .L222+80
 2652 012c 3246     		mov	r2, r6
 2653 012e 0EA8     		add	r0, sp, #56
 2654              	.LVL199:
 2655              		.loc 10 296 12 view .LVU734
 2656 0130 0095     		str	r5, [sp]
 2657 0132 1968     		ldr	r1, [r3]
 2658              	.LBB338:
 2659              	.LBB335:
 2660              		.loc 15 74 12 view .LVU735
 2661 0134 4FF60B73 		movw	r3, #65291
 2662              	.LBB333:
 2663              	.LBB331:
 2664              	.LBB329:
  69:../../libDaisy/src/per/gpio.h ****         {
 2665              		.loc 15 69 73 view .LVU736
 2666 0138 1195     		str	r5, [sp, #68]
 2667              	.LVL200:
  69:../../libDaisy/src/per/gpio.h ****         {
 2668              		.loc 15 69 73 view .LVU737
 2669              	.LBE329:
 2670              	.LBE331:
 2671              	.LBE333:
 2672              	.LBE335:
 2673              	.LBE338:
 2674              	.LBB339:
 2675              	.LBI339:
 2676              		.loc 15 74 5 is_stmt 1 view .LVU738
 2677              	.LBB340:
 2678              	.LBB341:
 2679              	.LBI341:
  68:../../libDaisy/src/per/gpio.h ****         : pin(), mode(Mode::INPUT), pull(Pull::NOPULL), speed(Speed::LOW)
 2680              		.loc 15 68 9 view .LVU739
 2681              	.LBB342:
 2682              	.LBB343:
 2683              	.LBB344:
 2684              	.LBI344:
 2685              		.loc 16 272 15 view .LVU740
 2686              		.loc 16 272 15 is_stmt 0 view .LVU741
 2687              	.LBE344:
ARM GAS  C:\Users\galla\AppData\Local\Temp\ccVNmTCK.s 			page 85


 2688              	.LBE343:
 2689              	.LBE342:
 2690              	.LBE341:
 2691              	.LBE340:
 2692              	.LBE339:
 2693              	.LBB354:
 2694              	.LBB336:
 2695              		.loc 15 74 12 view .LVU742
 2696 013a 0E93     		str	r3, [sp, #56]
 2697              	.LBE336:
 2698              	.LBE354:
 2699              	.LBB355:
 2700              	.LBB351:
 2701 013c 1393     		str	r3, [sp, #76]
 2702              	.LBE351:
 2703              	.LBE355:
 2704              		.loc 10 296 12 view .LVU743
 2705 013e 2B46     		mov	r3, r5
 2706              	.LBB356:
 2707              	.LBB352:
 2708              	.LBB349:
 2709              	.LBB347:
 2710              	.LBB345:
  69:../../libDaisy/src/per/gpio.h ****         {
 2711              		.loc 15 69 73 view .LVU744
 2712 0140 1695     		str	r5, [sp, #88]
 2713              	.LVL201:
  69:../../libDaisy/src/per/gpio.h ****         {
 2714              		.loc 15 69 73 view .LVU745
 2715              	.LBE345:
 2716              	.LBE347:
 2717              	.LBE349:
 2718              	.LBE352:
 2719              	.LBE356:
 2720              		.loc 10 296 5 is_stmt 1 view .LVU746
 297:main.cpp      ****     led.Init(seed::D5, GPIO::Mode::OUTPUT);
 298:main.cpp      **** 
 299:main.cpp      ****     sw.Write(true);
 300:main.cpp      ****     led.Write(false);
 301:main.cpp      ****     on = false;
 2721              		.loc 10 301 8 is_stmt 0 view .LVU747
 2722 0142 4C4C     		ldr	r4, .L222+84
 2723              	.LBB357:
 2724              	.LBB337:
 2725              	.LBB334:
 2726              	.LBB332:
 2727              	.LBB330:
  69:../../libDaisy/src/per/gpio.h ****         {
 2728              		.loc 15 69 73 view .LVU748
 2729 0144 CDE90F55 		strd	r5, r5, [sp, #60]
 2730              	.LBE330:
 2731              	.LBE332:
 2732              	.LBE334:
 2733              	.LBE337:
 2734              	.LBE357:
 2735              	.LBB358:
 2736              	.LBB353:
ARM GAS  C:\Users\galla\AppData\Local\Temp\ccVNmTCK.s 			page 86


 2737              	.LBB350:
 2738              	.LBB348:
 2739              	.LBB346:
 2740 0148 CDE91455 		strd	r5, r5, [sp, #80]
 2741              	.LBE346:
 2742              	.LBE348:
 2743              	.LBE350:
 2744              	.LBE353:
 2745              	.LBE358:
 296:main.cpp      ****     led.Init(seed::D5, GPIO::Mode::OUTPUT);
 2746              		.loc 10 296 12 view .LVU749
 2747 014c FFF7FEFF 		bl	_ZN5daisy4GPIO4InitENS_3PinENS0_4ModeENS0_4PullENS0_5SpeedE
 2748              	.LVL202:
 297:main.cpp      ****     led.Init(seed::D5, GPIO::Mode::OUTPUT);
 2749              		.loc 10 297 5 is_stmt 1 view .LVU750
 297:main.cpp      ****     led.Init(seed::D5, GPIO::Mode::OUTPUT);
 2750              		.loc 10 297 13 is_stmt 0 view .LVU751
 2751 0150 494B     		ldr	r3, .L222+88
 2752 0152 3246     		mov	r2, r6
 2753 0154 13A8     		add	r0, sp, #76
 2754 0156 1968     		ldr	r1, [r3]
 2755 0158 2B46     		mov	r3, r5
 2756 015a 0095     		str	r5, [sp]
 2757 015c FFF7FEFF 		bl	_ZN5daisy4GPIO4InitENS_3PinENS0_4ModeENS0_4PullENS0_5SpeedE
 2758              	.LVL203:
 299:main.cpp      ****     led.Write(false);
 2759              		.loc 10 299 5 is_stmt 1 view .LVU752
 299:main.cpp      ****     led.Write(false);
 2760              		.loc 10 299 13 is_stmt 0 view .LVU753
 2761 0160 3146     		mov	r1, r6
 2762 0162 0EA8     		add	r0, sp, #56
 2763 0164 FFF7FEFF 		bl	_ZN5daisy4GPIO5WriteEb
 2764              	.LVL204:
 300:main.cpp      ****     on = false;
 2765              		.loc 10 300 5 is_stmt 1 view .LVU754
 300:main.cpp      ****     on = false;
 2766              		.loc 10 300 14 is_stmt 0 view .LVU755
 2767 0168 13A8     		add	r0, sp, #76
 2768 016a 2946     		mov	r1, r5
 2769 016c FFF7FEFF 		bl	_ZN5daisy4GPIO5WriteEb
 2770              	.LVL205:
 2771              		.loc 10 301 5 is_stmt 1 view .LVU756
 2772              	.LBB359:
 2773              	.LBB360:
  34:../../libDaisy/src/hid/switch3.h ****     }
  35:../../libDaisy/src/hid/switch3.h **** 
  36:../../libDaisy/src/hid/switch3.h ****     int Read()
  37:../../libDaisy/src/hid/switch3.h ****     {
  38:../../libDaisy/src/hid/switch3.h ****         if(!dsy_gpio_read(&pina_gpio_))
 2774              		.loc 13 38 26 is_stmt 0 view .LVU757
 2775 0170 04A8     		add	r0, sp, #16
 2776              	.LBE360:
 2777              	.LBE359:
 2778              		.loc 10 301 8 view .LVU758
 2779 0172 2570     		strb	r5, [r4]
 302:main.cpp      **** 
 303:main.cpp      **** 
ARM GAS  C:\Users\galla\AppData\Local\Temp\ccVNmTCK.s 			page 87


 304:main.cpp      ****     switch(toggle.Read()) {
 2780              		.loc 10 304 5 is_stmt 1 view .LVU759
 2781              	.LVL206:
 2782              	.LBB371:
 2783              	.LBI359:
  36:../../libDaisy/src/hid/switch3.h ****     {
 2784              		.loc 13 36 9 view .LVU760
 2785              	.LBB367:
 2786              		.loc 13 38 9 view .LVU761
 2787              		.loc 13 38 26 is_stmt 0 view .LVU762
 2788 0174 FFF7FEFF 		bl	dsy_gpio_read
 2789              	.LVL207:
 2790              		.loc 13 38 9 view .LVU763
 2791 0178 0028     		cmp	r0, #0
 2792 017a 47D1     		bne	.L207
 2793              	.LVL208:
 2794              		.loc 13 38 9 view .LVU764
 2795              	.LBE367:
 2796              	.LBE371:
 305:main.cpp      ****         case Switch3::POS_LEFT: effect = 2; break;
 2797              		.loc 10 305 9 is_stmt 1 view .LVU765
 2798              		.loc 10 305 33 view .LVU766
 2799              		.loc 10 305 40 is_stmt 0 view .LVU767
 2800 017c 3F4D     		ldr	r5, .L222+92
 2801 017e C5F80080 		str	r8, [r5]
 2802              		.loc 10 305 45 is_stmt 1 view .LVU768
 2803              	.L208:
 306:main.cpp      ****         case Switch3::POS_CENTER: effect = 1; break;
 307:main.cpp      ****         case Switch3::POS_RIGHT: effect = 0; break;
 308:main.cpp      ****         default: effect = 0;
 309:main.cpp      ****     }
 310:main.cpp      **** 
 311:main.cpp      ****     hw.StartAudio(AudioCallback);
 2804              		.loc 10 311 5 view .LVU769
 2805              		.loc 10 311 18 is_stmt 0 view .LVU770
 2806 0182 3F49     		ldr	r1, .L222+96
 2807 0184 2648     		ldr	r0, .L222
 2808 0186 FFF7FEFF 		bl	_ZN5daisy9DaisySeed10StartAudioEPFvPKPKfPPfjE
 2809              	.LVL209:
 2810              	.L210:
 312:main.cpp      **** 
 313:main.cpp      ****     
 314:main.cpp      ****     
 315:main.cpp      ****     while(1) {
 2811              		.loc 10 315 5 is_stmt 1 view .LVU771
 316:main.cpp      **** 
 317:main.cpp      ****         
 318:main.cpp      ****         momentary.Debounce();
 2812              		.loc 10 318 9 view .LVU772
 2813              		.loc 10 318 27 is_stmt 0 view .LVU773
 2814 018a 06A8     		add	r0, sp, #24
 2815 018c FFF7FEFF 		bl	_ZN5daisy6Switch8DebounceEv
 2816              	.LVL210:
 319:main.cpp      ****         if(momentary.RisingEdge()){ //momentary switch
 2817              		.loc 10 319 9 is_stmt 1 view .LVU774
 2818              	.LBB372:
 2819              	.LBI372:
ARM GAS  C:\Users\galla\AppData\Local\Temp\ccVNmTCK.s 			page 88


  42:../../libDaisy/src/hid/switch.h ****     ~Switch() {}
  43:../../libDaisy/src/hid/switch.h **** 
  44:../../libDaisy/src/hid/switch.h ****     /** 
  45:../../libDaisy/src/hid/switch.h ****     Initializes the switch object with a given port/pin combo.
  46:../../libDaisy/src/hid/switch.h ****     \param pin port/pin object to tell the switch which hardware pin to use.
  47:../../libDaisy/src/hid/switch.h ****     \param update_rate Does nothing. Backwards compatibility until next breaking update.
  48:../../libDaisy/src/hid/switch.h ****     \param t switch type -- Default: TYPE_MOMENTARY
  49:../../libDaisy/src/hid/switch.h ****     \param pol switch polarity -- Default: POLARITY_INVERTED
  50:../../libDaisy/src/hid/switch.h ****     \param pu switch pull up/down -- Default: PULL_UP
  51:../../libDaisy/src/hid/switch.h ****     */
  52:../../libDaisy/src/hid/switch.h ****     void
  53:../../libDaisy/src/hid/switch.h ****     Init(dsy_gpio_pin pin, float update_rate, Type t, Polarity pol, Pull pu);
  54:../../libDaisy/src/hid/switch.h **** 
  55:../../libDaisy/src/hid/switch.h ****     /**
  56:../../libDaisy/src/hid/switch.h ****        Simplified Init.
  57:../../libDaisy/src/hid/switch.h ****        \param pin port/pin object to tell the switch which hardware pin to use.
  58:../../libDaisy/src/hid/switch.h ****        \param update_rate Left for backwards compatibility until next breaking change.
  59:../../libDaisy/src/hid/switch.h ****     */
  60:../../libDaisy/src/hid/switch.h ****     void Init(dsy_gpio_pin pin, float update_rate = 0.f);
  61:../../libDaisy/src/hid/switch.h **** 
  62:../../libDaisy/src/hid/switch.h ****     /** 
  63:../../libDaisy/src/hid/switch.h ****     Called at update_rate to debounce and handle timing for the switch.
  64:../../libDaisy/src/hid/switch.h ****     In order for events not to be missed, its important that the Edge/Pressed checks
  65:../../libDaisy/src/hid/switch.h ****     be made at the same rate as the debounce function is being called.
  66:../../libDaisy/src/hid/switch.h ****     */
  67:../../libDaisy/src/hid/switch.h ****     void Debounce();
  68:../../libDaisy/src/hid/switch.h **** 
  69:../../libDaisy/src/hid/switch.h ****     /** \return true if a button was just pressed. */
  70:../../libDaisy/src/hid/switch.h ****     inline bool RisingEdge() const { return updated_ ? state_ == 0x7f : false; }
 2820              		.loc 14 70 17 view .LVU775
 2821              	.LBB373:
 2822              		.loc 14 70 38 view .LVU776
 2823              		.loc 14 70 54 is_stmt 0 view .LVU777
 2824 0190 9DF81C30 		ldrb	r3, [sp, #28]	@ zero_extendqisi2
 2825 0194 3BB1     		cbz	r3, .L211
 2826              	.L221:
 2827              	.LVL211:
 2828              		.loc 14 70 54 view .LVU778
 2829              	.LBE373:
 2830              	.LBE372:
 2831              		.loc 10 319 9 view .LVU779
 2832 0196 9DF82230 		ldrb	r3, [sp, #34]	@ zero_extendqisi2
 2833 019a 7F2B     		cmp	r3, #127
 2834 019c 03D1     		bne	.L211
 320:main.cpp      ****             on = !on;
 2835              		.loc 10 320 13 is_stmt 1 view .LVU780
 2836              		.loc 10 320 18 is_stmt 0 view .LVU781
 2837 019e 2378     		ldrb	r3, [r4]	@ zero_extendqisi2
 2838 01a0 83F00103 		eor	r3, r3, #1
 2839              		.loc 10 320 16 view .LVU782
 2840 01a4 2370     		strb	r3, [r4]
 2841              	.L211:
 321:main.cpp      ****         }
 322:main.cpp      **** 
 323:main.cpp      ****         latching.Debounce();    
 2842              		.loc 10 323 9 is_stmt 1 view .LVU783
 2843              		.loc 10 323 26 is_stmt 0 view .LVU784
ARM GAS  C:\Users\galla\AppData\Local\Temp\ccVNmTCK.s 			page 89


 2844 01a6 0AA8     		add	r0, sp, #40
 2845 01a8 FFF7FEFF 		bl	_ZN5daisy6Switch8DebounceEv
 2846              	.LVL212:
 324:main.cpp      ****         on = latching.Pressed(); //latching switch
 2847              		.loc 10 324 9 is_stmt 1 view .LVU785
 2848              	.LBB375:
 2849              	.LBI375:
  71:../../libDaisy/src/hid/switch.h **** 
  72:../../libDaisy/src/hid/switch.h ****     /** \return true if the button was just released */
  73:../../libDaisy/src/hid/switch.h ****     inline bool FallingEdge() const
  74:../../libDaisy/src/hid/switch.h ****     {
  75:../../libDaisy/src/hid/switch.h ****         return updated_ ? state_ == 0x80 : false;
  76:../../libDaisy/src/hid/switch.h ****     }
  77:../../libDaisy/src/hid/switch.h **** 
  78:../../libDaisy/src/hid/switch.h ****     /** \return true if the button is held down (or if the toggle is on) */
  79:../../libDaisy/src/hid/switch.h ****     inline bool Pressed() const { return state_ == 0xff; }
 2850              		.loc 14 79 17 view .LVU786
 2851              	.LBB376:
 2852              		.loc 14 79 35 view .LVU787
 2853              		.loc 14 79 42 is_stmt 0 view .LVU788
 2854 01ac 9DF83230 		ldrb	r3, [sp, #50]	@ zero_extendqisi2
 2855              	.LVL213:
 2856              		.loc 14 79 52 view .LVU789
 2857 01b0 FF2B     		cmp	r3, #255
 2858 01b2 0CBF     		ite	eq
 2859 01b4 0123     		moveq	r3, #1
 2860 01b6 0023     		movne	r3, #0
 2861 01b8 2370     		strb	r3, [r4]
 2862              	.LBE376:
 2863              	.LBE375:
 325:main.cpp      **** 
 326:main.cpp      ****         if(on) {
 2864              		.loc 10 326 9 is_stmt 1 view .LVU790
 2865 01ba 1CD1     		bne	.L212
 327:main.cpp      ****             sw.Write(false);
 2866              		.loc 10 327 13 view .LVU791
 2867              		.loc 10 327 21 is_stmt 0 view .LVU792
 2868 01bc 0EA8     		add	r0, sp, #56
 2869 01be 0021     		movs	r1, #0
 2870 01c0 FFF7FEFF 		bl	_ZN5daisy4GPIO5WriteEb
 2871              	.LVL214:
 328:main.cpp      ****             led.Write(true);
 2872              		.loc 10 328 13 is_stmt 1 view .LVU793
 2873              		.loc 10 328 22 is_stmt 0 view .LVU794
 2874 01c4 0121     		movs	r1, #1
 2875 01c6 13A8     		add	r0, sp, #76
 2876 01c8 FFF7FEFF 		bl	_ZN5daisy4GPIO5WriteEb
 2877              	.LVL215:
 2878              	.L213:
 329:main.cpp      ****         } else {
 330:main.cpp      ****             sw.Write(true);
 331:main.cpp      ****             led.Write(false);
 332:main.cpp      ****         }
 333:main.cpp      **** 
 334:main.cpp      ****         switch(toggle.Read()) {
 2879              		.loc 10 334 9 is_stmt 1 view .LVU795
 2880              	.LBB377:
ARM GAS  C:\Users\galla\AppData\Local\Temp\ccVNmTCK.s 			page 90


 2881              	.LBI377:
  36:../../libDaisy/src/hid/switch3.h ****     {
 2882              		.loc 13 36 9 view .LVU796
 2883              	.LBB378:
 2884              		.loc 13 38 9 view .LVU797
 2885              		.loc 13 38 26 is_stmt 0 view .LVU798
 2886 01cc 04A8     		add	r0, sp, #16
 2887              	.LVL216:
 2888              		.loc 13 38 26 view .LVU799
 2889 01ce FFF7FEFF 		bl	dsy_gpio_read
 2890              	.LVL217:
 2891              		.loc 13 38 9 view .LVU800
 2892 01d2 68B1     		cbz	r0, .L214
 2893              	.LVL218:
 2894              	.LBB379:
 2895              	.LBI379:
  36:../../libDaisy/src/hid/switch3.h ****     {
 2896              		.loc 13 36 9 is_stmt 1 view .LVU801
 2897              	.LBB380:
  39:../../libDaisy/src/hid/switch3.h ****             return POS_UP;
  40:../../libDaisy/src/hid/switch3.h ****         if(!dsy_gpio_read(&pinb_gpio_))
 2898              		.loc 13 40 9 view .LVU802
 2899              		.loc 13 40 26 is_stmt 0 view .LVU803
 2900 01d4 05A8     		add	r0, sp, #20
 2901 01d6 FFF7FEFF 		bl	dsy_gpio_read
 2902              	.LVL219:
 2903              		.loc 13 40 9 view .LVU804
 2904 01da A8B1     		cbz	r0, .L215
 2905              	.LVL220:
 2906              		.loc 13 40 9 view .LVU805
 2907              	.LBE380:
 2908              	.LBE379:
 2909              	.LBE378:
 2910              	.LBE377:
 335:main.cpp      ****             case Switch3::POS_LEFT: effect = 2; break;
 336:main.cpp      ****             case Switch3::POS_CENTER: effect = 1; break;
 2911              		.loc 10 336 13 is_stmt 1 view .LVU806
 2912              		.loc 10 336 39 view .LVU807
 2913              		.loc 10 336 46 is_stmt 0 view .LVU808
 2914 01dc 0123     		movs	r3, #1
 318:main.cpp      ****         if(momentary.RisingEdge()){ //momentary switch
 2915              		.loc 10 318 27 view .LVU809
 2916 01de 06A8     		add	r0, sp, #24
 2917              		.loc 10 336 46 view .LVU810
 2918 01e0 2B60     		str	r3, [r5]
 2919              		.loc 10 336 51 is_stmt 1 view .LVU811
 315:main.cpp      **** 
 2920              		.loc 10 315 5 view .LVU812
 318:main.cpp      ****         if(momentary.RisingEdge()){ //momentary switch
 2921              		.loc 10 318 9 view .LVU813
 318:main.cpp      ****         if(momentary.RisingEdge()){ //momentary switch
 2922              		.loc 10 318 27 is_stmt 0 view .LVU814
 2923 01e2 FFF7FEFF 		bl	_ZN5daisy6Switch8DebounceEv
 2924              	.LVL221:
 319:main.cpp      ****             on = !on;
 2925              		.loc 10 319 9 is_stmt 1 view .LVU815
 2926              	.LBB384:
ARM GAS  C:\Users\galla\AppData\Local\Temp\ccVNmTCK.s 			page 91


  70:../../libDaisy/src/hid/switch.h **** 
 2927              		.loc 14 70 17 view .LVU816
 2928              	.LBB374:
  70:../../libDaisy/src/hid/switch.h **** 
 2929              		.loc 14 70 38 view .LVU817
  70:../../libDaisy/src/hid/switch.h **** 
 2930              		.loc 14 70 54 is_stmt 0 view .LVU818
 2931 01e6 9DF81C30 		ldrb	r3, [sp, #28]	@ zero_extendqisi2
 2932 01ea 002B     		cmp	r3, #0
 2933 01ec DBD0     		beq	.L211
 2934 01ee D2E7     		b	.L221
 2935              	.LVL222:
 2936              	.L214:
  70:../../libDaisy/src/hid/switch.h **** 
 2937              		.loc 14 70 54 view .LVU819
 2938              	.LBE374:
 2939              	.LBE384:
 335:main.cpp      ****             case Switch3::POS_CENTER: effect = 1; break;
 2940              		.loc 10 335 13 is_stmt 1 view .LVU820
 335:main.cpp      ****             case Switch3::POS_CENTER: effect = 1; break;
 2941              		.loc 10 335 37 view .LVU821
 335:main.cpp      ****             case Switch3::POS_CENTER: effect = 1; break;
 2942              		.loc 10 335 44 is_stmt 0 view .LVU822
 2943 01f0 0223     		movs	r3, #2
 2944 01f2 2B60     		str	r3, [r5]
 335:main.cpp      ****             case Switch3::POS_CENTER: effect = 1; break;
 2945              		.loc 10 335 49 is_stmt 1 view .LVU823
 2946 01f4 C9E7     		b	.L210
 2947              	.L212:
 330:main.cpp      ****             led.Write(false);
 2948              		.loc 10 330 13 view .LVU824
 330:main.cpp      ****             led.Write(false);
 2949              		.loc 10 330 21 is_stmt 0 view .LVU825
 2950 01f6 0EA8     		add	r0, sp, #56
 2951 01f8 0121     		movs	r1, #1
 2952 01fa FFF7FEFF 		bl	_ZN5daisy4GPIO5WriteEb
 2953              	.LVL223:
 331:main.cpp      ****         }
 2954              		.loc 10 331 13 is_stmt 1 view .LVU826
 331:main.cpp      ****         }
 2955              		.loc 10 331 22 is_stmt 0 view .LVU827
 2956 01fe 0021     		movs	r1, #0
 2957 0200 13A8     		add	r0, sp, #76
 2958 0202 FFF7FEFF 		bl	_ZN5daisy4GPIO5WriteEb
 2959              	.LVL224:
 2960 0206 E1E7     		b	.L213
 2961              	.LVL225:
 2962              	.L215:
 2963              	.LBB385:
 2964              	.LBB383:
 2965              	.LBB382:
 2966              	.LBB381:
  41:../../libDaisy/src/hid/switch3.h ****             return POS_DOWN;
 2967              		.loc 13 41 13 is_stmt 1 view .LVU828
 2968              		.loc 13 41 13 is_stmt 0 view .LVU829
 2969              	.LBE381:
 2970              	.LBE382:
ARM GAS  C:\Users\galla\AppData\Local\Temp\ccVNmTCK.s 			page 92


 2971              	.LBE383:
 2972              	.LBE385:
 337:main.cpp      ****             case Switch3::POS_RIGHT: effect = 0; break;
 2973              		.loc 10 337 13 is_stmt 1 view .LVU830
 2974              		.loc 10 337 38 view .LVU831
 2975              		.loc 10 337 45 is_stmt 0 view .LVU832
 2976 0208 2860     		str	r0, [r5]
 2977              		.loc 10 337 50 is_stmt 1 view .LVU833
 2978 020a BEE7     		b	.L210
 2979              	.LVL226:
 2980              	.L207:
 2981              	.LBB386:
 2982              	.LBB368:
 2983              	.LBB361:
 2984              	.LBI361:
  36:../../libDaisy/src/hid/switch3.h ****     {
 2985              		.loc 13 36 9 view .LVU834
 2986              	.LBB362:
  40:../../libDaisy/src/hid/switch3.h ****             return POS_DOWN;
 2987              		.loc 13 40 9 view .LVU835
  40:../../libDaisy/src/hid/switch3.h ****             return POS_DOWN;
 2988              		.loc 13 40 26 is_stmt 0 view .LVU836
 2989 020c 05A8     		add	r0, sp, #20
 2990              	.LBE362:
 2991              	.LBE361:
 2992              	.LBE368:
 2993              	.LBE386:
 307:main.cpp      ****         default: effect = 0;
 2994              		.loc 10 307 41 view .LVU837
 2995 020e 1B4D     		ldr	r5, .L222+92
 2996              	.LBB387:
 2997              	.LBB369:
 2998              	.LBB365:
 2999              	.LBB363:
  40:../../libDaisy/src/hid/switch3.h ****             return POS_DOWN;
 3000              		.loc 13 40 26 view .LVU838
 3001 0210 FFF7FEFF 		bl	dsy_gpio_read
 3002              	.LVL227:
  40:../../libDaisy/src/hid/switch3.h ****             return POS_DOWN;
 3003              		.loc 13 40 9 view .LVU839
 3004 0214 08B1     		cbz	r0, .L209
 3005              	.LVL228:
  40:../../libDaisy/src/hid/switch3.h ****             return POS_DOWN;
 3006              		.loc 13 40 9 view .LVU840
 3007              	.LBE363:
 3008              	.LBE365:
 3009              	.LBE369:
 3010              	.LBE387:
 306:main.cpp      ****         case Switch3::POS_RIGHT: effect = 0; break;
 3011              		.loc 10 306 9 is_stmt 1 view .LVU841
 306:main.cpp      ****         case Switch3::POS_RIGHT: effect = 0; break;
 3012              		.loc 10 306 35 view .LVU842
 306:main.cpp      ****         case Switch3::POS_RIGHT: effect = 0; break;
 3013              		.loc 10 306 42 is_stmt 0 view .LVU843
 3014 0216 2E60     		str	r6, [r5]
 306:main.cpp      ****         case Switch3::POS_RIGHT: effect = 0; break;
 3015              		.loc 10 306 47 is_stmt 1 view .LVU844
ARM GAS  C:\Users\galla\AppData\Local\Temp\ccVNmTCK.s 			page 93


 3016 0218 B3E7     		b	.L208
 3017              	.LVL229:
 3018              	.L209:
 3019              	.LBB388:
 3020              	.LBB370:
 3021              	.LBB366:
 3022              	.LBB364:
 3023              		.loc 13 41 13 view .LVU845
 3024              		.loc 13 41 13 is_stmt 0 view .LVU846
 3025              	.LBE364:
 3026              	.LBE366:
 3027              	.LBE370:
 3028              	.LBE388:
 307:main.cpp      ****         default: effect = 0;
 3029              		.loc 10 307 9 is_stmt 1 view .LVU847
 307:main.cpp      ****         default: effect = 0;
 3030              		.loc 10 307 34 view .LVU848
 307:main.cpp      ****         default: effect = 0;
 3031              		.loc 10 307 41 is_stmt 0 view .LVU849
 3032 021a 2860     		str	r0, [r5]
 307:main.cpp      ****         default: effect = 0;
 3033              		.loc 10 307 46 is_stmt 1 view .LVU850
 3034 021c B1E7     		b	.L208
 3035              	.L223:
 3036 021e 00BF     		.align	2
 3037              	.L222:
 3038 0220 00000000 		.word	.LANCHOR9
 3039 0224 00000000 		.word	.LANCHOR19
 3040 0228 00000000 		.word	.LANCHOR21
 3041 022c 00000000 		.word	.LANCHOR20
 3042 0230 00000000 		.word	.LANCHOR22
 3043 0234 F4FD343F 		.word	1060437492
 3044 0238 00009643 		.word	1133903872
 3045 023c 00000000 		.word	.LANCHOR14
 3046 0240 0681A53F 		.word	1067811078
 3047 0244 00009042 		.word	1116733440
 3048 0248 00000000 		.word	.LANCHOR15
 3049 024c 00005C43 		.word	1130102784
 3050 0250 00000000 		.word	.LANCHOR16
 3051 0254 FA7EDA3F 		.word	1071283962
 3052 0258 00007A44 		.word	1148846080
 3053 025c 00000000 		.word	.LANCHOR17
 3054 0260 0080BB44 		.word	1153138688
 3055 0264 00000000 		.word	.LANCHOR13
 3056 0268 00000000 		.word	.LANCHOR18
 3057 026c 00000000 		.word	0
 3058 0270 00000000 		.word	.LANCHOR23
 3059 0274 00000000 		.word	.LANCHOR25
 3060 0278 00000000 		.word	.LANCHOR24
 3061 027c 00000000 		.word	.LANCHOR4
 3062 0280 00000000 		.word	_Z13AudioCallbackPKPKfPPfj
 3063              		.cfi_endproc
 3064              	.LFE4745:
 3066              		.section	.text.startup._GLOBAL__sub_I_hw,"ax",%progbits
 3067              		.align	1
 3068              		.p2align 2,,3
 3069              		.syntax unified
ARM GAS  C:\Users\galla\AppData\Local\Temp\ccVNmTCK.s 			page 94


 3070              		.thumb
 3071              		.thumb_func
 3072              		.fpu fpv5-d16
 3074              	_GLOBAL__sub_I_hw:
 3075              	.LFB5308:
 338:main.cpp      ****             default: effect = 0;
 339:main.cpp      ****         }
 340:main.cpp      ****     }
 341:main.cpp      **** }...
 3076              		.loc 10 341 1 view -0
 3077              		.cfi_startproc
 3078              		@ args = 0, pretend = 0, frame = 0
 3079              		@ frame_needed = 0, uses_anonymous_args = 0
 3080              	.LBB410:
 3081              	.LBI410:
 3082              		.loc 10 341 1 view .LVU852
 3083              	.LVL230:
 3084              	.LBB411:
 3085              	.LBB412:
 3086              	.LBI412:
  21:../../libDaisy/src/daisy_seed.h ****     ~DaisySeed() {}
 3087              		.loc 1 21 5 view .LVU853
 3088              	.LBB413:
 3089              	.LBB414:
 3090              	.LBI414:
 3091              		.file 17 "../../libDaisy/src/per/qspi.h"
   1:../../libDaisy/src/per/qspi.h **** #ifndef DSY_QSPI
   2:../../libDaisy/src/per/qspi.h **** #define DSY_QSPI /**< Macro */
   3:../../libDaisy/src/per/qspi.h **** 
   4:../../libDaisy/src/per/qspi.h **** #ifndef UNIT_TEST // for unit tests, a dummy implementation
   5:../../libDaisy/src/per/qspi.h **** 
   6:../../libDaisy/src/per/qspi.h **** #include <cstdint>
   7:../../libDaisy/src/per/qspi.h **** #include "daisy_core.h" // Added for dsy_gpio_pin typedef
   8:../../libDaisy/src/per/qspi.h **** 
   9:../../libDaisy/src/per/qspi.h **** #define DSY_QSPI_TEXT       \
  10:../../libDaisy/src/per/qspi.h ****     __attribute__((section( \
  11:../../libDaisy/src/per/qspi.h ****         ".qspiflash_text"))) /**< used for reading memory in memory_mapped mode. */
  12:../../libDaisy/src/per/qspi.h **** #define DSY_QSPI_DATA       \
  13:../../libDaisy/src/per/qspi.h ****     __attribute__((section( \
  14:../../libDaisy/src/per/qspi.h ****         ".qspiflash_data"))) /**< used for reading memory in memory_mapped mode. */
  15:../../libDaisy/src/per/qspi.h **** #define DSY_QSPI_BSS        \
  16:../../libDaisy/src/per/qspi.h ****     __attribute__((section( \
  17:../../libDaisy/src/per/qspi.h ****         ".qspiflash_bss"))) /**< used for reading memory in memory_mapped mode. */
  18:../../libDaisy/src/per/qspi.h **** 
  19:../../libDaisy/src/per/qspi.h **** namespace daisy
  20:../../libDaisy/src/per/qspi.h **** {
  21:../../libDaisy/src/per/qspi.h **** /** @addtogroup serial
  22:../../libDaisy/src/per/qspi.h **** @{
  23:../../libDaisy/src/per/qspi.h **** */
  24:../../libDaisy/src/per/qspi.h **** 
  25:../../libDaisy/src/per/qspi.h **** /** 
  26:../../libDaisy/src/per/qspi.h ****  Driver for QSPI peripheral to interface with external flash memory. \n 
  27:../../libDaisy/src/per/qspi.h ****     Currently supported QSPI Devices: \n 
  28:../../libDaisy/src/per/qspi.h ****     * IS25LP080D
  29:../../libDaisy/src/per/qspi.h **** */
  30:../../libDaisy/src/per/qspi.h **** class QSPIHandle
  31:../../libDaisy/src/per/qspi.h **** {
ARM GAS  C:\Users\galla\AppData\Local\Temp\ccVNmTCK.s 			page 95


  32:../../libDaisy/src/per/qspi.h ****   public:
  33:../../libDaisy/src/per/qspi.h ****     enum Result
  34:../../libDaisy/src/per/qspi.h ****     {
  35:../../libDaisy/src/per/qspi.h ****         OK = 0,
  36:../../libDaisy/src/per/qspi.h ****         ERR
  37:../../libDaisy/src/per/qspi.h ****     };
  38:../../libDaisy/src/per/qspi.h **** 
  39:../../libDaisy/src/per/qspi.h ****     /** Indicates the current status of the module. 
  40:../../libDaisy/src/per/qspi.h ****          *  Warnings are indicated by a leading W.
  41:../../libDaisy/src/per/qspi.h ****          *  Errors are indicated by a leading E and cause an immediate exit.
  42:../../libDaisy/src/per/qspi.h ****          * 
  43:../../libDaisy/src/per/qspi.h ****          *  \param GOOD - No errors have been reported.
  44:../../libDaisy/src/per/qspi.h ****          *  \param E_HAL_ERROR - HAL code did not return HAL_OK.
  45:../../libDaisy/src/per/qspi.h ****          *  \param E_SWITCHING_MODES - An error was encountered while switching QSPI peripheral mod
  46:../../libDaisy/src/per/qspi.h ****          *  \param E_INVALID_MODE - QSPI should not be written to while the program is executing fr
  47:../../libDaisy/src/per/qspi.h ****          */
  48:../../libDaisy/src/per/qspi.h ****     enum Status
  49:../../libDaisy/src/per/qspi.h ****     {
  50:../../libDaisy/src/per/qspi.h ****         GOOD = 0,
  51:../../libDaisy/src/per/qspi.h ****         E_HAL_ERROR,
  52:../../libDaisy/src/per/qspi.h ****         E_SWITCHING_MODES,
  53:../../libDaisy/src/per/qspi.h ****         E_INVALID_MODE,
  54:../../libDaisy/src/per/qspi.h ****     };
  55:../../libDaisy/src/per/qspi.h **** 
  56:../../libDaisy/src/per/qspi.h ****     /** Configuration structure for interfacing with QSPI Driver */
  57:../../libDaisy/src/per/qspi.h ****     struct Config
  58:../../libDaisy/src/per/qspi.h ****     {
  59:../../libDaisy/src/per/qspi.h ****         /** Flash Devices supported. (Both of these are more-or-less the same, just different sizes
  60:../../libDaisy/src/per/qspi.h ****         enum Device
  61:../../libDaisy/src/per/qspi.h ****         {
  62:../../libDaisy/src/per/qspi.h ****             IS25LP080D,  /**< & */
  63:../../libDaisy/src/per/qspi.h ****             IS25LP064A,  /**< & */
  64:../../libDaisy/src/per/qspi.h ****             DEVICE_LAST, /**< & */
  65:../../libDaisy/src/per/qspi.h ****         };
  66:../../libDaisy/src/per/qspi.h **** 
  67:../../libDaisy/src/per/qspi.h ****         /** 
  68:../../libDaisy/src/per/qspi.h ****         Modes of operation.
  69:../../libDaisy/src/per/qspi.h ****         Memory Mapped mode: QSPI configured so that the QSPI can be
  70:../../libDaisy/src/per/qspi.h ****         read from starting address 0x90000000. Writing is not
  71:../../libDaisy/src/per/qspi.h ****         possible in this mode. \n 
  72:../../libDaisy/src/per/qspi.h ****         Indirect Polling mode: Device driver enabled. 
  73:../../libDaisy/src/per/qspi.h ****         */
  74:../../libDaisy/src/per/qspi.h ****         enum Mode
  75:../../libDaisy/src/per/qspi.h ****         {
  76:../../libDaisy/src/per/qspi.h ****             MEMORY_MAPPED,    /**< & */
  77:../../libDaisy/src/per/qspi.h ****             INDIRECT_POLLING, /**< & */
  78:../../libDaisy/src/per/qspi.h ****             MODE_LAST,
  79:../../libDaisy/src/per/qspi.h ****         };
  80:../../libDaisy/src/per/qspi.h **** 
  81:../../libDaisy/src/per/qspi.h ****         //SCK,  CE# (active low)
  82:../../libDaisy/src/per/qspi.h ****         struct
  83:../../libDaisy/src/per/qspi.h ****         {
  84:../../libDaisy/src/per/qspi.h ****             dsy_gpio_pin io0; /**< & */
  85:../../libDaisy/src/per/qspi.h ****             dsy_gpio_pin io1; /**< & */
  86:../../libDaisy/src/per/qspi.h ****             dsy_gpio_pin io2; /**< & */
  87:../../libDaisy/src/per/qspi.h ****             dsy_gpio_pin io3; /**< & */
  88:../../libDaisy/src/per/qspi.h ****             dsy_gpio_pin clk; /**< & */
ARM GAS  C:\Users\galla\AppData\Local\Temp\ccVNmTCK.s 			page 96


  89:../../libDaisy/src/per/qspi.h ****             dsy_gpio_pin ncs; /**< & */
  90:../../libDaisy/src/per/qspi.h ****         } pin_config;
  91:../../libDaisy/src/per/qspi.h **** 
  92:../../libDaisy/src/per/qspi.h ****         Device device;
  93:../../libDaisy/src/per/qspi.h ****         Mode   mode;
  94:../../libDaisy/src/per/qspi.h ****     };
  95:../../libDaisy/src/per/qspi.h **** 
  96:../../libDaisy/src/per/qspi.h ****     /** 
  97:../../libDaisy/src/per/qspi.h ****         Initializes QSPI peripheral, and Resets, and prepares memory for access.
  98:../../libDaisy/src/per/qspi.h ****         \param config should be populated with the mode, device and pin_config before calling this 
  99:../../libDaisy/src/per/qspi.h ****         \return Result::OK or Result::ERR
 100:../../libDaisy/src/per/qspi.h ****         */
 101:../../libDaisy/src/per/qspi.h ****     Result Init(const Config& config);
 102:../../libDaisy/src/per/qspi.h **** 
 103:../../libDaisy/src/per/qspi.h ****     /** Returns the current config. */
 104:../../libDaisy/src/per/qspi.h ****     const Config& GetConfig() const;
 105:../../libDaisy/src/per/qspi.h **** 
 106:../../libDaisy/src/per/qspi.h ****     // Couldn't this just be called before anything else in init? That
 107:../../libDaisy/src/per/qspi.h ****     // would make manually calling it unnecessary.
 108:../../libDaisy/src/per/qspi.h ****     /** 
 109:../../libDaisy/src/per/qspi.h ****         Deinitializes the peripheral
 110:../../libDaisy/src/per/qspi.h ****         This should be called before reinitializing QSPI in a different mode.
 111:../../libDaisy/src/per/qspi.h ****         \return Result::OK or Result::ERR
 112:../../libDaisy/src/per/qspi.h ****         */
 113:../../libDaisy/src/per/qspi.h ****     Result DeInit();
 114:../../libDaisy/src/per/qspi.h **** 
 115:../../libDaisy/src/per/qspi.h ****     /** 
 116:../../libDaisy/src/per/qspi.h ****         Writes a single page to to the specified address on the QSPI chip.
 117:../../libDaisy/src/per/qspi.h ****         For IS25LP*, page size is 256 bytes.
 118:../../libDaisy/src/per/qspi.h ****         \param address Address to write to
 119:../../libDaisy/src/per/qspi.h ****         \param size Buffer size
 120:../../libDaisy/src/per/qspi.h ****         \param buffer Buffer to write
 121:../../libDaisy/src/per/qspi.h ****         \return Result::OK or Result::ERR
 122:../../libDaisy/src/per/qspi.h ****         */
 123:../../libDaisy/src/per/qspi.h ****     Result WritePage(uint32_t address, uint32_t size, uint8_t* buffer);
 124:../../libDaisy/src/per/qspi.h **** 
 125:../../libDaisy/src/per/qspi.h ****     /** 
 126:../../libDaisy/src/per/qspi.h ****         Writes data in buffer to to the QSPI. Starting at address to address+size 
 127:../../libDaisy/src/per/qspi.h ****         \param address Address to write to
 128:../../libDaisy/src/per/qspi.h ****         \param size Buffer size
 129:../../libDaisy/src/per/qspi.h ****         \param buffer Buffer to write
 130:../../libDaisy/src/per/qspi.h ****         \return Result::OK or Result::ERR
 131:../../libDaisy/src/per/qspi.h ****         */
 132:../../libDaisy/src/per/qspi.h ****     Result Write(uint32_t address, uint32_t size, uint8_t* buffer);
 133:../../libDaisy/src/per/qspi.h **** 
 134:../../libDaisy/src/per/qspi.h ****     /** 
 135:../../libDaisy/src/per/qspi.h ****         Erases the area specified on the chip.
 136:../../libDaisy/src/per/qspi.h ****         Erasures will happen by 4K, 32K or 64K increments.
 137:../../libDaisy/src/per/qspi.h ****         Smallest erase possible is 4kB at a time. (on IS25LP*)
 138:../../libDaisy/src/per/qspi.h ****         \param start_addr Address to begin erasing from
 139:../../libDaisy/src/per/qspi.h ****         \param end_addr  Address to stop erasing at
 140:../../libDaisy/src/per/qspi.h ****         \return Result::OK or Result::ERR
 141:../../libDaisy/src/per/qspi.h ****         */
 142:../../libDaisy/src/per/qspi.h ****     Result Erase(uint32_t start_addr, uint32_t end_addr);
 143:../../libDaisy/src/per/qspi.h **** 
 144:../../libDaisy/src/per/qspi.h ****     /**  
 145:../../libDaisy/src/per/qspi.h ****          Erases a single sector of the chip.  
ARM GAS  C:\Users\galla\AppData\Local\Temp\ccVNmTCK.s 			page 97


 146:../../libDaisy/src/per/qspi.h ****         TODO: Document the size of this function. 
 147:../../libDaisy/src/per/qspi.h ****         \param address Address of sector to erase
 148:../../libDaisy/src/per/qspi.h ****         \return Result::OK or Result::ERR
 149:../../libDaisy/src/per/qspi.h ****         */
 150:../../libDaisy/src/per/qspi.h ****     Result EraseSector(uint32_t address);
 151:../../libDaisy/src/per/qspi.h **** 
 152:../../libDaisy/src/per/qspi.h ****     /** Returns the current class status. Useful for debugging.
 153:../../libDaisy/src/per/qspi.h ****      *  \returns Status
 154:../../libDaisy/src/per/qspi.h ****      */
 155:../../libDaisy/src/per/qspi.h ****     Status GetStatus();
 156:../../libDaisy/src/per/qspi.h **** 
 157:../../libDaisy/src/per/qspi.h ****     /** Returns a pointer to the actual memory used 
 158:../../libDaisy/src/per/qspi.h ****      *  The memory at this address is read-only
 159:../../libDaisy/src/per/qspi.h ****      *  to write to it use the Write function.
 160:../../libDaisy/src/per/qspi.h ****      * 
 161:../../libDaisy/src/per/qspi.h ****      *  \param offset returns the pointer starting this 
 162:../../libDaisy/src/per/qspi.h ****      *                many bytes into the memory
 163:../../libDaisy/src/per/qspi.h ****     */
 164:../../libDaisy/src/per/qspi.h ****     void* GetData(uint32_t offset = 0);
 165:../../libDaisy/src/per/qspi.h **** 
 166:../../libDaisy/src/per/qspi.h ****     QSPIHandle() : pimpl_(nullptr) {}
 3092              		.loc 17 166 5 view .LVU854
 3093              	.LBE414:
 3094              	.LBE413:
 3095              	.LBE412:
 3096              	.LBE411:
 3097              	.LBE410:
 3098              		.loc 10 341 1 is_stmt 0 view .LVU855
 3099 0000 08B5     		push	{r3, lr}
 3100              		.cfi_def_cfa_offset 8
 3101              		.cfi_offset 3, -8
 3102              		.cfi_offset 14, -4
 3103              	.LBB438:
 3104              	.LBB437:
 3105              	.LBB435:
 3106              	.LBB433:
 3107              	.LBB419:
 3108              	.LBB415:
 3109              	.LBB416:
 3110              		.loc 17 166 34 view .LVU856
 3111 0002 0B48     		ldr	r0, .L226
 3112 0004 0023     		movs	r3, #0
 3113              	.LBE416:
 3114              	.LBE415:
 3115              	.LBE419:
 3116              	.LBE433:
 3117              	.LBE435:
  13:main.cpp      **** DaisySeed  hw;
 3118              		.loc 10 13 12 view .LVU857
 3119 0006 0B4A     		ldr	r2, .L226+4
 3120 0008 0B49     		ldr	r1, .L226+8
 3121              	.LBB436:
 3122              	.LBB434:
 3123              	.LBB420:
 3124              	.LBB418:
 3125              	.LBB417:
 3126              		.loc 17 166 34 view .LVU858
ARM GAS  C:\Users\galla\AppData\Local\Temp\ccVNmTCK.s 			page 98


 3127 000a 0360     		str	r3, [r0]
 3128              	.LVL231:
 3129              		.loc 17 166 34 view .LVU859
 3130              	.LBE417:
 3131              	.LBE418:
 3132              	.LBE420:
 3133              	.LBB421:
 3134              	.LBI421:
  95:../../libDaisy/src/hid/audio.h ****     ~AudioHandle() {}
 3135              		.loc 5 95 5 is_stmt 1 view .LVU860
 3136              	.LBB422:
 3137              	.LBB423:
  95:../../libDaisy/src/hid/audio.h ****     ~AudioHandle() {}
 3138              		.loc 5 95 35 is_stmt 0 view .LVU861
 3139 000c 4361     		str	r3, [r0, #20]
 3140              	.LVL232:
  95:../../libDaisy/src/hid/audio.h ****     ~AudioHandle() {}
 3141              		.loc 5 95 35 view .LVU862
 3142              	.LBE423:
 3143              	.LBE422:
 3144              	.LBE421:
 3145              	.LBB424:
 3146              	.LBI424:
 109:../../libDaisy/src/per/adc.h ****     ~AdcHandle() {}
 3147              		.loc 4 109 5 is_stmt 1 view .LVU863
 109:../../libDaisy/src/per/adc.h ****     ~AdcHandle() {}
 3148              		.loc 4 109 5 is_stmt 0 view .LVU864
 3149              	.LBE424:
 3150              	.LBB425:
 3151              	.LBI425:
 3152              		.file 18 "../../libDaisy/src/per/dac.h"
   1:../../libDaisy/src/per/dac.h **** #pragma once
   2:../../libDaisy/src/per/dac.h **** #ifndef DSY_DAC_H
   3:../../libDaisy/src/per/dac.h **** #define DSY_DAC_H
   4:../../libDaisy/src/per/dac.h **** 
   5:../../libDaisy/src/per/dac.h **** #include "daisy_core.h"
   6:../../libDaisy/src/per/dac.h **** 
   7:../../libDaisy/src/per/dac.h **** namespace daisy
   8:../../libDaisy/src/per/dac.h **** {
   9:../../libDaisy/src/per/dac.h **** /** @brief DAC handle for Built-in DAC Peripheral 
  10:../../libDaisy/src/per/dac.h ****  *  @ingroup per_analog
  11:../../libDaisy/src/per/dac.h ****  ** 
  12:../../libDaisy/src/per/dac.h ****  ** For now only Normal Mode is supported,
  13:../../libDaisy/src/per/dac.h ****  ** Sample and hold mode provides reduced power consumption, but requires a bit more setup.
  14:../../libDaisy/src/per/dac.h ****  **
  15:../../libDaisy/src/per/dac.h ****  ** For now connecting the DAC through other internal peripherals is also not supported.
  16:../../libDaisy/src/per/dac.h ****  **
  17:../../libDaisy/src/per/dac.h ****  ** Since the DAC channels have dedicated pins we don't need to pass in a pin config like with
  18:../../libDaisy/src/per/dac.h ****  ** other modules. However, it is still important to not try to use the DAC pins for anything else.
  19:../../libDaisy/src/per/dac.h ****  ** DAC Channel 1 is on PA4, and DAC Channel 2 is on PA5
  20:../../libDaisy/src/per/dac.h ****  ***/
  21:../../libDaisy/src/per/dac.h **** class DacHandle
  22:../../libDaisy/src/per/dac.h **** {
  23:../../libDaisy/src/per/dac.h ****   public:
  24:../../libDaisy/src/per/dac.h ****     /** Return Values for the DacHandle class */
  25:../../libDaisy/src/per/dac.h ****     enum class Result
  26:../../libDaisy/src/per/dac.h ****     {
ARM GAS  C:\Users\galla\AppData\Local\Temp\ccVNmTCK.s 			page 99


  27:../../libDaisy/src/per/dac.h ****         OK,
  28:../../libDaisy/src/per/dac.h ****         ERR,
  29:../../libDaisy/src/per/dac.h ****     };
  30:../../libDaisy/src/per/dac.h **** 
  31:../../libDaisy/src/per/dac.h ****     /** Selects which channel(s) will be configured for use. */
  32:../../libDaisy/src/per/dac.h ****     enum class Channel
  33:../../libDaisy/src/per/dac.h ****     {
  34:../../libDaisy/src/per/dac.h ****         ONE,
  35:../../libDaisy/src/per/dac.h ****         TWO,
  36:../../libDaisy/src/per/dac.h ****         BOTH,
  37:../../libDaisy/src/per/dac.h ****     };
  38:../../libDaisy/src/per/dac.h **** 
  39:../../libDaisy/src/per/dac.h ****     /** Sets the Mode for the DAC channels.
  40:../../libDaisy/src/per/dac.h ****      **
  41:../../libDaisy/src/per/dac.h ****      ** Polling mode uses the blocking mode to transmit a single value at a time.
  42:../../libDaisy/src/per/dac.h ****      **
  43:../../libDaisy/src/per/dac.h ****      ** DMA mode uses a buffer, and periodically transmits it triggering a 
  44:../../libDaisy/src/per/dac.h ****      ** callback to fill the buffer when it is ready for more samples.
  45:../../libDaisy/src/per/dac.h ****      ***/
  46:../../libDaisy/src/per/dac.h ****     enum class Mode
  47:../../libDaisy/src/per/dac.h ****     {
  48:../../libDaisy/src/per/dac.h ****         POLLING,
  49:../../libDaisy/src/per/dac.h ****         DMA,
  50:../../libDaisy/src/per/dac.h ****     };
  51:../../libDaisy/src/per/dac.h **** 
  52:../../libDaisy/src/per/dac.h ****     /** Sets the number of bits per sample transmitted out of the DAC.
  53:../../libDaisy/src/per/dac.h ****      ** The output range will be: 0V - VDDA
  54:../../libDaisy/src/per/dac.h ****      ** The resolution will be roughly: bitdepth / (VDDA - 0V) 
  55:../../libDaisy/src/per/dac.h ****      ***/
  56:../../libDaisy/src/per/dac.h ****     enum class BitDepth
  57:../../libDaisy/src/per/dac.h ****     {
  58:../../libDaisy/src/per/dac.h ****         BITS_8,
  59:../../libDaisy/src/per/dac.h ****         BITS_12
  60:../../libDaisy/src/per/dac.h ****     };
  61:../../libDaisy/src/per/dac.h **** 
  62:../../libDaisy/src/per/dac.h ****     /** Sets whether the DAC output is buffered for higher drive ability. */
  63:../../libDaisy/src/per/dac.h ****     enum class BufferState
  64:../../libDaisy/src/per/dac.h ****     {
  65:../../libDaisy/src/per/dac.h ****         ENABLED,
  66:../../libDaisy/src/per/dac.h ****         DISABLED,
  67:../../libDaisy/src/per/dac.h ****     };
  68:../../libDaisy/src/per/dac.h **** 
  69:../../libDaisy/src/per/dac.h ****     /** Configuration structure for initializing the DAC structure. */
  70:../../libDaisy/src/per/dac.h ****     struct Config
  71:../../libDaisy/src/per/dac.h ****     {
  72:../../libDaisy/src/per/dac.h ****         /** Target Samplerate in Hz used to configure the internal 
  73:../../libDaisy/src/per/dac.h ****          ** timebase for DMA mode. Does nothing in POLLING mode.
  74:../../libDaisy/src/per/dac.h ****          ** If the value is 0 at Init time this will default to 48000Hz 
  75:../../libDaisy/src/per/dac.h ****          ** otherwise the driver will attempt meet the target.*/
  76:../../libDaisy/src/per/dac.h ****         uint32_t target_samplerate;
  77:../../libDaisy/src/per/dac.h **** 
  78:../../libDaisy/src/per/dac.h ****         Channel     chn;
  79:../../libDaisy/src/per/dac.h ****         Mode        mode;
  80:../../libDaisy/src/per/dac.h ****         BitDepth    bitdepth;
  81:../../libDaisy/src/per/dac.h ****         BufferState buff_state;
  82:../../libDaisy/src/per/dac.h ****     };
  83:../../libDaisy/src/per/dac.h **** 
ARM GAS  C:\Users\galla\AppData\Local\Temp\ccVNmTCK.s 			page 100


  84:../../libDaisy/src/per/dac.h ****     DacHandle() : pimpl_(nullptr) {}
 3153              		.loc 18 84 5 is_stmt 1 view .LVU865
 3154              	.LBB426:
 3155              	.LBB427:
 3156              		.loc 18 84 33 is_stmt 0 view .LVU866
 3157 000e 0362     		str	r3, [r0, #32]
 3158              	.LVL233:
 3159              		.loc 18 84 33 view .LVU867
 3160              	.LBE427:
 3161              	.LBE426:
 3162              	.LBE425:
 3163              	.LBB428:
 3164              	.LBI428:
  40:../../libDaisy/src/hid/usb.h **** 
 3165              		.loc 3 40 5 is_stmt 1 view .LVU868
  40:../../libDaisy/src/hid/usb.h **** 
 3166              		.loc 3 40 5 is_stmt 0 view .LVU869
 3167              	.LBE428:
 3168              	.LBB429:
 3169              	.LBI429:
  96:../../libDaisy/src/sys/system.h ****     ~System() {}
 3170              		.loc 2 96 5 is_stmt 1 view .LVU870
  96:../../libDaisy/src/sys/system.h ****     ~System() {}
 3171              		.loc 2 96 5 is_stmt 0 view .LVU871
 3172              	.LBE429:
 3173              	.LBB430:
 3174              	.LBI430:
 3175              		.file 19 "../../libDaisy/src/per/sai.h"
   1:../../libDaisy/src/per/sai.h **** #pragma once
   2:../../libDaisy/src/per/sai.h **** #ifndef DSY_SAI_H
   3:../../libDaisy/src/per/sai.h **** #define DSY_SAI_H
   4:../../libDaisy/src/per/sai.h **** 
   5:../../libDaisy/src/per/sai.h **** #include "daisy_core.h"
   6:../../libDaisy/src/per/sai.h **** 
   7:../../libDaisy/src/per/sai.h **** namespace daisy
   8:../../libDaisy/src/per/sai.h **** {
   9:../../libDaisy/src/per/sai.h **** /** 
  10:../../libDaisy/src/per/sai.h ****  * Support for I2S Audio Protocol with different bit-depth, samplerate options
  11:../../libDaisy/src/per/sai.h ****  * Allows for master or slave, as well as freedom of selecting direction, 
  12:../../libDaisy/src/per/sai.h ****  * and other behavior for each peripheral, and block.
  13:../../libDaisy/src/per/sai.h ****  * 
  14:../../libDaisy/src/per/sai.h ****  * DMA Transfer commands must use buffers located within non-cached memory or use cache maintenance
  15:../../libDaisy/src/per/sai.h ****  * To declare an unitialized global element in the DMA memory section:
  16:../../libDaisy/src/per/sai.h ****  *    int32_t DSY_DMA_BUFFER_SECTOR my_buffer[96];
  17:../../libDaisy/src/per/sai.h ****  *
  18:../../libDaisy/src/per/sai.h ****  * Callback functions will be called once per half of the buffer. In the above example, 
  19:../../libDaisy/src/per/sai.h ****  * the callback function would be called once for every 48 samples.
  20:../../libDaisy/src/per/sai.h ****  * 
  21:../../libDaisy/src/per/sai.h ****  * Use SAI Handle like this:
  22:../../libDaisy/src/per/sai.h ****  * 
  23:../../libDaisy/src/per/sai.h ****  *  SaiHandle::Config sai_config;
  24:../../libDaisy/src/per/sai.h ****  *  sai_config.periph          = SaiHandle::Config::Peripheral::SAI_1;
  25:../../libDaisy/src/per/sai.h ****  *  sai_config.sr              = SaiHandle::Config::SampleRate::SAI_48KHZ;
  26:../../libDaisy/src/per/sai.h ****  *  sai_config.bit_depth       = SaiHandle::Config::BitDepth::SAI_24BIT;
  27:../../libDaisy/src/per/sai.h ****  *  sai_config.a_sync          = SaiHandle::Config::Sync::MASTER;
  28:../../libDaisy/src/per/sai.h ****  *  sai_config.b_sync          = SaiHandle::Config::Sync::SLAVE;
  29:../../libDaisy/src/per/sai.h ****  *  sai_config.a_dir           = SaiHandle::Config::Direction::RECEIVE;
ARM GAS  C:\Users\galla\AppData\Local\Temp\ccVNmTCK.s 			page 101


  30:../../libDaisy/src/per/sai.h ****  *  sai_config.b_dir           = SaiHandle::Config::Direction::TRANSMIT;
  31:../../libDaisy/src/per/sai.h ****  *  sai_config.pin_config.fs   = {DSY_GPIOE, 4};
  32:../../libDaisy/src/per/sai.h ****  *  sai_config.pin_config.mclk = {DSY_GPIOE, 2};
  33:../../libDaisy/src/per/sai.h ****  *  sai_config.pin_config.sck  = {DSY_GPIOE, 5};
  34:../../libDaisy/src/per/sai.h ****  *  sai_config.pin_config.sa   = {DSY_GPIOE, 6};
  35:../../libDaisy/src/per/sai.h ****  *  sai_config.pin_config.sb   = {DSY_GPIOE, 3};
  36:../../libDaisy/src/per/sai.h ****  *  // Then Initialize
  37:../../libDaisy/src/per/sai.h ****  *  SaiHandle sai;
  38:../../libDaisy/src/per/sai.h ****  *  sai.Init(sai_config);
  39:../../libDaisy/src/per/sai.h ****  *  // Now you can use it:
  40:../../libDaisy/src/per/sai.h ****  *  sai.StartDma(. . .);
  41:../../libDaisy/src/per/sai.h ****  */
  42:../../libDaisy/src/per/sai.h **** class SaiHandle
  43:../../libDaisy/src/per/sai.h **** {
  44:../../libDaisy/src/per/sai.h ****   public:
  45:../../libDaisy/src/per/sai.h ****     /** Contains settings for initialising an SAI Interface */
  46:../../libDaisy/src/per/sai.h ****     struct Config
  47:../../libDaisy/src/per/sai.h ****     {
  48:../../libDaisy/src/per/sai.h ****         /** Specifies the internal peripheral to use (mapped to different hardware pins) */
  49:../../libDaisy/src/per/sai.h ****         enum class Peripheral
  50:../../libDaisy/src/per/sai.h ****         {
  51:../../libDaisy/src/per/sai.h ****             SAI_1,
  52:../../libDaisy/src/per/sai.h ****             SAI_2,
  53:../../libDaisy/src/per/sai.h ****         };
  54:../../libDaisy/src/per/sai.h **** 
  55:../../libDaisy/src/per/sai.h ****         /** Rate at which samples will be streaming to/from the device. */
  56:../../libDaisy/src/per/sai.h ****         enum class SampleRate
  57:../../libDaisy/src/per/sai.h ****         {
  58:../../libDaisy/src/per/sai.h ****             SAI_8KHZ,
  59:../../libDaisy/src/per/sai.h ****             SAI_16KHZ,
  60:../../libDaisy/src/per/sai.h ****             SAI_32KHZ,
  61:../../libDaisy/src/per/sai.h ****             SAI_48KHZ,
  62:../../libDaisy/src/per/sai.h ****             SAI_96KHZ,
  63:../../libDaisy/src/per/sai.h ****         };
  64:../../libDaisy/src/per/sai.h **** 
  65:../../libDaisy/src/per/sai.h ****         /** Bit Depth that the hardware expects to be transferred to/from the device. */
  66:../../libDaisy/src/per/sai.h ****         enum class BitDepth
  67:../../libDaisy/src/per/sai.h ****         {
  68:../../libDaisy/src/per/sai.h ****             SAI_16BIT,
  69:../../libDaisy/src/per/sai.h ****             SAI_24BIT,
  70:../../libDaisy/src/per/sai.h ****             SAI_32BIT,
  71:../../libDaisy/src/per/sai.h ****         };
  72:../../libDaisy/src/per/sai.h **** 
  73:../../libDaisy/src/per/sai.h ****         /** Specifies whether a particular block is the master or the slave 
  74:../../libDaisy/src/per/sai.h ****          ** If both are set to slave, no MCLK signal will be used, and it is
  75:../../libDaisy/src/per/sai.h ****          ** expected that the codec will have its own xtal.
  76:../../libDaisy/src/per/sai.h ****          */
  77:../../libDaisy/src/per/sai.h ****         enum class Sync
  78:../../libDaisy/src/per/sai.h ****         {
  79:../../libDaisy/src/per/sai.h ****             MASTER,
  80:../../libDaisy/src/per/sai.h ****             SLAVE,
  81:../../libDaisy/src/per/sai.h ****         };
  82:../../libDaisy/src/per/sai.h **** 
  83:../../libDaisy/src/per/sai.h ****         /** Specifies the direction for each peripheral block. */
  84:../../libDaisy/src/per/sai.h ****         enum class Direction
  85:../../libDaisy/src/per/sai.h ****         {
  86:../../libDaisy/src/per/sai.h ****             TRANSMIT,
ARM GAS  C:\Users\galla\AppData\Local\Temp\ccVNmTCK.s 			page 102


  87:../../libDaisy/src/per/sai.h ****             RECEIVE,
  88:../../libDaisy/src/per/sai.h ****         };
  89:../../libDaisy/src/per/sai.h **** 
  90:../../libDaisy/src/per/sai.h ****         Peripheral periph;
  91:../../libDaisy/src/per/sai.h ****         struct
  92:../../libDaisy/src/per/sai.h ****         {
  93:../../libDaisy/src/per/sai.h ****             dsy_gpio_pin mclk, fs, sck, sa, sb;
  94:../../libDaisy/src/per/sai.h ****         } pin_config;
  95:../../libDaisy/src/per/sai.h ****         SampleRate sr;
  96:../../libDaisy/src/per/sai.h ****         BitDepth   bit_depth;
  97:../../libDaisy/src/per/sai.h ****         Sync       a_sync, b_sync;
  98:../../libDaisy/src/per/sai.h ****         Direction  a_dir, b_dir;
  99:../../libDaisy/src/per/sai.h ****     };
 100:../../libDaisy/src/per/sai.h **** 
 101:../../libDaisy/src/per/sai.h ****     /** Return values for SAI functions */
 102:../../libDaisy/src/per/sai.h ****     enum class Result
 103:../../libDaisy/src/per/sai.h ****     {
 104:../../libDaisy/src/per/sai.h ****         OK,
 105:../../libDaisy/src/per/sai.h ****         ERR,
 106:../../libDaisy/src/per/sai.h ****     };
 107:../../libDaisy/src/per/sai.h **** 
 108:../../libDaisy/src/per/sai.h ****     SaiHandle() : pimpl_(nullptr) {}
 3176              		.loc 19 108 5 is_stmt 1 view .LVU872
 3177              	.LBB431:
 3178              	.LBB432:
 3179              		.loc 19 108 33 is_stmt 0 view .LVU873
 3180 0010 C363     		str	r3, [r0, #60]
 3181              	.LVL234:
 3182              		.loc 19 108 33 view .LVU874
 3183              	.LBE432:
 3184              	.LBE431:
 3185              	.LBE430:
 3186              	.LBE434:
 3187              	.LBE436:
  13:main.cpp      **** DaisySeed  hw;
 3188              		.loc 10 13 12 view .LVU875
 3189 0012 FFF7FEFF 		bl	__aeabi_atexit
 3190              	.LVL235:
  15:main.cpp      **** DistBP bmBP;
 3191              		.loc 10 15 8 view .LVU876
 3192 0016 0948     		ldr	r0, .L226+12
 3193 0018 FFF7FEFF 		bl	_ZN6DistBPC1Ev
 3194              	.LVL236:
  16:main.cpp      **** BMlow bmLow;
 3195              		.loc 10 16 7 view .LVU877
 3196 001c 0848     		ldr	r0, .L226+16
 3197 001e FFF7FEFF 		bl	_ZN5BMlowC1Ev
 3198              	.LVL237:
  17:main.cpp      **** BMhigh bmHigh;
 3199              		.loc 10 17 8 view .LVU878
 3200 0022 0848     		ldr	r0, .L226+20
 3201 0024 FFF7FEFF 		bl	_ZN6BMhighC1Ev
 3202              	.LVL238:
  20:main.cpp      **** DistHP tsHP;
 3203              		.loc 10 20 8 view .LVU879
 3204 0028 0748     		ldr	r0, .L226+24
 3205 002a FFF7FEFF 		bl	_ZN6DistHPC1Ev
ARM GAS  C:\Users\galla\AppData\Local\Temp\ccVNmTCK.s 			page 103


 3206              	.LVL239:
  20:main.cpp      **** DistHP tsHP;
 3207              		.loc 10 20 8 view .LVU880
 3208              	.LBE437:
 3209              	.LBE438:
 3210              		.loc 10 341 1 view .LVU881
 3211 002e 08BD     		pop	{r3, pc}
 3212              	.L227:
 3213              		.align	2
 3214              	.L226:
 3215 0030 00000000 		.word	.LANCHOR9
 3216 0034 00000000 		.word	__dso_handle
 3217 0038 00000000 		.word	_ZN5daisy9DaisySeedD1Ev
 3218 003c 00000000 		.word	.LANCHOR19
 3219 0040 00000000 		.word	.LANCHOR20
 3220 0044 00000000 		.word	.LANCHOR21
 3221 0048 00000000 		.word	.LANCHOR18
 3222              		.cfi_endproc
 3223              	.LFE5308:
 3225              		.section	.init_array,"aw",%init_array
 3226              		.align	2
 3227 0000 00000000 		.word	_GLOBAL__sub_I_hw(target1)
 3228              		.global	f3
 3229              		.global	f2
 3230              		.global	f1
 3231              		.global	f0
 3232              		.global	x3
 3233              		.global	x2
 3234              		.global	x1
 3235              		.global	knob3
 3236              		.global	knob2
 3237              		.global	knob1
 3238              		.global	effect
 3239              		.global	on
 3240              		.global	stage5
 3241              		.global	stage4
 3242              		.global	stage3
 3243              		.global	stage2
 3244              		.global	stage1
 3245              		.global	tsHP
 3246              		.global	tstone
 3247              		.global	bmHigh
 3248              		.global	bmLow
 3249              		.global	bmBP
 3250              		.global	hw
 3251              		.section	.rodata
 3252              		.align	2
 3253              		.set	.LANCHOR0,. + 0
 3254              	.LC4:
 3255 0000 01000000 		.word	1
 3256 0004 03000000 		.word	3
 3257 0008 01000000 		.word	1
 3258 000c 03000000 		.word	3
 3259 0010 01000000 		.word	1
 3260              	.LC5:
 3261 0014 8679053E 		.word	1040546182
 3262 0018 00000000 		.word	0
ARM GAS  C:\Users\galla\AppData\Local\Temp\ccVNmTCK.s 			page 104


 3263 001c 00000000 		.word	0
 3264 0020 0000803F 		.word	1065353216
 3265 0024 00000000 		.word	0
 3266 0028 000080BF 		.word	-1082130432
 3267 002c 8679053E 		.word	1040546182
 3268 0030 00000000 		.word	0
 3269 0034 00000000 		.word	0
 3270 0038 0000803F 		.word	1065353216
 3271 003c 00000000 		.word	0
 3272 0040 000080BF 		.word	-1082130432
 3273 0044 0000803F 		.word	1065353216
 3274 0048 00000000 		.word	0
 3275 004c 00000000 		.word	0
 3276              	.LC6:
 3277 0050 0000803F 		.word	1065353216
 3278 0054 00000000 		.word	0
 3279 0058 00000000 		.word	0
 3280 005c 0000803F 		.word	1065353216
 3281 0060 62EBFFBF 		.word	-1073747102
 3282 0064 C8D67F3F 		.word	1065342664
 3283 0068 0000803F 		.word	1065353216
 3284 006c 00000000 		.word	0
 3285 0070 00000000 		.word	0
 3286 0074 0000803F 		.word	1065353216
 3287 0078 3DB6CCBF 		.word	-1077103043
 3288 007c C9D32A3F 		.word	1059771337
 3289 0080 0000803F 		.word	1065353216
 3290 0084 00000000 		.word	0
 3291 0088 00000000 		.word	0
 3292              	.LC7:
 3293 008c 01000000 		.word	1
 3294 0090 02000000 		.word	2
 3295 0094 01000000 		.word	1
 3296              	.LC8:
 3297 0098 455DBE3C 		.word	1019108677
 3298 009c 00000000 		.word	0
 3299 00a0 0000803F 		.word	1065353216
 3300 00a4 0000803F 		.word	1065353216
 3301 00a8 0000803F 		.word	1065353216
 3302 00ac 00000000 		.word	0
 3303              	.LC9:
 3304 00b0 0000803F 		.word	1065353216
 3305 00b4 00000000 		.word	0
 3306 00b8 0000803F 		.word	1065353216
 3307 00bc 2C1A74BF 		.word	-1082910164
 3308 00c0 0000803F 		.word	1065353216
 3309 00c4 00000000 		.word	0
 3310              	.LC10:
 3311 00c8 EFCE723F 		.word	1064488687
 3312 00cc 00000000 		.word	0
 3313 00d0 0000803F 		.word	1065353216
 3314 00d4 000080BF 		.word	-1082130432
 3315 00d8 0000803F 		.word	1065353216
 3316 00dc 00000000 		.word	0
 3317              	.LC11:
 3318 00e0 0000803F 		.word	1065353216
 3319 00e4 00000000 		.word	0
ARM GAS  C:\Users\galla\AppData\Local\Temp\ccVNmTCK.s 			page 105


 3320 00e8 0000803F 		.word	1065353216
 3321 00ec DE9D65BF 		.word	-1083859490
 3322 00f0 0000803F 		.word	1065353216
 3323 00f4 00000000 		.word	0
 3324              	.LC12:
 3325 00f8 49BC7F3F 		.word	1065335881
 3326 00fc 00000000 		.word	0
 3327 0100 0000803F 		.word	1065353216
 3328 0104 000080BF 		.word	-1082130432
 3329 0108 0000803F 		.word	1065353216
 3330 010c 00000000 		.word	0
 3331              	.LC13:
 3332 0110 0000803F 		.word	1065353216
 3333 0114 00000000 		.word	0
 3334 0118 0000803F 		.word	1065353216
 3335 011c 91787FBF 		.word	-1082165103
 3336 0120 0000803F 		.word	1065353216
 3337 0124 00000000 		.word	0
 3338              		.section	.bss.bmBP,"aw",%nobits
 3339              		.align	2
 3340              		.set	.LANCHOR19,. + 0
 3343              	bmBP:
 3344 0000 00000000 		.space	280
 3344      00000000 
 3344      00000000 
 3344      00000000 
 3344      00000000 
 3345              		.section	.bss.bmHigh,"aw",%nobits
 3346              		.align	2
 3347              		.set	.LANCHOR21,. + 0
 3350              	bmHigh:
 3351 0000 00000000 		.space	120
 3351      00000000 
 3351      00000000 
 3351      00000000 
 3351      00000000 
 3352              		.section	.bss.bmLow,"aw",%nobits
 3353              		.align	2
 3354              		.set	.LANCHOR20,. + 0
 3357              	bmLow:
 3358 0000 00000000 		.space	120
 3358      00000000 
 3358      00000000 
 3358      00000000 
 3358      00000000 
 3359              		.section	.bss.effect,"aw",%nobits
 3360              		.align	2
 3361              		.set	.LANCHOR4,. + 0
 3364              	effect:
 3365 0000 00000000 		.space	4
 3366              		.section	.bss.f0,"aw",%nobits
 3367              		.align	2
 3368              		.set	.LANCHOR5,. + 0
 3371              	f0:
 3372 0000 00000000 		.space	4
 3373              		.section	.bss.f1,"aw",%nobits
 3374              		.align	2
ARM GAS  C:\Users\galla\AppData\Local\Temp\ccVNmTCK.s 			page 106


 3375              		.set	.LANCHOR6,. + 0
 3378              	f1:
 3379 0000 00000000 		.space	4
 3380              		.section	.bss.f2,"aw",%nobits
 3381              		.align	2
 3382              		.set	.LANCHOR7,. + 0
 3385              	f2:
 3386 0000 00000000 		.space	4
 3387              		.section	.bss.f3,"aw",%nobits
 3388              		.align	2
 3389              		.set	.LANCHOR8,. + 0
 3392              	f3:
 3393 0000 00000000 		.space	4
 3394              		.section	.bss.hw,"aw",%nobits
 3395              		.align	2
 3396              		.set	.LANCHOR9,. + 0
 3399              	hw:
 3400 0000 00000000 		.space	64
 3400      00000000 
 3400      00000000 
 3400      00000000 
 3400      00000000 
 3401              		.section	.bss.knob1,"aw",%nobits
 3402              		.align	2
 3403              		.set	.LANCHOR10,. + 0
 3406              	knob1:
 3407 0000 00000000 		.space	4
 3408              		.section	.bss.knob2,"aw",%nobits
 3409              		.align	2
 3410              		.set	.LANCHOR11,. + 0
 3413              	knob2:
 3414 0000 00000000 		.space	4
 3415              		.section	.bss.knob3,"aw",%nobits
 3416              		.align	2
 3417              		.set	.LANCHOR12,. + 0
 3420              	knob3:
 3421 0000 00000000 		.space	4
 3422              		.section	.bss.on,"aw",%nobits
 3423              		.set	.LANCHOR25,. + 0
 3426              	on:
 3427 0000 00       		.space	1
 3428              		.section	.bss.stage1,"aw",%nobits
 3429              		.align	2
 3430              		.set	.LANCHOR22,. + 0
 3433              	stage1:
 3434 0000 00000000 		.space	76
 3434      00000000 
 3434      00000000 
 3434      00000000 
 3434      00000000 
 3435              		.section	.bss.stage2,"aw",%nobits
 3436              		.align	2
 3437              		.set	.LANCHOR14,. + 0
 3440              	stage2:
 3441 0000 00000000 		.space	76
 3441      00000000 
 3441      00000000 
ARM GAS  C:\Users\galla\AppData\Local\Temp\ccVNmTCK.s 			page 107


 3441      00000000 
 3441      00000000 
 3442              		.section	.bss.stage3,"aw",%nobits
 3443              		.align	2
 3444              		.set	.LANCHOR15,. + 0
 3447              	stage3:
 3448 0000 00000000 		.space	76
 3448      00000000 
 3448      00000000 
 3448      00000000 
 3448      00000000 
 3449              		.section	.bss.stage4,"aw",%nobits
 3450              		.align	2
 3451              		.set	.LANCHOR16,. + 0
 3454              	stage4:
 3455 0000 00000000 		.space	76
 3455      00000000 
 3455      00000000 
 3455      00000000 
 3455      00000000 
 3456              		.section	.bss.stage5,"aw",%nobits
 3457              		.align	2
 3458              		.set	.LANCHOR17,. + 0
 3461              	stage5:
 3462 0000 00000000 		.space	76
 3462      00000000 
 3462      00000000 
 3462      00000000 
 3462      00000000 
 3463              		.section	.bss.tsHP,"aw",%nobits
 3464              		.align	2
 3465              		.set	.LANCHOR18,. + 0
 3468              	tsHP:
 3469 0000 00000000 		.space	120
 3469      00000000 
 3469      00000000 
 3469      00000000 
 3469      00000000 
 3470              		.section	.bss.tstone,"aw",%nobits
 3471              		.align	2
 3472              		.set	.LANCHOR13,. + 0
 3475              	tstone:
 3476 0000 00000000 		.space	56
 3476      00000000 
 3476      00000000 
 3476      00000000 
 3476      00000000 
 3477              		.section	.bss.x1,"aw",%nobits
 3478              		.align	2
 3479              		.set	.LANCHOR1,. + 0
 3482              	x1:
 3483 0000 00000000 		.space	4
 3484              		.section	.bss.x2,"aw",%nobits
 3485              		.align	2
 3486              		.set	.LANCHOR2,. + 0
 3489              	x2:
 3490 0000 00000000 		.space	4
ARM GAS  C:\Users\galla\AppData\Local\Temp\ccVNmTCK.s 			page 108


 3491              		.section	.bss.x3,"aw",%nobits
 3492              		.align	2
 3493              		.set	.LANCHOR3,. + 0
 3496              	x3:
 3497 0000 00000000 		.space	4
 3498              		.section	.rodata._ZN5daisy4seedL2D2E,"a"
 3499              		.align	2
 3500              		.set	.LANCHOR23,. + 0
 3503              	_ZN5daisy4seedL2D2E:
 3504 0000 02       		.byte	2
 3505 0001 0A       		.byte	10
 3506              		.section	.rodata._ZN5daisy4seedL2D5E,"a"
 3507              		.align	2
 3508              		.set	.LANCHOR24,. + 0
 3511              	_ZN5daisy4seedL2D5E:
 3512 0000 03       		.byte	3
 3513 0001 02       		.byte	2
 3514              		.text
 3515              	.Letext0:
 3516              		.file 20 "c:\\program files\\daisytoolchain\\arm-none-eabi\\include\\machine\\_default_types.h"
 3517              		.file 21 "c:\\program files\\daisytoolchain\\arm-none-eabi\\include\\sys\\_stdint.h"
 3518              		.file 22 "c:\\program files\\daisytoolchain\\arm-none-eabi\\include\\stdint.h"
 3519              		.file 23 "c:\\program files\\daisytoolchain\\lib\\gcc\\arm-none-eabi\\10.2.1\\include\\stddef.h"
 3520              		.file 24 "c:\\program files\\daisytoolchain\\arm-none-eabi\\include\\c++\\10.2.1\\cstdlib"
 3521              		.file 25 "c:\\program files\\daisytoolchain\\arm-none-eabi\\include\\c++\\10.2.1\\cstdint"
 3522              		.file 26 "c:\\program files\\daisytoolchain\\arm-none-eabi\\include\\c++\\10.2.1\\type_traits"
 3523              		.file 27 "c:\\program files\\daisytoolchain\\arm-none-eabi\\include\\c++\\10.2.1\\debug\\debug.h"
 3524              		.file 28 "c:\\program files\\daisytoolchain\\arm-none-eabi\\include\\c++\\10.2.1\\arm-none-eabi\\t
 3525              		.file 29 "c:\\program files\\daisytoolchain\\arm-none-eabi\\include\\c++\\10.2.1\\bits\\algorithmf
 3526              		.file 30 "c:\\program files\\daisytoolchain\\arm-none-eabi\\include\\c++\\10.2.1\\bits\\stl_pair.h
 3527              		.file 31 "c:\\program files\\daisytoolchain\\arm-none-eabi\\include\\c++\\10.2.1\\bits\\exception_
 3528              		.file 32 "c:\\program files\\daisytoolchain\\arm-none-eabi\\include\\c++\\10.2.1\\cstdarg"
 3529              		.file 33 "c:\\program files\\daisytoolchain\\arm-none-eabi\\include\\c++\\10.2.1\\cstdio"
 3530              		.file 34 "c:\\program files\\daisytoolchain\\arm-none-eabi\\include\\c++\\10.2.1\\cstring"
 3531              		.file 35 "c:\\program files\\daisytoolchain\\arm-none-eabi\\include\\c++\\10.2.1\\cwchar"
 3532              		.file 36 "c:\\program files\\daisytoolchain\\arm-none-eabi\\include\\c++\\10.2.1\\clocale"
 3533              		.file 37 "c:\\program files\\daisytoolchain\\arm-none-eabi\\include\\c++\\10.2.1\\bits\\basic_stri
 3534              		.file 38 "c:\\program files\\daisytoolchain\\arm-none-eabi\\include\\c++\\10.2.1\\bits\\stl_tempbu
 3535              		.file 39 "c:\\program files\\daisytoolchain\\arm-none-eabi\\include\\c++\\10.2.1\\bits\\predefined
 3536              		.file 40 "c:\\program files\\daisytoolchain\\arm-none-eabi\\include\\sys\\_types.h"
 3537              		.file 41 "c:\\program files\\daisytoolchain\\arm-none-eabi\\include\\sys\\reent.h"
 3538              		.file 42 "c:\\program files\\daisytoolchain\\arm-none-eabi\\include\\sys\\lock.h"
 3539              		.file 43 "c:\\program files\\daisytoolchain\\arm-none-eabi\\include\\math.h"
 3540              		.file 44 "c:\\program files\\daisytoolchain\\arm-none-eabi\\include\\stdlib.h"
 3541              		.file 45 "c:\\program files\\daisytoolchain\\arm-none-eabi\\include\\c++\\10.2.1\\math.h"
 3542              		.file 46 "c:\\program files\\daisytoolchain\\arm-none-eabi\\include\\c++\\10.2.1\\stdlib.h"
 3543              		.file 47 "../../libDaisy/src/per/tim.h"
 3544              		.file 48 "../../libDaisy/src/util/wav_format.h"
 3545              		.file 49 "../../libDaisy/src/dev/max11300.h"
 3546              		.file 50 "../../libDaisy/src/dev/sdram.h"
 3547              		.file 51 "c:\\program files\\daisytoolchain\\lib\\gcc\\arm-none-eabi\\10.2.1\\include\\stdarg.h"
 3548              		.file 52 "c:\\program files\\daisytoolchain\\arm-none-eabi\\include\\stdio.h"
 3549              		.file 53 "c:\\program files\\daisytoolchain\\arm-none-eabi\\include\\string.h"
 3550              		.file 54 "../../DaisySP/Source/Control/adenv.h"
 3551              		.file 55 "../../DaisySP/Source/Utility/dsp.h"
 3552              		.file 56 "c:\\program files\\daisytoolchain\\arm-none-eabi\\include\\wchar.h"
 3553              		.file 57 "c:\\program files\\daisytoolchain\\arm-none-eabi\\include\\locale.h"
ARM GAS  C:\Users\galla\AppData\Local\Temp\ccVNmTCK.s 			page 109


 3554              		.file 58 "TSTone.h"
 3555              		.file 59 "PeakEQ.h"
 3556              		.file 60 "../../libDaisy/src/dev/sr_595.h"
 3557              		.file 61 "<built-in>"
ARM GAS  C:\Users\galla\AppData\Local\Temp\ccVNmTCK.s 			page 110


DEFINED SYMBOLS
                            *ABS*:00000000 main.cpp
C:\Users\galla\AppData\Local\Temp\ccVNmTCK.s:17     .text._ZN5daisy9DaisySeedD2Ev:00000000 $t
C:\Users\galla\AppData\Local\Temp\ccVNmTCK.s:26     .text._ZN5daisy9DaisySeedD2Ev:00000000 _ZN5daisy9DaisySeedD2Ev
C:\Users\galla\AppData\Local\Temp\ccVNmTCK.s:26     .text._ZN5daisy9DaisySeedD2Ev:00000000 _ZN5daisy9DaisySeedD1Ev
C:\Users\galla\AppData\Local\Temp\ccVNmTCK.s:67     .text._ZN6DistBPC2Ev:00000000 $t
C:\Users\galla\AppData\Local\Temp\ccVNmTCK.s:75     .text._ZN6DistBPC2Ev:00000000 _ZN6DistBPC2Ev
C:\Users\galla\AppData\Local\Temp\ccVNmTCK.s:140    .text._ZN6DistBPC2Ev:00000074 $d
C:\Users\galla\AppData\Local\Temp\ccVNmTCK.s:75     .text._ZN6DistBPC2Ev:00000000 _ZN6DistBPC1Ev
C:\Users\galla\AppData\Local\Temp\ccVNmTCK.s:147    .text._ZN5BMlowC2Ev:00000000 $t
C:\Users\galla\AppData\Local\Temp\ccVNmTCK.s:155    .text._ZN5BMlowC2Ev:00000000 _ZN5BMlowC2Ev
C:\Users\galla\AppData\Local\Temp\ccVNmTCK.s:206    .text._ZN5BMlowC2Ev:00000050 $d
C:\Users\galla\AppData\Local\Temp\ccVNmTCK.s:155    .text._ZN5BMlowC2Ev:00000000 _ZN5BMlowC1Ev
C:\Users\galla\AppData\Local\Temp\ccVNmTCK.s:213    .text._ZN6BMhighC2Ev:00000000 $t
C:\Users\galla\AppData\Local\Temp\ccVNmTCK.s:221    .text._ZN6BMhighC2Ev:00000000 _ZN6BMhighC2Ev
C:\Users\galla\AppData\Local\Temp\ccVNmTCK.s:272    .text._ZN6BMhighC2Ev:00000050 $d
C:\Users\galla\AppData\Local\Temp\ccVNmTCK.s:221    .text._ZN6BMhighC2Ev:00000000 _ZN6BMhighC1Ev
C:\Users\galla\AppData\Local\Temp\ccVNmTCK.s:279    .text._ZN6DistHPC2Ev:00000000 $t
C:\Users\galla\AppData\Local\Temp\ccVNmTCK.s:287    .text._ZN6DistHPC2Ev:00000000 _ZN6DistHPC2Ev
C:\Users\galla\AppData\Local\Temp\ccVNmTCK.s:338    .text._ZN6DistHPC2Ev:00000050 $d
C:\Users\galla\AppData\Local\Temp\ccVNmTCK.s:287    .text._ZN6DistHPC2Ev:00000000 _ZN6DistHPC1Ev
C:\Users\galla\AppData\Local\Temp\ccVNmTCK.s:345    .text._Z5ts3ADf:00000000 $t
C:\Users\galla\AppData\Local\Temp\ccVNmTCK.s:353    .text._Z5ts3ADf:00000000 _Z5ts3ADf
C:\Users\galla\AppData\Local\Temp\ccVNmTCK.s:468    .text._Z2tsf:00000000 $t
C:\Users\galla\AppData\Local\Temp\ccVNmTCK.s:476    .text._Z2tsf:00000000 _Z2tsf
C:\Users\galla\AppData\Local\Temp\ccVNmTCK.s:508    .text._Z5bm3ADf:00000000 $t
C:\Users\galla\AppData\Local\Temp\ccVNmTCK.s:516    .text._Z5bm3ADf:00000000 _Z5bm3ADf
C:\Users\galla\AppData\Local\Temp\ccVNmTCK.s:653    .text._Z5bm3ADf:000000d8 $d
C:\Users\galla\AppData\Local\Temp\ccVNmTCK.s:668    .text._Z2bmf:00000000 $t
C:\Users\galla\AppData\Local\Temp\ccVNmTCK.s:676    .text._Z2bmf:00000000 _Z2bmf
C:\Users\galla\AppData\Local\Temp\ccVNmTCK.s:715    .text._Z2bmf:00000030 $d
C:\Users\galla\AppData\Local\Temp\ccVNmTCK.s:725    .text._Z5HM3ADf:00000000 $t
C:\Users\galla\AppData\Local\Temp\ccVNmTCK.s:733    .text._Z5HM3ADf:00000000 _Z5HM3ADf
C:\Users\galla\AppData\Local\Temp\ccVNmTCK.s:935    .text._Z5HM3ADf:000000d8 $d
C:\Users\galla\AppData\Local\Temp\ccVNmTCK.s:950    .text._Z2hmf:00000000 $t
C:\Users\galla\AppData\Local\Temp\ccVNmTCK.s:958    .text._Z2hmf:00000000 _Z2hmf
C:\Users\galla\AppData\Local\Temp\ccVNmTCK.s:997    .text._Z2hmf:00000030 $d
C:\Users\galla\AppData\Local\Temp\ccVNmTCK.s:1007   .text._Z9dist3ADAAf:00000000 $t
C:\Users\galla\AppData\Local\Temp\ccVNmTCK.s:1015   .text._Z9dist3ADAAf:00000000 _Z9dist3ADAAf
C:\Users\galla\AppData\Local\Temp\ccVNmTCK.s:1755   .text._Z9dist3ADAAf:00000340 $d
C:\Users\galla\AppData\Local\Temp\ccVNmTCK.s:1780   .text._Z9dist3ADAAf:00000394 $t
C:\Users\galla\AppData\Local\Temp\ccVNmTCK.s:1826   .text._Z9dist3ADAAf:000003dc $d
C:\Users\galla\AppData\Local\Temp\ccVNmTCK.s:1834   .text._Z13AudioCallbackPKPKfPPfj:00000000 $t
C:\Users\galla\AppData\Local\Temp\ccVNmTCK.s:1842   .text._Z13AudioCallbackPKPKfPPfj:00000000 _Z13AudioCallbackPKPKfPPfj
C:\Users\galla\AppData\Local\Temp\ccVNmTCK.s:2261   .text._Z13AudioCallbackPKPKfPPfj:000001f0 $d
C:\Users\galla\AppData\Local\Temp\ccVNmTCK.s:2288   .text._Z13InitializeADCv:00000000 $t
C:\Users\galla\AppData\Local\Temp\ccVNmTCK.s:2296   .text._Z13InitializeADCv:00000000 _Z13InitializeADCv
C:\Users\galla\AppData\Local\Temp\ccVNmTCK.s:2370   .text._Z13InitializeADCv:0000005c $d
C:\Users\galla\AppData\Local\Temp\ccVNmTCK.s:2375   .text.startup.main:00000000 $t
C:\Users\galla\AppData\Local\Temp\ccVNmTCK.s:2383   .text.startup.main:00000000 main
C:\Users\galla\AppData\Local\Temp\ccVNmTCK.s:3038   .text.startup.main:00000220 $d
C:\Users\galla\AppData\Local\Temp\ccVNmTCK.s:3067   .text.startup._GLOBAL__sub_I_hw:00000000 $t
C:\Users\galla\AppData\Local\Temp\ccVNmTCK.s:3074   .text.startup._GLOBAL__sub_I_hw:00000000 _GLOBAL__sub_I_hw
C:\Users\galla\AppData\Local\Temp\ccVNmTCK.s:3215   .text.startup._GLOBAL__sub_I_hw:00000030 $d
C:\Users\galla\AppData\Local\Temp\ccVNmTCK.s:3226   .init_array:00000000 $d
C:\Users\galla\AppData\Local\Temp\ccVNmTCK.s:3392   .bss.f3:00000000 f3
C:\Users\galla\AppData\Local\Temp\ccVNmTCK.s:3385   .bss.f2:00000000 f2
ARM GAS  C:\Users\galla\AppData\Local\Temp\ccVNmTCK.s 			page 111


C:\Users\galla\AppData\Local\Temp\ccVNmTCK.s:3378   .bss.f1:00000000 f1
C:\Users\galla\AppData\Local\Temp\ccVNmTCK.s:3371   .bss.f0:00000000 f0
C:\Users\galla\AppData\Local\Temp\ccVNmTCK.s:3496   .bss.x3:00000000 x3
C:\Users\galla\AppData\Local\Temp\ccVNmTCK.s:3489   .bss.x2:00000000 x2
C:\Users\galla\AppData\Local\Temp\ccVNmTCK.s:3482   .bss.x1:00000000 x1
C:\Users\galla\AppData\Local\Temp\ccVNmTCK.s:3420   .bss.knob3:00000000 knob3
C:\Users\galla\AppData\Local\Temp\ccVNmTCK.s:3413   .bss.knob2:00000000 knob2
C:\Users\galla\AppData\Local\Temp\ccVNmTCK.s:3406   .bss.knob1:00000000 knob1
C:\Users\galla\AppData\Local\Temp\ccVNmTCK.s:3364   .bss.effect:00000000 effect
C:\Users\galla\AppData\Local\Temp\ccVNmTCK.s:3426   .bss.on:00000000 on
C:\Users\galla\AppData\Local\Temp\ccVNmTCK.s:3461   .bss.stage5:00000000 stage5
C:\Users\galla\AppData\Local\Temp\ccVNmTCK.s:3454   .bss.stage4:00000000 stage4
C:\Users\galla\AppData\Local\Temp\ccVNmTCK.s:3447   .bss.stage3:00000000 stage3
C:\Users\galla\AppData\Local\Temp\ccVNmTCK.s:3440   .bss.stage2:00000000 stage2
C:\Users\galla\AppData\Local\Temp\ccVNmTCK.s:3433   .bss.stage1:00000000 stage1
C:\Users\galla\AppData\Local\Temp\ccVNmTCK.s:3468   .bss.tsHP:00000000 tsHP
C:\Users\galla\AppData\Local\Temp\ccVNmTCK.s:3475   .bss.tstone:00000000 tstone
C:\Users\galla\AppData\Local\Temp\ccVNmTCK.s:3350   .bss.bmHigh:00000000 bmHigh
C:\Users\galla\AppData\Local\Temp\ccVNmTCK.s:3357   .bss.bmLow:00000000 bmLow
C:\Users\galla\AppData\Local\Temp\ccVNmTCK.s:3343   .bss.bmBP:00000000 bmBP
C:\Users\galla\AppData\Local\Temp\ccVNmTCK.s:3399   .bss.hw:00000000 hw
C:\Users\galla\AppData\Local\Temp\ccVNmTCK.s:3252   .rodata:00000000 $d
C:\Users\galla\AppData\Local\Temp\ccVNmTCK.s:3339   .bss.bmBP:00000000 $d
C:\Users\galla\AppData\Local\Temp\ccVNmTCK.s:3346   .bss.bmHigh:00000000 $d
C:\Users\galla\AppData\Local\Temp\ccVNmTCK.s:3353   .bss.bmLow:00000000 $d
C:\Users\galla\AppData\Local\Temp\ccVNmTCK.s:3360   .bss.effect:00000000 $d
C:\Users\galla\AppData\Local\Temp\ccVNmTCK.s:3367   .bss.f0:00000000 $d
C:\Users\galla\AppData\Local\Temp\ccVNmTCK.s:3374   .bss.f1:00000000 $d
C:\Users\galla\AppData\Local\Temp\ccVNmTCK.s:3381   .bss.f2:00000000 $d
C:\Users\galla\AppData\Local\Temp\ccVNmTCK.s:3388   .bss.f3:00000000 $d
C:\Users\galla\AppData\Local\Temp\ccVNmTCK.s:3395   .bss.hw:00000000 $d
C:\Users\galla\AppData\Local\Temp\ccVNmTCK.s:3402   .bss.knob1:00000000 $d
C:\Users\galla\AppData\Local\Temp\ccVNmTCK.s:3409   .bss.knob2:00000000 $d
C:\Users\galla\AppData\Local\Temp\ccVNmTCK.s:3416   .bss.knob3:00000000 $d
C:\Users\galla\AppData\Local\Temp\ccVNmTCK.s:3427   .bss.on:00000000 $d
C:\Users\galla\AppData\Local\Temp\ccVNmTCK.s:3429   .bss.stage1:00000000 $d
C:\Users\galla\AppData\Local\Temp\ccVNmTCK.s:3436   .bss.stage2:00000000 $d
C:\Users\galla\AppData\Local\Temp\ccVNmTCK.s:3443   .bss.stage3:00000000 $d
C:\Users\galla\AppData\Local\Temp\ccVNmTCK.s:3450   .bss.stage4:00000000 $d
C:\Users\galla\AppData\Local\Temp\ccVNmTCK.s:3457   .bss.stage5:00000000 $d
C:\Users\galla\AppData\Local\Temp\ccVNmTCK.s:3464   .bss.tsHP:00000000 $d
C:\Users\galla\AppData\Local\Temp\ccVNmTCK.s:3471   .bss.tstone:00000000 $d
C:\Users\galla\AppData\Local\Temp\ccVNmTCK.s:3478   .bss.x1:00000000 $d
C:\Users\galla\AppData\Local\Temp\ccVNmTCK.s:3485   .bss.x2:00000000 $d
C:\Users\galla\AppData\Local\Temp\ccVNmTCK.s:3492   .bss.x3:00000000 $d
C:\Users\galla\AppData\Local\Temp\ccVNmTCK.s:3499   .rodata._ZN5daisy4seedL2D2E:00000000 $d
C:\Users\galla\AppData\Local\Temp\ccVNmTCK.s:3503   .rodata._ZN5daisy4seedL2D2E:00000000 _ZN5daisy4seedL2D2E
C:\Users\galla\AppData\Local\Temp\ccVNmTCK.s:3507   .rodata._ZN5daisy4seedL2D5E:00000000 $d
C:\Users\galla\AppData\Local\Temp\ccVNmTCK.s:3511   .rodata._ZN5daisy4seedL2D5E:00000000 _ZN5daisy4seedL2D5E
                           .group:00000000 _ZN5daisy9DaisySeedD5Ev
                           .group:00000000 _ZN6DistBPC5Ev
                           .group:00000000 _ZN5BMlowC5Ev
                           .group:00000000 _ZN6BMhighC5Ev
                           .group:00000000 _ZN6DistHPC5Ev

UNDEFINED SYMBOLS
logf
ARM GAS  C:\Users\galla\AppData\Local\Temp\ccVNmTCK.s 			page 112


_ZNK5daisy9AdcHandle8GetFloatEh
_ZN6TSTone7setFreqEf
_ZN6PeakEQ7setGainEf
_ZN6DistHP7ProcessEf
_ZN6TSTone7ProcessEf
_ZN6PeakEQ7ProcessEf
_ZN6DistBP7ProcessEf
_ZN5BMlow7ProcessEf
_ZN6BMhigh7ProcessEf
_ZN5daisy9DaisySeed6GetPinEh
_ZN5daisy16AdcChannelConfig10InitSingleE12dsy_gpio_pinNS0_15ConversionSpeedE
_ZN5daisy9AdcHandle4InitEPNS_16AdcChannelConfigEjNS0_12OverSamplingE
_ZN5daisy9AdcHandle5StartEv
_ZN5daisy9DaisySeed9ConfigureEv
_ZN5daisy9DaisySeed4InitEb
_ZN5daisy9DaisySeed18SetAudioSampleRateENS_9SaiHandle6Config10SampleRateE
_ZN5daisy9DaisySeed17SetAudioBlockSizeEj
_ZN6DistBP4InitEv
_ZN6BMhigh4InitEv
_ZN5BMlow4InitEv
_ZN6PeakEQ4InitEv
_ZN6PeakEQ9setParamsEfff
_ZN6TSTone4InitEv
_ZN6DistHP4InitEv
_ZN5daisy6Switch4InitE12dsy_gpio_pinf
dsy_gpio_init
_ZN5daisy4GPIO4InitENS_3PinENS0_4ModeENS0_4PullENS0_5SpeedE
_ZN5daisy4GPIO5WriteEb
dsy_gpio_read
_ZN5daisy9DaisySeed10StartAudioEPFvPKPKfPPfjE
_ZN5daisy6Switch8DebounceEv
__aeabi_atexit
__dso_handle
