ARM GAS  C:\Users\galla\AppData\Local\Temp\ccOJAY1x.s 			page 1


   1              		.cpu cortex-m7
   2              		.eabi_attribute 28, 1
   3              		.eabi_attribute 20, 1
   4              		.eabi_attribute 21, 1
   5              		.eabi_attribute 23, 3
   6              		.eabi_attribute 24, 1
   7              		.eabi_attribute 25, 1
   8              		.eabi_attribute 26, 1
   9              		.eabi_attribute 30, 2
  10              		.eabi_attribute 34, 1
  11              		.eabi_attribute 18, 4
  12              		.file	"main.cpp"
  13              		.text
  14              	.Ltext0:
  15              		.cfi_sections	.debug_frame
  16              		.section	.text._ZN5daisy9DaisySeedD2Ev,"axG",%progbits,_ZN5daisy9DaisySeedD5Ev,comdat
  17              		.align	1
  18              		.p2align 2,,3
  19              		.weak	_ZN5daisy9DaisySeedD2Ev
  20              		.arch armv7e-m
  21              		.syntax unified
  22              		.thumb
  23              		.thumb_func
  24              		.fpu fpv5-d16
  26              	_ZN5daisy9DaisySeedD2Ev:
  27              	.LVL0:
  28              	.LFB2555:
  29              		.file 1 "../../libDaisy/src/daisy_seed.h"
   1:../../libDaisy/src/daisy_seed.h **** #pragma once
   2:../../libDaisy/src/daisy_seed.h **** #ifndef DSY_SEED_H
   3:../../libDaisy/src/daisy_seed.h **** #define DSY_SEED_H
   4:../../libDaisy/src/daisy_seed.h **** 
   5:../../libDaisy/src/daisy_seed.h **** #include "daisy.h"
   6:../../libDaisy/src/daisy_seed.h **** 
   7:../../libDaisy/src/daisy_seed.h **** //Uncomment this out if you're still using the rev2 hardware
   8:../../libDaisy/src/daisy_seed.h **** //#define SEED_REV2
   9:../../libDaisy/src/daisy_seed.h **** 
  10:../../libDaisy/src/daisy_seed.h **** namespace daisy
  11:../../libDaisy/src/daisy_seed.h **** {
  12:../../libDaisy/src/daisy_seed.h **** /**
  13:../../libDaisy/src/daisy_seed.h ****    @brief This is the higher-level interface for the Daisy board. \n 
  14:../../libDaisy/src/daisy_seed.h ****     All basic peripheral configuration/initialization is setup here. \n
  15:../../libDaisy/src/daisy_seed.h **** 
  16:../../libDaisy/src/daisy_seed.h ****    @ingroup boards
  17:../../libDaisy/src/daisy_seed.h **** */
  18:../../libDaisy/src/daisy_seed.h **** class DaisySeed
  19:../../libDaisy/src/daisy_seed.h **** {
  20:../../libDaisy/src/daisy_seed.h ****   public:
  21:../../libDaisy/src/daisy_seed.h ****     DaisySeed() {}
  22:../../libDaisy/src/daisy_seed.h ****     ~DaisySeed() {}
  30              		.loc 1 22 5 view -0
  31              		.cfi_startproc
  32              		@ args = 0, pretend = 0, frame = 0
  33              		@ frame_needed = 0, uses_anonymous_args = 0
  34              		@ link register save eliminated.
  35              	.LBB151:
  36              	.LBI151:
ARM GAS  C:\Users\galla\AppData\Local\Temp\ccOJAY1x.s 			page 2


  37              		.file 2 "../../libDaisy/src/sys/system.h"
   1:../../libDaisy/src/sys/system.h **** #ifndef DSY_SYSTEM_H
   2:../../libDaisy/src/sys/system.h **** #define DSY_SYSTEM_H
   3:../../libDaisy/src/sys/system.h **** 
   4:../../libDaisy/src/sys/system.h **** #ifndef UNIT_TEST // for unit tests, a dummy implementation is provided below
   5:../../libDaisy/src/sys/system.h **** 
   6:../../libDaisy/src/sys/system.h **** #include <cstdint>
   7:../../libDaisy/src/sys/system.h **** #include "per/tim.h"
   8:../../libDaisy/src/sys/system.h **** 
   9:../../libDaisy/src/sys/system.h **** namespace daisy
  10:../../libDaisy/src/sys/system.h **** {
  11:../../libDaisy/src/sys/system.h **** /** A handle for interacting with the Core System.
  12:../../libDaisy/src/sys/system.h ****  ** This includes the Clock tree, MPU, global DMA initialization,
  13:../../libDaisy/src/sys/system.h ****  ** cache handling, and any other necessary global initiailzation
  14:../../libDaisy/src/sys/system.h ****  **
  15:../../libDaisy/src/sys/system.h ****  ** @author shensley
  16:../../libDaisy/src/sys/system.h ****  ** @ingroup system
  17:../../libDaisy/src/sys/system.h ****  */
  18:../../libDaisy/src/sys/system.h **** class System
  19:../../libDaisy/src/sys/system.h **** {
  20:../../libDaisy/src/sys/system.h ****   public:
  21:../../libDaisy/src/sys/system.h ****     /** Contains settings for initializing the System */
  22:../../libDaisy/src/sys/system.h ****     struct Config
  23:../../libDaisy/src/sys/system.h ****     {
  24:../../libDaisy/src/sys/system.h ****         /** Specifies the system clock frequency that feeds APB/AHB clocks, etc. */
  25:../../libDaisy/src/sys/system.h ****         enum class SysClkFreq
  26:../../libDaisy/src/sys/system.h ****         {
  27:../../libDaisy/src/sys/system.h ****             FREQ_400MHZ,
  28:../../libDaisy/src/sys/system.h ****             FREQ_480MHZ,
  29:../../libDaisy/src/sys/system.h ****         };
  30:../../libDaisy/src/sys/system.h **** 
  31:../../libDaisy/src/sys/system.h ****         /** Method to call on the struct to set to defaults
  32:../../libDaisy/src/sys/system.h ****          ** CPU Freq set to 400MHz
  33:../../libDaisy/src/sys/system.h ****          ** Cache Enabled
  34:../../libDaisy/src/sys/system.h ****          ** */
  35:../../libDaisy/src/sys/system.h ****         void Defaults()
  36:../../libDaisy/src/sys/system.h ****         {
  37:../../libDaisy/src/sys/system.h ****             cpu_freq    = SysClkFreq::FREQ_400MHZ;
  38:../../libDaisy/src/sys/system.h ****             use_dcache  = true;
  39:../../libDaisy/src/sys/system.h ****             use_icache  = true;
  40:../../libDaisy/src/sys/system.h ****             skip_clocks = false;
  41:../../libDaisy/src/sys/system.h ****         }
  42:../../libDaisy/src/sys/system.h **** 
  43:../../libDaisy/src/sys/system.h ****         /** Method to call on the struct to set to boost mode:
  44:../../libDaisy/src/sys/system.h ****          ** CPU Freq set to 480MHz
  45:../../libDaisy/src/sys/system.h ****          ** Cache Enabled
  46:../../libDaisy/src/sys/system.h ****          ** */
  47:../../libDaisy/src/sys/system.h ****         void Boost()
  48:../../libDaisy/src/sys/system.h ****         {
  49:../../libDaisy/src/sys/system.h ****             cpu_freq    = SysClkFreq::FREQ_480MHZ;
  50:../../libDaisy/src/sys/system.h ****             use_dcache  = true;
  51:../../libDaisy/src/sys/system.h ****             use_icache  = true;
  52:../../libDaisy/src/sys/system.h ****             skip_clocks = false;
  53:../../libDaisy/src/sys/system.h ****         }
  54:../../libDaisy/src/sys/system.h **** 
  55:../../libDaisy/src/sys/system.h ****         SysClkFreq cpu_freq;
  56:../../libDaisy/src/sys/system.h ****         bool       use_dcache;
ARM GAS  C:\Users\galla\AppData\Local\Temp\ccOJAY1x.s 			page 3


  57:../../libDaisy/src/sys/system.h ****         bool       use_icache;
  58:../../libDaisy/src/sys/system.h ****         bool       skip_clocks;
  59:../../libDaisy/src/sys/system.h ****     };
  60:../../libDaisy/src/sys/system.h **** 
  61:../../libDaisy/src/sys/system.h ****     /** Describes the different regions of memory available to the Daisy */
  62:../../libDaisy/src/sys/system.h ****     enum MemoryRegion
  63:../../libDaisy/src/sys/system.h ****     {
  64:../../libDaisy/src/sys/system.h ****         INTERNAL_FLASH = 0,
  65:../../libDaisy/src/sys/system.h ****         ITCMRAM,
  66:../../libDaisy/src/sys/system.h ****         DTCMRAM,
  67:../../libDaisy/src/sys/system.h ****         SRAM_D1,
  68:../../libDaisy/src/sys/system.h ****         SRAM_D2,
  69:../../libDaisy/src/sys/system.h ****         SRAM_D3,
  70:../../libDaisy/src/sys/system.h ****         SDRAM,
  71:../../libDaisy/src/sys/system.h ****         QSPI,
  72:../../libDaisy/src/sys/system.h ****         INVALID_ADDRESS,
  73:../../libDaisy/src/sys/system.h ****     };
  74:../../libDaisy/src/sys/system.h **** 
  75:../../libDaisy/src/sys/system.h ****     /** Bootloader struct for controlling bootloading parameters */
  76:../../libDaisy/src/sys/system.h ****     struct BootInfo
  77:../../libDaisy/src/sys/system.h ****     {
  78:../../libDaisy/src/sys/system.h ****         enum class Type : uint32_t
  79:../../libDaisy/src/sys/system.h ****         {
  80:../../libDaisy/src/sys/system.h ****             INVALID      = 0x00000000,
  81:../../libDaisy/src/sys/system.h ****             JUMP         = 0xDEADBEEF,
  82:../../libDaisy/src/sys/system.h ****             SKIP_TIMEOUT = 0x5AFEB007,
  83:../../libDaisy/src/sys/system.h ****             INF_TIMEOUT  = 0xB0074EFA,
  84:../../libDaisy/src/sys/system.h ****         } status;
  85:../../libDaisy/src/sys/system.h ****         uint32_t data;
  86:../../libDaisy/src/sys/system.h ****         enum class Version : uint32_t
  87:../../libDaisy/src/sys/system.h ****         {
  88:../../libDaisy/src/sys/system.h ****             LT_v6_0 = 0, // Less than v6.0
  89:../../libDaisy/src/sys/system.h ****             NONE,        // No bootloader present
  90:../../libDaisy/src/sys/system.h ****             v6_0,        // v6.0
  91:../../libDaisy/src/sys/system.h ****             v6_1,        // v6.1 or greater
  92:../../libDaisy/src/sys/system.h ****             LAST
  93:../../libDaisy/src/sys/system.h ****         } version;
  94:../../libDaisy/src/sys/system.h ****     };
  95:../../libDaisy/src/sys/system.h **** 
  96:../../libDaisy/src/sys/system.h ****     System() {}
  97:../../libDaisy/src/sys/system.h ****     ~System() {}
  38              		.loc 2 97 5 view .LVU1
  39              		.loc 2 97 5 is_stmt 0 view .LVU2
  40              	.LBE151:
  41              	.LBB152:
  42              	.LBI152:
  43              		.file 3 "../../libDaisy/src/hid/usb.h"
   1:../../libDaisy/src/hid/usb.h **** #pragma once
   2:../../libDaisy/src/hid/usb.h **** #ifndef DSY_HID_USB_H
   3:../../libDaisy/src/hid/usb.h **** #define DSY_HID_USB_H
   4:../../libDaisy/src/hid/usb.h **** #include <stdint.h>
   5:../../libDaisy/src/hid/usb.h **** #include <stdlib.h>
   6:../../libDaisy/src/hid/usb.h **** 
   7:../../libDaisy/src/hid/usb.h **** namespace daisy
   8:../../libDaisy/src/hid/usb.h **** /** @addtogroup human_interface
   9:../../libDaisy/src/hid/usb.h ****     @{
  10:../../libDaisy/src/hid/usb.h **** */
ARM GAS  C:\Users\galla\AppData\Local\Temp\ccOJAY1x.s 			page 4


  11:../../libDaisy/src/hid/usb.h **** 
  12:../../libDaisy/src/hid/usb.h **** {
  13:../../libDaisy/src/hid/usb.h **** /** 
  14:../../libDaisy/src/hid/usb.h ****     @brief Interface for initializing and using the USB Peripherals on the daisy
  15:../../libDaisy/src/hid/usb.h ****     @author Stephen Hensley
  16:../../libDaisy/src/hid/usb.h ****     @date December 2019
  17:../../libDaisy/src/hid/usb.h **** */
  18:../../libDaisy/src/hid/usb.h **** class UsbHandle
  19:../../libDaisy/src/hid/usb.h **** {
  20:../../libDaisy/src/hid/usb.h ****   public:
  21:../../libDaisy/src/hid/usb.h ****     /** Return values for USBHandle Functions */
  22:../../libDaisy/src/hid/usb.h ****     enum class Result
  23:../../libDaisy/src/hid/usb.h ****     {
  24:../../libDaisy/src/hid/usb.h ****         OK,
  25:../../libDaisy/src/hid/usb.h ****         ERR,
  26:../../libDaisy/src/hid/usb.h ****     };
  27:../../libDaisy/src/hid/usb.h **** 
  28:../../libDaisy/src/hid/usb.h ****     /** Specified which of the two USB Peripherals to initialize. */
  29:../../libDaisy/src/hid/usb.h ****     enum UsbPeriph
  30:../../libDaisy/src/hid/usb.h ****     {
  31:../../libDaisy/src/hid/usb.h ****         FS_INTERNAL, /**< Internal pin */
  32:../../libDaisy/src/hid/usb.h ****         FS_EXTERNAL, /**< FS External D+ pin is Pin 38 (GPIO32). FS External D- pin is Pin 37 (GPIO
  33:../../libDaisy/src/hid/usb.h ****         FS_BOTH,     /**< Both */
  34:../../libDaisy/src/hid/usb.h ****     };
  35:../../libDaisy/src/hid/usb.h **** 
  36:../../libDaisy/src/hid/usb.h **** 
  37:../../libDaisy/src/hid/usb.h ****     /** Function called upon reception of a buffer */
  38:../../libDaisy/src/hid/usb.h ****     typedef void (*ReceiveCallback)(uint8_t* buff, uint32_t* len);
  39:../../libDaisy/src/hid/usb.h **** 
  40:../../libDaisy/src/hid/usb.h ****     UsbHandle() {}
  41:../../libDaisy/src/hid/usb.h **** 
  42:../../libDaisy/src/hid/usb.h ****     ~UsbHandle() {}
  44              		.loc 3 42 5 is_stmt 1 view .LVU3
  45              		.loc 3 42 5 is_stmt 0 view .LVU4
  46              	.LBE152:
  47              	.LBB153:
  48              	.LBI153:
  49              		.file 4 "../../libDaisy/src/per/adc.h"
   1:../../libDaisy/src/per/adc.h **** #pragma once
   2:../../libDaisy/src/per/adc.h **** #ifndef DSY_ADC_H
   3:../../libDaisy/src/per/adc.h **** #define DSY_ADC_H /**< Macro */
   4:../../libDaisy/src/per/adc.h **** #include <stdint.h>
   5:../../libDaisy/src/per/adc.h **** #include <stdlib.h>
   6:../../libDaisy/src/per/adc.h **** #include "daisy_core.h"
   7:../../libDaisy/src/per/adc.h **** #include "per/gpio.h"
   8:../../libDaisy/src/per/adc.h **** 
   9:../../libDaisy/src/per/adc.h **** #define DSY_ADC_MAX_CHANNELS 16 /**< Maximum number of ADC channels */
  10:../../libDaisy/src/per/adc.h **** 
  11:../../libDaisy/src/per/adc.h **** namespace daisy
  12:../../libDaisy/src/per/adc.h **** {
  13:../../libDaisy/src/per/adc.h **** /** @addtogroup per_analog
  14:../../libDaisy/src/per/adc.h ****     @{
  15:../../libDaisy/src/per/adc.h **** */
  16:../../libDaisy/src/per/adc.h **** 
  17:../../libDaisy/src/per/adc.h **** /* While there may not be many configuration options here,
  18:../../libDaisy/src/per/adc.h **** using a struct like this allows us to add more configuration
  19:../../libDaisy/src/per/adc.h **** later without breaking existing functionality.
ARM GAS  C:\Users\galla\AppData\Local\Temp\ccOJAY1x.s 			page 5


  20:../../libDaisy/src/per/adc.h **** */
  21:../../libDaisy/src/per/adc.h **** 
  22:../../libDaisy/src/per/adc.h **** /** @brief   Configuration Structure for an ADC Channel 
  23:../../libDaisy/src/per/adc.h ****  *  @details This can be used to configure a a single input, 
  24:../../libDaisy/src/per/adc.h ****  *           or a multiplexed input, allowing up to 8 inputs on 
  25:../../libDaisy/src/per/adc.h ****  *           one channel.
  26:../../libDaisy/src/per/adc.h ****  *  @note    Sharing data lines to multiple muxes _is_ possible, but
  27:../../libDaisy/src/per/adc.h ****  *           each channel sharing data lines must be set to the maximum
  28:../../libDaisy/src/per/adc.h ****  *           number of channels, even if some multiplexers have fewer
  29:../../libDaisy/src/per/adc.h ****  *           inputs connected.
  30:../../libDaisy/src/per/adc.h **** */
  31:../../libDaisy/src/per/adc.h **** struct AdcChannelConfig
  32:../../libDaisy/src/per/adc.h **** {
  33:../../libDaisy/src/per/adc.h ****     /** Which pin to use for multiplexing */
  34:../../libDaisy/src/per/adc.h ****     enum MuxPin
  35:../../libDaisy/src/per/adc.h ****     {
  36:../../libDaisy/src/per/adc.h ****         MUX_SEL_0,    /**< & */
  37:../../libDaisy/src/per/adc.h ****         MUX_SEL_1,    /**< & */
  38:../../libDaisy/src/per/adc.h ****         MUX_SEL_2,    /**< & */
  39:../../libDaisy/src/per/adc.h ****         MUX_SEL_LAST, /**< & */
  40:../../libDaisy/src/per/adc.h ****     };
  41:../../libDaisy/src/per/adc.h **** 
  42:../../libDaisy/src/per/adc.h ****     /** \brief per channel conversion speed added to fixed time based on bitdepth, etc. */
  43:../../libDaisy/src/per/adc.h ****     enum ConversionSpeed
  44:../../libDaisy/src/per/adc.h ****     {
  45:../../libDaisy/src/per/adc.h ****         SPEED_1CYCLES_5,
  46:../../libDaisy/src/per/adc.h ****         SPEED_2CYCLES_5,
  47:../../libDaisy/src/per/adc.h ****         SPEED_8CYCLES_5,
  48:../../libDaisy/src/per/adc.h ****         SPEED_16CYCLES_5,
  49:../../libDaisy/src/per/adc.h ****         SPEED_32CYCLES_5,
  50:../../libDaisy/src/per/adc.h ****         SPEED_64CYCLES_5,
  51:../../libDaisy/src/per/adc.h ****         SPEED_387CYCLES_5,
  52:../../libDaisy/src/per/adc.h ****         SPEED_810CYCLES_5,
  53:../../libDaisy/src/per/adc.h ****     };
  54:../../libDaisy/src/per/adc.h **** 
  55:../../libDaisy/src/per/adc.h ****     /** Initializes a single ADC pin as an ADC. 
  56:../../libDaisy/src/per/adc.h ****     \param pin Pin to init.
  57:../../libDaisy/src/per/adc.h ****     \param speed conversion speed for this pin defaults to 8.5 cycles
  58:../../libDaisy/src/per/adc.h ****      */
  59:../../libDaisy/src/per/adc.h ****     void InitSingle(dsy_gpio_pin pin, ConversionSpeed speed = SPEED_8CYCLES_5);
  60:../../libDaisy/src/per/adc.h **** 
  61:../../libDaisy/src/per/adc.h ****     /** 
  62:../../libDaisy/src/per/adc.h ****     Initializes a single ADC pin as a Multiplexed ADC.
  63:../../libDaisy/src/per/adc.h ****     Requires a CD405X Multiplexer connected to the pin.
  64:../../libDaisy/src/per/adc.h ****     You only need to supply the mux pins that are required,
  65:../../libDaisy/src/per/adc.h ****     e.g. a 4052 mux would only require mux_0 and mux_1.
  66:../../libDaisy/src/per/adc.h ****     Internal Callbacks handle the pin addressing.
  67:../../libDaisy/src/per/adc.h ****     \param adc_pin &
  68:../../libDaisy/src/per/adc.h ****     \param mux_channels must be 1-8
  69:../../libDaisy/src/per/adc.h ****     \param mux_0 First mux pin
  70:../../libDaisy/src/per/adc.h ****     \param mux_1 Second mux pin
  71:../../libDaisy/src/per/adc.h ****     \param mux_2 Third mux pin
  72:../../libDaisy/src/per/adc.h ****     \param speed conversion speed for this pin defaults to 8.5 cycles
  73:../../libDaisy/src/per/adc.h ****     */
  74:../../libDaisy/src/per/adc.h ****     void InitMux(dsy_gpio_pin    adc_pin,
  75:../../libDaisy/src/per/adc.h ****                  size_t          mux_channels,
  76:../../libDaisy/src/per/adc.h ****                  dsy_gpio_pin    mux_0,
ARM GAS  C:\Users\galla\AppData\Local\Temp\ccOJAY1x.s 			page 6


  77:../../libDaisy/src/per/adc.h ****                  dsy_gpio_pin    mux_1 = {DSY_GPIOX, 0},
  78:../../libDaisy/src/per/adc.h ****                  dsy_gpio_pin    mux_2 = {DSY_GPIOX, 0},
  79:../../libDaisy/src/per/adc.h ****                  ConversionSpeed speed = SPEED_8CYCLES_5);
  80:../../libDaisy/src/per/adc.h **** 
  81:../../libDaisy/src/per/adc.h ****     dsy_gpio        pin_;                   /**< & */
  82:../../libDaisy/src/per/adc.h ****     dsy_gpio        mux_pin_[MUX_SEL_LAST]; /**< & */
  83:../../libDaisy/src/per/adc.h ****     uint8_t         mux_channels_;          /**< & */
  84:../../libDaisy/src/per/adc.h ****     ConversionSpeed speed_;
  85:../../libDaisy/src/per/adc.h **** };
  86:../../libDaisy/src/per/adc.h **** 
  87:../../libDaisy/src/per/adc.h **** /**
  88:../../libDaisy/src/per/adc.h ****    @brief Handler for analog to digital conversion
  89:../../libDaisy/src/per/adc.h **** */
  90:../../libDaisy/src/per/adc.h **** class AdcHandle
  91:../../libDaisy/src/per/adc.h **** {
  92:../../libDaisy/src/per/adc.h ****   public:
  93:../../libDaisy/src/per/adc.h ****     /** Supported oversampling amounts */
  94:../../libDaisy/src/per/adc.h ****     enum OverSampling
  95:../../libDaisy/src/per/adc.h ****     {
  96:../../libDaisy/src/per/adc.h ****         OVS_NONE, /**< & */
  97:../../libDaisy/src/per/adc.h ****         OVS_4,    /**< & */
  98:../../libDaisy/src/per/adc.h ****         OVS_8,    /**< & */
  99:../../libDaisy/src/per/adc.h ****         OVS_16,   /**< & */
 100:../../libDaisy/src/per/adc.h ****         OVS_32,   /**< & */
 101:../../libDaisy/src/per/adc.h ****         OVS_64,   /**< & */
 102:../../libDaisy/src/per/adc.h ****         OVS_128,  /**< & */
 103:../../libDaisy/src/per/adc.h ****         OVS_256,  /**< & */
 104:../../libDaisy/src/per/adc.h ****         OVS_512,  /**< & */
 105:../../libDaisy/src/per/adc.h ****         OVS_1024, /**< & */
 106:../../libDaisy/src/per/adc.h ****         OVS_LAST, /**< & */
 107:../../libDaisy/src/per/adc.h ****     };
 108:../../libDaisy/src/per/adc.h **** 
 109:../../libDaisy/src/per/adc.h ****     AdcHandle() {}
 110:../../libDaisy/src/per/adc.h ****     ~AdcHandle() {}
  50              		.loc 4 110 5 is_stmt 1 view .LVU5
  51              		.loc 4 110 5 is_stmt 0 view .LVU6
  52              	.LBE153:
  53              	.LBB154:
  54              	.LBI154:
  55              		.file 5 "../../libDaisy/src/hid/audio.h"
   1:../../libDaisy/src/hid/audio.h **** #ifndef DSY_AUDIO_H
   2:../../libDaisy/src/hid/audio.h **** #define DSY_AUDIO_H /**< & */
   3:../../libDaisy/src/hid/audio.h **** 
   4:../../libDaisy/src/hid/audio.h **** #include "per/sai.h"
   5:../../libDaisy/src/hid/audio.h **** 
   6:../../libDaisy/src/hid/audio.h **** namespace daisy
   7:../../libDaisy/src/hid/audio.h **** {
   8:../../libDaisy/src/hid/audio.h **** /** @brief Audio Engine Handle
   9:../../libDaisy/src/hid/audio.h ****  *  @ingroup audio 
  10:../../libDaisy/src/hid/audio.h ****  *  @details This class allows for higher level access to an audio engine.
  11:../../libDaisy/src/hid/audio.h ****  *           If you're using a SOM like the DaisySeed or DaisyPatchSM (or any 
  12:../../libDaisy/src/hid/audio.h ****  *            board that includes one of those objects) then the intialization
  13:../../libDaisy/src/hid/audio.h ****  *            is already taken  care of.
  14:../../libDaisy/src/hid/audio.h ****  *           If you're setting up your own custom hardware, or need to make changes
  15:../../libDaisy/src/hid/audio.h ****  *           you will have to take the following steps:
  16:../../libDaisy/src/hid/audio.h ****  *             1. Create and Initialize an SaiHandle or two depending on your requirements
  17:../../libDaisy/src/hid/audio.h ****  *             2. Initialize the Audio Handle with the desired settings and the Initialized SaiHand
ARM GAS  C:\Users\galla\AppData\Local\Temp\ccOJAY1x.s 			page 7


  18:../../libDaisy/src/hid/audio.h ****  *             3. If the connected codec requires special configuration or initialization, do so
  19:../../libDaisy/src/hid/audio.h ****  *             4. Write a callback method using either the AudioCallback or the InterleavingAudioCa
  20:../../libDaisy/src/hid/audio.h ****  *             5. Start the Audio using one of the StartAudio function
  21:../../libDaisy/src/hid/audio.h ****  */
  22:../../libDaisy/src/hid/audio.h **** class AudioHandle
  23:../../libDaisy/src/hid/audio.h **** {
  24:../../libDaisy/src/hid/audio.h ****   public:
  25:../../libDaisy/src/hid/audio.h ****     /** Manually configurable details about the Audio Engine */
  26:../../libDaisy/src/hid/audio.h ****     /** TODO: Figure out how to get samplerate in here. */
  27:../../libDaisy/src/hid/audio.h ****     struct Config
  28:../../libDaisy/src/hid/audio.h ****     {
  29:../../libDaisy/src/hid/audio.h ****         /** number of samples to process per callback */
  30:../../libDaisy/src/hid/audio.h ****         size_t blocksize;
  31:../../libDaisy/src/hid/audio.h **** 
  32:../../libDaisy/src/hid/audio.h ****         /**< Sample rate of audio */
  33:../../libDaisy/src/hid/audio.h ****         SaiHandle::Config::SampleRate samplerate;
  34:../../libDaisy/src/hid/audio.h **** 
  35:../../libDaisy/src/hid/audio.h ****         /** factor for adjustment before and after callback for hardware that may have extra headro
  36:../../libDaisy/src/hid/audio.h ****         float postgain;
  37:../../libDaisy/src/hid/audio.h **** 
  38:../../libDaisy/src/hid/audio.h ****         /** factor for additional one-sided compensation to audio path for hardware that may
  39:../../libDaisy/src/hid/audio.h ****          *  have unequal input/output ranges
  40:../../libDaisy/src/hid/audio.h ****          */
  41:../../libDaisy/src/hid/audio.h ****         float output_compensation;
  42:../../libDaisy/src/hid/audio.h **** 
  43:../../libDaisy/src/hid/audio.h ****         /** Sets default values for config struct */
  44:../../libDaisy/src/hid/audio.h ****         Config()
  45:../../libDaisy/src/hid/audio.h ****         : blocksize(48),
  46:../../libDaisy/src/hid/audio.h ****           samplerate(SaiHandle::Config::SampleRate::SAI_48KHZ),
  47:../../libDaisy/src/hid/audio.h ****           postgain(1.f),
  48:../../libDaisy/src/hid/audio.h ****           output_compensation(1.f)
  49:../../libDaisy/src/hid/audio.h ****         {
  50:../../libDaisy/src/hid/audio.h ****         }
  51:../../libDaisy/src/hid/audio.h ****     };
  52:../../libDaisy/src/hid/audio.h **** 
  53:../../libDaisy/src/hid/audio.h ****     enum class Result
  54:../../libDaisy/src/hid/audio.h ****     {
  55:../../libDaisy/src/hid/audio.h ****         OK,
  56:../../libDaisy/src/hid/audio.h ****         ERR,
  57:../../libDaisy/src/hid/audio.h ****     };
  58:../../libDaisy/src/hid/audio.h **** 
  59:../../libDaisy/src/hid/audio.h ****     /** Non-Interleaving input buffer
  60:../../libDaisy/src/hid/audio.h ****      * Buffer arranged by float[chn][sample] 
  61:../../libDaisy/src/hid/audio.h ****      * const so that the user can't modify the input
  62:../../libDaisy/src/hid/audio.h ****      */
  63:../../libDaisy/src/hid/audio.h ****     typedef const float* const* InputBuffer;
  64:../../libDaisy/src/hid/audio.h **** 
  65:../../libDaisy/src/hid/audio.h ****     /** Non-Interleaving output buffer
  66:../../libDaisy/src/hid/audio.h ****      * Arranged by float[chn][sample] 
  67:../../libDaisy/src/hid/audio.h ****      */
  68:../../libDaisy/src/hid/audio.h ****     typedef float** OutputBuffer;
  69:../../libDaisy/src/hid/audio.h **** 
  70:../../libDaisy/src/hid/audio.h ****     /** Type for a Non-Interleaving audio callback 
  71:../../libDaisy/src/hid/audio.h ****      * Non-Interleaving audio callbacks in daisy will be of this type
  72:../../libDaisy/src/hid/audio.h ****      */
  73:../../libDaisy/src/hid/audio.h ****     typedef void (*AudioCallback)(InputBuffer  in,
  74:../../libDaisy/src/hid/audio.h ****                                   OutputBuffer out,
ARM GAS  C:\Users\galla\AppData\Local\Temp\ccOJAY1x.s 			page 8


  75:../../libDaisy/src/hid/audio.h ****                                   size_t       size);
  76:../../libDaisy/src/hid/audio.h **** 
  77:../../libDaisy/src/hid/audio.h ****     /** Interleaving Input buffer
  78:../../libDaisy/src/hid/audio.h ****      ** audio is prepared as { L0, R0, L1, R1, . . . LN, RN }]
  79:../../libDaisy/src/hid/audio.h ****      ** this is const, as the user shouldn't modify it
  80:../../libDaisy/src/hid/audio.h ****     */
  81:../../libDaisy/src/hid/audio.h ****     typedef const float* InterleavingInputBuffer;
  82:../../libDaisy/src/hid/audio.h **** 
  83:../../libDaisy/src/hid/audio.h ****     /** Interleaving Output buffer 
  84:../../libDaisy/src/hid/audio.h ****      ** audio is prepared as { L0, R0, L1, R1, . . . LN, RN }
  85:../../libDaisy/src/hid/audio.h ****     */
  86:../../libDaisy/src/hid/audio.h ****     typedef float* InterleavingOutputBuffer;
  87:../../libDaisy/src/hid/audio.h **** 
  88:../../libDaisy/src/hid/audio.h ****     /** Interleaving Audio Callback 
  89:../../libDaisy/src/hid/audio.h ****      * Interleaving audio callbacks in daisy must be of this type
  90:../../libDaisy/src/hid/audio.h ****      */
  91:../../libDaisy/src/hid/audio.h ****     typedef void (*InterleavingAudioCallback)(InterleavingInputBuffer  in,
  92:../../libDaisy/src/hid/audio.h ****                                               InterleavingOutputBuffer out,
  93:../../libDaisy/src/hid/audio.h ****                                               size_t                   size);
  94:../../libDaisy/src/hid/audio.h **** 
  95:../../libDaisy/src/hid/audio.h ****     AudioHandle() : pimpl_(nullptr) {}
  96:../../libDaisy/src/hid/audio.h ****     ~AudioHandle() {}
  56              		.loc 5 96 5 is_stmt 1 view .LVU7
  57              		.loc 5 96 5 is_stmt 0 view .LVU8
  58              	.LBE154:
  59              		.loc 1 22 19 view .LVU9
  60 0000 7047     		bx	lr
  61              		.cfi_endproc
  62              	.LFE2555:
  64              		.weak	_ZN5daisy9DaisySeedD1Ev
  65              		.thumb_set _ZN5daisy9DaisySeedD1Ev,_ZN5daisy9DaisySeedD2Ev
  66 0002 00BF     		.section	.text._ZN6DistBPC2Ev,"axG",%progbits,_ZN6DistBPC5Ev,comdat
  67              		.align	1
  68              		.p2align 2,,3
  69              		.weak	_ZN6DistBPC2Ev
  70              		.syntax unified
  71              		.thumb
  72              		.thumb_func
  73              		.fpu fpv5-d16
  75              	_ZN6DistBPC2Ev:
  76              	.LVL1:
  77              	.LFB4725:
  78              		.file 6 "DistBP.h"
   1:DistBP.h      **** #pragma once
   2:DistBP.h      **** 
   3:DistBP.h      **** #ifndef DistBP_H
   4:DistBP.h      **** #define DistBP_H
   5:DistBP.h      **** 
   6:DistBP.h      **** class DistBP {
   7:DistBP.h      **** private:
   8:DistBP.h      ****     static const int MWSPT_NSEC = 5;
   9:DistBP.h      ****     const int NL[MWSPT_NSEC] = { 1,3,1,3,1 };
  10:DistBP.h      ****     const float NUM[MWSPT_NSEC][3] = {
  11:DistBP.h      ****     {
  12:DistBP.h      ****         0.1303463876,              0,              0 
  13:DistBP.h      ****     },
  14:DistBP.h      ****     {
ARM GAS  C:\Users\galla\AppData\Local\Temp\ccOJAY1x.s 			page 9


  15:DistBP.h      ****                     1,              0,             -1 
  16:DistBP.h      ****     },
  17:DistBP.h      ****     {
  18:DistBP.h      ****         0.1303463876,              0,              0 
  19:DistBP.h      ****     },
  20:DistBP.h      ****     {
  21:DistBP.h      ****                     1,              0,             -1 
  22:DistBP.h      ****     },
  23:DistBP.h      ****     {
  24:DistBP.h      ****                     1,              0,              0 
  25:DistBP.h      ****     }
  26:DistBP.h      ****     };
  27:DistBP.h      ****     const int DL[MWSPT_NSEC] = { 1,3,1,3,1 };
  28:DistBP.h      ****     const float DEN[MWSPT_NSEC][3] = {
  29:DistBP.h      ****     {
  30:DistBP.h      ****                     1,              0,              0 
  31:DistBP.h      ****     },
  32:DistBP.h      ****     {
  33:DistBP.h      ****                     1,   -1.999370813,   0.9993710518 
  34:DistBP.h      ****     },
  35:DistBP.h      ****     {
  36:DistBP.h      ****                     1,              0,              0 
  37:DistBP.h      ****     },
  38:DistBP.h      ****     {
  39:DistBP.h      ****                     1,   -1.599311471,    0.667294085 
  40:DistBP.h      ****     },
  41:DistBP.h      ****     {
  42:DistBP.h      ****                     1,              0,              0 
  43:DistBP.h      ****     }
  44:DistBP.h      ****     };
  45:DistBP.h      ****     float input_buffer[MWSPT_NSEC][3];
  46:DistBP.h      ****     float output_buffer[MWSPT_NSEC][3];
  47:DistBP.h      **** 
  48:DistBP.h      **** public:
  49:DistBP.h      ****     DistBP() = default;                
  79              		.loc 6 49 5 is_stmt 1 view -0
  80              		.cfi_startproc
  81              		@ args = 0, pretend = 0, frame = 0
  82              		@ frame_needed = 0, uses_anonymous_args = 0
  83              		.loc 6 49 5 is_stmt 0 view .LVU11
  84 0000 2DE9F047 		push	{r4, r5, r6, r7, r8, r9, r10, lr}
  85              		.cfi_def_cfa_offset 32
  86              		.cfi_offset 4, -32
  87              		.cfi_offset 5, -28
  88              		.cfi_offset 6, -24
  89              		.cfi_offset 7, -20
  90              		.cfi_offset 8, -16
  91              		.cfi_offset 9, -12
  92              		.cfi_offset 10, -8
  93              		.cfi_offset 14, -4
  94              	.LBB155:
  95              		.loc 6 49 5 view .LVU12
  96 0004 1B4E     		ldr	r6, .L5
  97              	.LBE155:
  98 0006 0746     		mov	r7, r0
  99              	.LBB156:
 100 0008 8146     		mov	r9, r0
ARM GAS  C:\Users\galla\AppData\Local\Temp\ccOJAY1x.s 			page 10


 101 000a 00F11404 		add	r4, r0, #20
 102 000e 06F11405 		add	r5, r6, #20
 103 0012 B246     		mov	r10, r6
 104 0014 06F1500E 		add	lr, r6, #80
 105 0018 00F15008 		add	r8, r0, #80
 106 001c 00F1640C 		add	ip, r0, #100
 107 0020 0FCE     		ldmia	r6!, {r0, r1, r2, r3}
 108              	.LVL2:
 109              		.loc 6 49 5 view .LVU13
 110 0022 A9E80F00 		stmia	r9!, {r0, r1, r2, r3}
 111 0026 3668     		ldr	r6, [r6]
 112 0028 0FCD     		ldmia	r5!, {r0, r1, r2, r3}
 113 002a C9F80060 		str	r6, [r9]
 114 002e 0FC4     		stmia	r4!, {r0, r1, r2, r3}
 115 0030 0FCD     		ldmia	r5!, {r0, r1, r2, r3}
 116 0032 0FC4     		stmia	r4!, {r0, r1, r2, r3}
 117 0034 0FCD     		ldmia	r5!, {r0, r1, r2, r3}
 118 0036 0FC4     		stmia	r4!, {r0, r1, r2, r3}
 119 0038 95E80700 		ldm	r5, {r0, r1, r2}
 120 003c 84E80700 		stm	r4, {r0, r1, r2}
 121 0040 BAE80F00 		ldmia	r10!, {r0, r1, r2, r3}
 122 0044 A8E80F00 		stmia	r8!, {r0, r1, r2, r3}
 123 0048 BEE80F00 		ldmia	lr!, {r0, r1, r2, r3}
 124 004c C8F80060 		str	r6, [r8]
 125 0050 ACE80F00 		stmia	ip!, {r0, r1, r2, r3}
 126 0054 BEE80F00 		ldmia	lr!, {r0, r1, r2, r3}
 127 0058 ACE80F00 		stmia	ip!, {r0, r1, r2, r3}
 128 005c BEE80F00 		ldmia	lr!, {r0, r1, r2, r3}
 129 0060 ACE80F00 		stmia	ip!, {r0, r1, r2, r3}
 130 0064 9EE80700 		ldm	lr, {r0, r1, r2}
 131 0068 8CE80700 		stm	ip, {r0, r1, r2}
 132              	.LBE156:
 133 006c 3846     		mov	r0, r7
 134 006e BDE8F087 		pop	{r4, r5, r6, r7, r8, r9, r10, pc}
 135              	.LVL3:
 136              	.L6:
 137              		.loc 6 49 5 view .LVU14
 138 0072 00BF     		.align	2
 139              	.L5:
 140 0074 00000000 		.word	.LANCHOR0
 141              		.cfi_endproc
 142              	.LFE4725:
 144              		.weak	_ZN6DistBPC1Ev
 145              		.thumb_set _ZN6DistBPC1Ev,_ZN6DistBPC2Ev
 146              		.section	.text._ZN5BMlowC2Ev,"axG",%progbits,_ZN5BMlowC5Ev,comdat
 147              		.align	1
 148              		.p2align 2,,3
 149              		.weak	_ZN5BMlowC2Ev
 150              		.syntax unified
 151              		.thumb
 152              		.thumb_func
 153              		.fpu fpv5-d16
 155              	_ZN5BMlowC2Ev:
 156              	.LVL4:
 157              	.LFB4728:
 158              		.file 7 "BMlow.h"
   1:BMlow.h       **** #pragma once
ARM GAS  C:\Users\galla\AppData\Local\Temp\ccOJAY1x.s 			page 11


   2:BMlow.h       **** 
   3:BMlow.h       **** #ifndef BMlow_H
   4:BMlow.h       **** #define BMlow_H
   5:BMlow.h       **** 
   6:BMlow.h       **** class BMlow {
   7:BMlow.h       **** private:
   8:BMlow.h       ****     static const int MWSPT_NSEC = 3;
   9:BMlow.h       ****     const int NL[MWSPT_NSEC] = { 1,2,1 };
  10:BMlow.h       ****     const float NUM[MWSPT_NSEC][2] = {
  11:BMlow.h       ****     {
  12:BMlow.h       ****     0.02323783375,              0 
  13:BMlow.h       ****     },
  14:BMlow.h       ****     {
  15:BMlow.h       ****                     1,              1 
  16:BMlow.h       ****     },
  17:BMlow.h       ****     {
  18:BMlow.h       ****                     1,              0 
  19:BMlow.h       ****     }
  20:BMlow.h       ****     };
  21:BMlow.h       ****     const int DL[MWSPT_NSEC] = { 1,2,1 };
  22:BMlow.h       ****     const float DEN[MWSPT_NSEC][2] = {
  23:BMlow.h       ****     {
  24:BMlow.h       ****                 1,              0 
  25:BMlow.h       ****     },
  26:BMlow.h       ****     {
  27:BMlow.h       ****                     1,  -0.9535243511 
  28:BMlow.h       ****     },
  29:BMlow.h       ****     {
  30:BMlow.h       ****                     1,              0 
  31:BMlow.h       ****     }
  32:BMlow.h       ****     };
  33:BMlow.h       ****     float input_buffer[MWSPT_NSEC][2];
  34:BMlow.h       ****     float output_buffer[MWSPT_NSEC][2];
  35:BMlow.h       **** 
  36:BMlow.h       **** public:
  37:BMlow.h       ****     BMlow() = default;                
 159              		.loc 7 37 5 is_stmt 1 view -0
 160              		.cfi_startproc
 161              		@ args = 0, pretend = 0, frame = 0
 162              		@ frame_needed = 0, uses_anonymous_args = 0
 163              	.LBB157:
 164              		.loc 7 37 5 is_stmt 0 view .LVU16
 165 0000 134B     		ldr	r3, .L9
 166              	.LBE157:
 167 0002 2DE9F041 		push	{r4, r5, r6, r7, r8, lr}
 168              		.cfi_def_cfa_offset 24
 169              		.cfi_offset 4, -24
 170              		.cfi_offset 5, -20
 171              		.cfi_offset 6, -16
 172              		.cfi_offset 7, -12
 173              		.cfi_offset 8, -8
 174              		.cfi_offset 14, -4
 175              	.LBB158:
 176              		.loc 7 37 5 view .LVU17
 177 0006 03F18C07 		add	r7, r3, #140
 178              	.LBE158:
 179 000a 8646     		mov	lr, r0
ARM GAS  C:\Users\galla\AppData\Local\Temp\ccOJAY1x.s 			page 12


 180              	.LBB159:
 181 000c 03F19806 		add	r6, r3, #152
 182 0010 03F1B00C 		add	ip, r3, #176
 183 0014 0EF10C05 		add	r5, lr, #12
 184 0018 0EF12408 		add	r8, lr, #36
 185 001c 0EF13004 		add	r4, lr, #48
 186 0020 97E80700 		ldm	r7, {r0, r1, r2}
 187              	.LVL5:
 188              		.loc 7 37 5 view .LVU18
 189 0024 8EE80700 		stm	lr, {r0, r1, r2}
 190 0028 0FCE     		ldmia	r6!, {r0, r1, r2, r3}
 191 002a 0FC5     		stmia	r5!, {r0, r1, r2, r3}
 192 002c 96E80300 		ldm	r6, {r0, r1}
 193 0030 85E80300 		stm	r5, {r0, r1}
 194 0034 97E80700 		ldm	r7, {r0, r1, r2}
 195 0038 88E80700 		stm	r8, {r0, r1, r2}
 196 003c BCE80F00 		ldmia	ip!, {r0, r1, r2, r3}
 197 0040 0FC4     		stmia	r4!, {r0, r1, r2, r3}
 198 0042 9CE80300 		ldm	ip, {r0, r1}
 199 0046 84E80300 		stm	r4, {r0, r1}
 200              	.LBE159:
 201 004a 7046     		mov	r0, lr
 202 004c BDE8F081 		pop	{r4, r5, r6, r7, r8, pc}
 203              	.L10:
 204              		.align	2
 205              	.L9:
 206 0050 00000000 		.word	.LANCHOR0
 207              		.cfi_endproc
 208              	.LFE4728:
 210              		.weak	_ZN5BMlowC1Ev
 211              		.thumb_set _ZN5BMlowC1Ev,_ZN5BMlowC2Ev
 212              		.section	.text._ZN6BMhighC2Ev,"axG",%progbits,_ZN6BMhighC5Ev,comdat
 213              		.align	1
 214              		.p2align 2,,3
 215              		.weak	_ZN6BMhighC2Ev
 216              		.syntax unified
 217              		.thumb
 218              		.thumb_func
 219              		.fpu fpv5-d16
 221              	_ZN6BMhighC2Ev:
 222              	.LVL6:
 223              	.LFB4731:
 224              		.file 8 "BMhigh.h"
   1:BMhigh.h      **** #pragma once
   2:BMhigh.h      **** 
   3:BMhigh.h      **** #ifndef BMhigh_H
   4:BMhigh.h      **** #define BMHigh_H
   5:BMhigh.h      **** 
   6:BMhigh.h      **** class BMhigh {
   7:BMhigh.h      **** private:
   8:BMhigh.h      ****     static const int MWSPT_NSEC = 3;
   9:BMhigh.h      ****     const int NL[MWSPT_NSEC] = { 1,2,1 };
  10:BMhigh.h      ****     const float NUM[MWSPT_NSEC][2] = {
  11:BMhigh.h      ****     {
  12:BMhigh.h      ****      0.9484700561,              0 
  13:BMhigh.h      ****     },
  14:BMhigh.h      ****     {
ARM GAS  C:\Users\galla\AppData\Local\Temp\ccOJAY1x.s 			page 13


  15:BMhigh.h      ****                     1,             -1 
  16:BMhigh.h      ****     },
  17:BMhigh.h      ****     {
  18:BMhigh.h      ****                     1,              0 
  19:BMhigh.h      ****     }
  20:BMhigh.h      ****     };
  21:BMhigh.h      ****     const int DL[MWSPT_NSEC] = { 1,2,1 };
  22:BMhigh.h      ****     const float DEN[MWSPT_NSEC][2] = {
  23:BMhigh.h      ****     {
  24:BMhigh.h      ****                 1,              0 
  25:BMhigh.h      ****     },
  26:BMhigh.h      ****     {
  27:BMhigh.h      ****                     1,  -0.8969401121 
  28:BMhigh.h      ****     },
  29:BMhigh.h      ****     {
  30:BMhigh.h      ****                     1,              0 
  31:BMhigh.h      ****     }
  32:BMhigh.h      ****     };
  33:BMhigh.h      ****     float input_buffer[MWSPT_NSEC][2];
  34:BMhigh.h      ****     float output_buffer[MWSPT_NSEC][2];
  35:BMhigh.h      **** 
  36:BMhigh.h      **** public:
  37:BMhigh.h      ****     BMhigh() = default;                
 225              		.loc 8 37 5 is_stmt 1 view -0
 226              		.cfi_startproc
 227              		@ args = 0, pretend = 0, frame = 0
 228              		@ frame_needed = 0, uses_anonymous_args = 0
 229              	.LBB160:
 230              		.loc 8 37 5 is_stmt 0 view .LVU20
 231 0000 134B     		ldr	r3, .L13
 232              	.LBE160:
 233 0002 2DE9F041 		push	{r4, r5, r6, r7, r8, lr}
 234              		.cfi_def_cfa_offset 24
 235              		.cfi_offset 4, -24
 236              		.cfi_offset 5, -20
 237              		.cfi_offset 6, -16
 238              		.cfi_offset 7, -12
 239              		.cfi_offset 8, -8
 240              		.cfi_offset 14, -4
 241              	.LBB161:
 242              		.loc 8 37 5 view .LVU21
 243 0006 03F18C07 		add	r7, r3, #140
 244              	.LBE161:
 245 000a 8646     		mov	lr, r0
 246              	.LBB162:
 247 000c 03F1C806 		add	r6, r3, #200
 248 0010 03F1E00C 		add	ip, r3, #224
 249 0014 0EF10C05 		add	r5, lr, #12
 250 0018 0EF12408 		add	r8, lr, #36
 251 001c 0EF13004 		add	r4, lr, #48
 252 0020 97E80700 		ldm	r7, {r0, r1, r2}
 253              	.LVL7:
 254              		.loc 8 37 5 view .LVU22
 255 0024 8EE80700 		stm	lr, {r0, r1, r2}
 256 0028 0FCE     		ldmia	r6!, {r0, r1, r2, r3}
 257 002a 0FC5     		stmia	r5!, {r0, r1, r2, r3}
 258 002c 96E80300 		ldm	r6, {r0, r1}
ARM GAS  C:\Users\galla\AppData\Local\Temp\ccOJAY1x.s 			page 14


 259 0030 85E80300 		stm	r5, {r0, r1}
 260 0034 97E80700 		ldm	r7, {r0, r1, r2}
 261 0038 88E80700 		stm	r8, {r0, r1, r2}
 262 003c BCE80F00 		ldmia	ip!, {r0, r1, r2, r3}
 263 0040 0FC4     		stmia	r4!, {r0, r1, r2, r3}
 264 0042 9CE80300 		ldm	ip, {r0, r1}
 265 0046 84E80300 		stm	r4, {r0, r1}
 266              	.LBE162:
 267 004a 7046     		mov	r0, lr
 268 004c BDE8F081 		pop	{r4, r5, r6, r7, r8, pc}
 269              	.L14:
 270              		.align	2
 271              	.L13:
 272 0050 00000000 		.word	.LANCHOR0
 273              		.cfi_endproc
 274              	.LFE4731:
 276              		.weak	_ZN6BMhighC1Ev
 277              		.thumb_set _ZN6BMhighC1Ev,_ZN6BMhighC2Ev
 278              		.section	.text._ZN6DistHPC2Ev,"axG",%progbits,_ZN6DistHPC5Ev,comdat
 279              		.align	1
 280              		.p2align 2,,3
 281              		.weak	_ZN6DistHPC2Ev
 282              		.syntax unified
 283              		.thumb
 284              		.thumb_func
 285              		.fpu fpv5-d16
 287              	_ZN6DistHPC2Ev:
 288              	.LVL8:
 289              	.LFB4734:
 290              		.file 9 "DistHP.h"
   1:DistHP.h      **** #pragma once
   2:DistHP.h      **** 
   3:DistHP.h      **** #ifndef DistHP_H
   4:DistHP.h      **** #define DistHP_H
   5:DistHP.h      **** 
   6:DistHP.h      **** class DistHP {
   7:DistHP.h      **** private:
   8:DistHP.h      ****     // static const int MWSPT_NSEC = 3;
   9:DistHP.h      ****     // const int NL[MWSPT_NSEC] = { 1,3,1 };
  10:DistHP.h      ****     // const float NUM[MWSPT_NSEC][3] = {
  11:DistHP.h      ****     // {
  12:DistHP.h      ****     //     0.03628773987,              0,              0 
  13:DistHP.h      ****     // },
  14:DistHP.h      ****     // {
  15:DistHP.h      ****     //                 1,              0,             -1 
  16:DistHP.h      ****     // },
  17:DistHP.h      ****     // {
  18:DistHP.h      ****     //                 1,              0,              0 
  19:DistHP.h      ****     // }
  20:DistHP.h      ****     // };
  21:DistHP.h      ****     // const int DL[MWSPT_NSEC] = { 1,3,1 };
  22:DistHP.h      ****     // const float DEN[MWSPT_NSEC][3] = {
  23:DistHP.h      ****     // {
  24:DistHP.h      ****     //                 1,              0,              0 
  25:DistHP.h      ****     // },
  26:DistHP.h      ****     // {
  27:DistHP.h      ****     //                 1,    -1.91554606,   0.9274244905 
ARM GAS  C:\Users\galla\AppData\Local\Temp\ccOJAY1x.s 			page 15


  28:DistHP.h      ****     // },
  29:DistHP.h      ****     // {
  30:DistHP.h      ****     //                 1,              0,              0 
  31:DistHP.h      ****     // }
  32:DistHP.h      ****     // };
  33:DistHP.h      ****     static const int MWSPT_NSEC = 3;
  34:DistHP.h      ****     const int NL[MWSPT_NSEC] = { 1,2,1 };
  35:DistHP.h      ****     const float NUM[MWSPT_NSEC][2] = {
  36:DistHP.h      ****    {
  37:DistHP.h      ****      0.9989667535,              0 
  38:DistHP.h      ****   },
  39:DistHP.h      ****   {
  40:DistHP.h      ****                 1,             -1 
  41:DistHP.h      ****   },
  42:DistHP.h      ****   {
  43:DistHP.h      ****                 1,              0 
  44:DistHP.h      ****   }
  45:DistHP.h      **** };
  46:DistHP.h      ****     const int DL[MWSPT_NSEC] = { 1,2,1 };
  47:DistHP.h      ****     const float DEN[MWSPT_NSEC][2] = {
  48:DistHP.h      ****      {
  49:DistHP.h      ****                 1,              0 
  50:DistHP.h      ****   },
  51:DistHP.h      ****   {
  52:DistHP.h      ****                 1,  -0.9979334474 
  53:DistHP.h      ****   },
  54:DistHP.h      ****   {
  55:DistHP.h      ****                 1,              0 
  56:DistHP.h      ****   }
  57:DistHP.h      **** };
  58:DistHP.h      ****     float input_buffer[MWSPT_NSEC][2];
  59:DistHP.h      ****     float output_buffer[MWSPT_NSEC][2];
  60:DistHP.h      **** 
  61:DistHP.h      **** public:
  62:DistHP.h      ****     DistHP() = default;                
 291              		.loc 9 62 5 is_stmt 1 view -0
 292              		.cfi_startproc
 293              		@ args = 0, pretend = 0, frame = 0
 294              		@ frame_needed = 0, uses_anonymous_args = 0
 295              	.LBB163:
 296              		.loc 9 62 5 is_stmt 0 view .LVU24
 297 0000 134B     		ldr	r3, .L17
 298              	.LBE163:
 299 0002 2DE9F041 		push	{r4, r5, r6, r7, r8, lr}
 300              		.cfi_def_cfa_offset 24
 301              		.cfi_offset 4, -24
 302              		.cfi_offset 5, -20
 303              		.cfi_offset 6, -16
 304              		.cfi_offset 7, -12
 305              		.cfi_offset 8, -8
 306              		.cfi_offset 14, -4
 307              	.LBB164:
 308              		.loc 9 62 5 view .LVU25
 309 0006 03F18C07 		add	r7, r3, #140
 310              	.LBE164:
 311 000a 8646     		mov	lr, r0
 312              	.LBB165:
ARM GAS  C:\Users\galla\AppData\Local\Temp\ccOJAY1x.s 			page 16


 313 000c 03F1F806 		add	r6, r3, #248
 314 0010 03F5887C 		add	ip, r3, #272
 315 0014 0EF10C05 		add	r5, lr, #12
 316 0018 0EF12408 		add	r8, lr, #36
 317 001c 0EF13004 		add	r4, lr, #48
 318 0020 97E80700 		ldm	r7, {r0, r1, r2}
 319              	.LVL9:
 320              		.loc 9 62 5 view .LVU26
 321 0024 8EE80700 		stm	lr, {r0, r1, r2}
 322 0028 0FCE     		ldmia	r6!, {r0, r1, r2, r3}
 323 002a 0FC5     		stmia	r5!, {r0, r1, r2, r3}
 324 002c 96E80300 		ldm	r6, {r0, r1}
 325 0030 85E80300 		stm	r5, {r0, r1}
 326 0034 97E80700 		ldm	r7, {r0, r1, r2}
 327 0038 88E80700 		stm	r8, {r0, r1, r2}
 328 003c BCE80F00 		ldmia	ip!, {r0, r1, r2, r3}
 329 0040 0FC4     		stmia	r4!, {r0, r1, r2, r3}
 330 0042 9CE80300 		ldm	ip, {r0, r1}
 331 0046 84E80300 		stm	r4, {r0, r1}
 332              	.LBE165:
 333 004a 7046     		mov	r0, lr
 334 004c BDE8F081 		pop	{r4, r5, r6, r7, r8, pc}
 335              	.L18:
 336              		.align	2
 337              	.L17:
 338 0050 00000000 		.word	.LANCHOR0
 339              		.cfi_endproc
 340              	.LFE4734:
 342              		.weak	_ZN6DistHPC1Ev
 343              		.thumb_set _ZN6DistHPC1Ev,_ZN6DistHPC2Ev
 344              		.section	.text._ZN8DistHPHMC2Ev,"axG",%progbits,_ZN8DistHPHMC5Ev,comdat
 345              		.align	1
 346              		.p2align 2,,3
 347              		.weak	_ZN8DistHPHMC2Ev
 348              		.syntax unified
 349              		.thumb
 350              		.thumb_func
 351              		.fpu fpv5-d16
 353              	_ZN8DistHPHMC2Ev:
 354              	.LVL10:
 355              	.LFB4737:
 356              		.file 10 "DistHPHM.h"
   1:DistHPHM.h    **** #pragma once
   2:DistHPHM.h    **** 
   3:DistHPHM.h    **** #ifndef DistHPHM_H
   4:DistHPHM.h    **** #define DistHPHM_H
   5:DistHPHM.h    **** 
   6:DistHPHM.h    **** class DistHPHM {
   7:DistHPHM.h    **** private:
   8:DistHPHM.h    ****     static const int MWSPT_NSEC = 5;
   9:DistHPHM.h    ****     const int NL[MWSPT_NSEC] = { 1,3,1,3,1 };
  10:DistHPHM.h    ****     const float NUM[MWSPT_NSEC][3] = {
  11:DistHPHM.h    ****     {
  12:DistHPHM.h    ****      0.1233932674,              0,              0 
  13:DistHPHM.h    ****   },
  14:DistHPHM.h    ****   {
  15:DistHPHM.h    ****                 1,              0,             -1 
ARM GAS  C:\Users\galla\AppData\Local\Temp\ccOJAY1x.s 			page 17


  16:DistHPHM.h    ****   },
  17:DistHPHM.h    ****   {
  18:DistHPHM.h    ****      0.1233932674,              0,              0 
  19:DistHPHM.h    ****   },
  20:DistHPHM.h    ****   {
  21:DistHPHM.h    ****                 1,              0,             -1 
  22:DistHPHM.h    ****   },
  23:DistHPHM.h    ****   {
  24:DistHPHM.h    ****                 1,              0,              0 
  25:DistHPHM.h    ****   }
  26:DistHPHM.h    **** };
  27:DistHPHM.h    ****     const int DL[MWSPT_NSEC] = { 1,3,1,3,1 };
  28:DistHPHM.h    ****     const float DEN[MWSPT_NSEC][3] = {
  29:DistHPHM.h    ****     {
  30:DistHPHM.h    ****                 1,              0,              0 
  31:DistHPHM.h    ****   },
  32:DistHPHM.h    ****   {
  33:DistHPHM.h    ****                 1,    -1.99667263,   0.9966782928 
  34:DistHPHM.h    ****   },
  35:DistHPHM.h    ****   {
  36:DistHPHM.h    ****                 1,              0,              0 
  37:DistHPHM.h    ****   },
  38:DistHPHM.h    ****   {
  39:DistHPHM.h    ****                 1,   -1.624030471,   0.6850495338 
  40:DistHPHM.h    ****   },
  41:DistHPHM.h    ****   {
  42:DistHPHM.h    ****                 1,              0,              0 
  43:DistHPHM.h    ****   }
  44:DistHPHM.h    **** };
  45:DistHPHM.h    ****     float input_buffer[MWSPT_NSEC][3];
  46:DistHPHM.h    ****     float output_buffer[MWSPT_NSEC][3];
  47:DistHPHM.h    **** 
  48:DistHPHM.h    **** public:
  49:DistHPHM.h    ****     DistHPHM() = default;                
 357              		.loc 10 49 5 is_stmt 1 view -0
 358              		.cfi_startproc
 359              		@ args = 0, pretend = 0, frame = 0
 360              		@ frame_needed = 0, uses_anonymous_args = 0
 361              		.loc 10 49 5 is_stmt 0 view .LVU28
 362 0000 2DE9F047 		push	{r4, r5, r6, r7, r8, r9, r10, lr}
 363              		.cfi_def_cfa_offset 32
 364              		.cfi_offset 4, -32
 365              		.cfi_offset 5, -28
 366              		.cfi_offset 6, -24
 367              		.cfi_offset 7, -20
 368              		.cfi_offset 8, -16
 369              		.cfi_offset 9, -12
 370              		.cfi_offset 10, -8
 371              		.cfi_offset 14, -4
 372              	.LBB166:
 373              		.loc 10 49 5 view .LVU29
 374 0004 1B4E     		ldr	r6, .L21
 375              	.LBE166:
 376 0006 0746     		mov	r7, r0
 377              	.LBB167:
 378 0008 8146     		mov	r9, r0
 379 000a 00F11404 		add	r4, r0, #20
ARM GAS  C:\Users\galla\AppData\Local\Temp\ccOJAY1x.s 			page 18


 380 000e 06F59475 		add	r5, r6, #296
 381 0012 B246     		mov	r10, r6
 382 0014 06F5B27E 		add	lr, r6, #356
 383 0018 00F15008 		add	r8, r0, #80
 384 001c 00F1640C 		add	ip, r0, #100
 385 0020 0FCE     		ldmia	r6!, {r0, r1, r2, r3}
 386              	.LVL11:
 387              		.loc 10 49 5 view .LVU30
 388 0022 A9E80F00 		stmia	r9!, {r0, r1, r2, r3}
 389 0026 3668     		ldr	r6, [r6]
 390 0028 0FCD     		ldmia	r5!, {r0, r1, r2, r3}
 391 002a C9F80060 		str	r6, [r9]
 392 002e 0FC4     		stmia	r4!, {r0, r1, r2, r3}
 393 0030 0FCD     		ldmia	r5!, {r0, r1, r2, r3}
 394 0032 0FC4     		stmia	r4!, {r0, r1, r2, r3}
 395 0034 0FCD     		ldmia	r5!, {r0, r1, r2, r3}
 396 0036 0FC4     		stmia	r4!, {r0, r1, r2, r3}
 397 0038 95E80700 		ldm	r5, {r0, r1, r2}
 398 003c 84E80700 		stm	r4, {r0, r1, r2}
 399 0040 BAE80F00 		ldmia	r10!, {r0, r1, r2, r3}
 400 0044 A8E80F00 		stmia	r8!, {r0, r1, r2, r3}
 401 0048 BEE80F00 		ldmia	lr!, {r0, r1, r2, r3}
 402 004c C8F80060 		str	r6, [r8]
 403 0050 ACE80F00 		stmia	ip!, {r0, r1, r2, r3}
 404 0054 BEE80F00 		ldmia	lr!, {r0, r1, r2, r3}
 405 0058 ACE80F00 		stmia	ip!, {r0, r1, r2, r3}
 406 005c BEE80F00 		ldmia	lr!, {r0, r1, r2, r3}
 407 0060 ACE80F00 		stmia	ip!, {r0, r1, r2, r3}
 408 0064 9EE80700 		ldm	lr, {r0, r1, r2}
 409 0068 8CE80700 		stm	ip, {r0, r1, r2}
 410              	.LBE167:
 411 006c 3846     		mov	r0, r7
 412 006e BDE8F087 		pop	{r4, r5, r6, r7, r8, r9, r10, pc}
 413              	.LVL12:
 414              	.L22:
 415              		.loc 10 49 5 view .LVU31
 416 0072 00BF     		.align	2
 417              	.L21:
 418 0074 00000000 		.word	.LANCHOR0
 419              		.cfi_endproc
 420              	.LFE4737:
 422              		.weak	_ZN8DistHPHMC1Ev
 423              		.thumb_set _ZN8DistHPHMC1Ev,_ZN8DistHPHMC2Ev
 424              		.section	.text._Z5ts3ADf,"ax",%progbits
 425              		.align	1
 426              		.p2align 2,,3
 427              		.global	_Z5ts3ADf
 428              		.syntax unified
 429              		.thumb
 430              		.thumb_func
 431              		.fpu fpv5-d16
 433              	_Z5ts3ADf:
 434              	.LVL13:
 435              	.LFB4739:
 436              		.file 11 "main.cpp"
   1:main.cpp      **** #include "daisy_seed.h"
   2:main.cpp      **** #include "daisysp.h"
ARM GAS  C:\Users\galla\AppData\Local\Temp\ccOJAY1x.s 			page 19


   3:main.cpp      **** #include "DistBP.h"
   4:main.cpp      **** #include "BMlow.h"
   5:main.cpp      **** #include "BMhigh.h"
   6:main.cpp      **** #include "DistHP.h"
   7:main.cpp      **** #include "TSTone.h"
   8:main.cpp      **** #include "DistHPHM.h"
   9:main.cpp      **** #include "PeakEQ.h"
  10:main.cpp      **** 
  11:main.cpp      **** 
  12:main.cpp      **** using namespace daisy;
  13:main.cpp      **** using namespace daisysp;
  14:main.cpp      **** 
  15:main.cpp      **** DaisySeed  hw;
  16:main.cpp      **** 
  17:main.cpp      **** DistBP bmBP;
  18:main.cpp      **** BMlow bmLow;
  19:main.cpp      **** BMhigh bmHigh;
  20:main.cpp      **** 
  21:main.cpp      **** TSTone tstone;
  22:main.cpp      **** DistHP tsHP, HP1, HP2, HP3, HP4;
  23:main.cpp      **** 
  24:main.cpp      **** DistHPHM hmHP;
  25:main.cpp      **** PeakEQ stage1, stage2, stage3, stage4, stage5;
  26:main.cpp      **** 
  27:main.cpp      **** bool on;
  28:main.cpp      **** int effect;
  29:main.cpp      **** 
  30:main.cpp      **** float knob1, knob2, knob3;
  31:main.cpp      **** 
  32:main.cpp      **** 
  33:main.cpp      **** float x1 = 0;
  34:main.cpp      **** float x2 = 0;
  35:main.cpp      **** float x3 = 0;
  36:main.cpp      **** float f0 = 0;
  37:main.cpp      **** float f1 = 0;
  38:main.cpp      **** float f2 = 0;
  39:main.cpp      **** float f3 = 0;
  40:main.cpp      **** 
  41:main.cpp      **** float ts3AD(float in) {
 437              		.loc 11 41 23 is_stmt 1 view -0
 438              		.cfi_startproc
 439              		@ args = 0, pretend = 0, frame = 0
 440              		@ frame_needed = 0, uses_anonymous_args = 0
  42:main.cpp      ****     float out;
 441              		.loc 11 42 5 view .LVU33
  43:main.cpp      **** 
  44:main.cpp      ****     float absx = abs(in);
 442              		.loc 11 44 5 view .LVU34
  41:main.cpp      ****     float out;
 443              		.loc 11 41 23 is_stmt 0 view .LVU35
 444 0000 08B5     		push	{r3, lr}
 445              		.cfi_def_cfa_offset 8
 446              		.cfi_offset 3, -8
 447              		.cfi_offset 14, -4
 448 0002 2DED048B 		vpush.64	{d8, d9}
 449              		.cfi_def_cfa_offset 24
 450              		.cfi_offset 80, -24
ARM GAS  C:\Users\galla\AppData\Local\Temp\ccOJAY1x.s 			page 20


 451              		.cfi_offset 81, -20
 452              		.cfi_offset 82, -16
 453              		.cfi_offset 83, -12
  45:main.cpp      ****     float xx = in*in;
 454              		.loc 11 45 11 view .LVU36
 455 0006 60EE008A 		vmul.f32	s17, s0, s0
  46:main.cpp      **** 
  47:main.cpp      ****     float num = 6*(2*absx + xx + 1)*log(absx+1) - 2*(xx + 3)*absx - 9*xx;
 456              		.loc 11 47 40 view .LVU37
 457 000a F7EE009A 		vmov.f32	s19, #1.0e+0
 458              	.LBB168:
 459              	.LBB169:
 460              		.file 12 "c:\\program files\\daisytoolchain\\arm-none-eabi\\include\\c++\\10.2.1\\bits\\std_abs.h"
   1:c:\program files\daisytoolchain\arm-none-eabi\include\c++\10.2.1\bits\std_abs.h **** // -*- C++ -*- C library enhancements header.
   2:c:\program files\daisytoolchain\arm-none-eabi\include\c++\10.2.1\bits\std_abs.h **** 
   3:c:\program files\daisytoolchain\arm-none-eabi\include\c++\10.2.1\bits\std_abs.h **** // Copyright (C) 2016-2020 Free Software Foundation, Inc.
   4:c:\program files\daisytoolchain\arm-none-eabi\include\c++\10.2.1\bits\std_abs.h **** //
   5:c:\program files\daisytoolchain\arm-none-eabi\include\c++\10.2.1\bits\std_abs.h **** // This file is part of the GNU ISO C++ Library.  This library is free
   6:c:\program files\daisytoolchain\arm-none-eabi\include\c++\10.2.1\bits\std_abs.h **** // software; you can redistribute it and/or modify it under the
   7:c:\program files\daisytoolchain\arm-none-eabi\include\c++\10.2.1\bits\std_abs.h **** // terms of the GNU General Public License as published by the
   8:c:\program files\daisytoolchain\arm-none-eabi\include\c++\10.2.1\bits\std_abs.h **** // Free Software Foundation; either version 3, or (at your option)
   9:c:\program files\daisytoolchain\arm-none-eabi\include\c++\10.2.1\bits\std_abs.h **** // any later version.
  10:c:\program files\daisytoolchain\arm-none-eabi\include\c++\10.2.1\bits\std_abs.h **** 
  11:c:\program files\daisytoolchain\arm-none-eabi\include\c++\10.2.1\bits\std_abs.h **** // This library is distributed in the hope that it will be useful,
  12:c:\program files\daisytoolchain\arm-none-eabi\include\c++\10.2.1\bits\std_abs.h **** // but WITHOUT ANY WARRANTY; without even the implied warranty of
  13:c:\program files\daisytoolchain\arm-none-eabi\include\c++\10.2.1\bits\std_abs.h **** // MERCHANTABILITY or FITNESS FOR A PARTICULAR PURPOSE.  See the
  14:c:\program files\daisytoolchain\arm-none-eabi\include\c++\10.2.1\bits\std_abs.h **** // GNU General Public License for more details.
  15:c:\program files\daisytoolchain\arm-none-eabi\include\c++\10.2.1\bits\std_abs.h **** 
  16:c:\program files\daisytoolchain\arm-none-eabi\include\c++\10.2.1\bits\std_abs.h **** // Under Section 7 of GPL version 3, you are granted additional
  17:c:\program files\daisytoolchain\arm-none-eabi\include\c++\10.2.1\bits\std_abs.h **** // permissions described in the GCC Runtime Library Exception, version
  18:c:\program files\daisytoolchain\arm-none-eabi\include\c++\10.2.1\bits\std_abs.h **** // 3.1, as published by the Free Software Foundation.
  19:c:\program files\daisytoolchain\arm-none-eabi\include\c++\10.2.1\bits\std_abs.h **** 
  20:c:\program files\daisytoolchain\arm-none-eabi\include\c++\10.2.1\bits\std_abs.h **** // You should have received a copy of the GNU General Public License and
  21:c:\program files\daisytoolchain\arm-none-eabi\include\c++\10.2.1\bits\std_abs.h **** // a copy of the GCC Runtime Library Exception along with this program;
  22:c:\program files\daisytoolchain\arm-none-eabi\include\c++\10.2.1\bits\std_abs.h **** // see the files COPYING3 and COPYING.RUNTIME respectively.  If not, see
  23:c:\program files\daisytoolchain\arm-none-eabi\include\c++\10.2.1\bits\std_abs.h **** // <http://www.gnu.org/licenses/>.
  24:c:\program files\daisytoolchain\arm-none-eabi\include\c++\10.2.1\bits\std_abs.h **** 
  25:c:\program files\daisytoolchain\arm-none-eabi\include\c++\10.2.1\bits\std_abs.h **** /** @file include/bits/std_abs.h
  26:c:\program files\daisytoolchain\arm-none-eabi\include\c++\10.2.1\bits\std_abs.h ****  *  This is an internal header file, included by other library headers.
  27:c:\program files\daisytoolchain\arm-none-eabi\include\c++\10.2.1\bits\std_abs.h ****  *  Do not attempt to use it directly. @headername{cmath, cstdlib}
  28:c:\program files\daisytoolchain\arm-none-eabi\include\c++\10.2.1\bits\std_abs.h ****  */
  29:c:\program files\daisytoolchain\arm-none-eabi\include\c++\10.2.1\bits\std_abs.h **** 
  30:c:\program files\daisytoolchain\arm-none-eabi\include\c++\10.2.1\bits\std_abs.h **** #ifndef _GLIBCXX_BITS_STD_ABS_H
  31:c:\program files\daisytoolchain\arm-none-eabi\include\c++\10.2.1\bits\std_abs.h **** #define _GLIBCXX_BITS_STD_ABS_H
  32:c:\program files\daisytoolchain\arm-none-eabi\include\c++\10.2.1\bits\std_abs.h **** 
  33:c:\program files\daisytoolchain\arm-none-eabi\include\c++\10.2.1\bits\std_abs.h **** #pragma GCC system_header
  34:c:\program files\daisytoolchain\arm-none-eabi\include\c++\10.2.1\bits\std_abs.h **** 
  35:c:\program files\daisytoolchain\arm-none-eabi\include\c++\10.2.1\bits\std_abs.h **** #include <bits/c++config.h>
  36:c:\program files\daisytoolchain\arm-none-eabi\include\c++\10.2.1\bits\std_abs.h **** 
  37:c:\program files\daisytoolchain\arm-none-eabi\include\c++\10.2.1\bits\std_abs.h **** #define _GLIBCXX_INCLUDE_NEXT_C_HEADERS
  38:c:\program files\daisytoolchain\arm-none-eabi\include\c++\10.2.1\bits\std_abs.h **** #include_next <stdlib.h>
  39:c:\program files\daisytoolchain\arm-none-eabi\include\c++\10.2.1\bits\std_abs.h **** #ifdef __CORRECT_ISO_CPP_MATH_H_PROTO
  40:c:\program files\daisytoolchain\arm-none-eabi\include\c++\10.2.1\bits\std_abs.h **** # include_next <math.h>
  41:c:\program files\daisytoolchain\arm-none-eabi\include\c++\10.2.1\bits\std_abs.h **** #endif
  42:c:\program files\daisytoolchain\arm-none-eabi\include\c++\10.2.1\bits\std_abs.h **** #undef _GLIBCXX_INCLUDE_NEXT_C_HEADERS
  43:c:\program files\daisytoolchain\arm-none-eabi\include\c++\10.2.1\bits\std_abs.h **** 
  44:c:\program files\daisytoolchain\arm-none-eabi\include\c++\10.2.1\bits\std_abs.h **** #undef abs
ARM GAS  C:\Users\galla\AppData\Local\Temp\ccOJAY1x.s 			page 21


  45:c:\program files\daisytoolchain\arm-none-eabi\include\c++\10.2.1\bits\std_abs.h **** 
  46:c:\program files\daisytoolchain\arm-none-eabi\include\c++\10.2.1\bits\std_abs.h **** extern "C++"
  47:c:\program files\daisytoolchain\arm-none-eabi\include\c++\10.2.1\bits\std_abs.h **** {
  48:c:\program files\daisytoolchain\arm-none-eabi\include\c++\10.2.1\bits\std_abs.h **** namespace std _GLIBCXX_VISIBILITY(default)
  49:c:\program files\daisytoolchain\arm-none-eabi\include\c++\10.2.1\bits\std_abs.h **** {
  50:c:\program files\daisytoolchain\arm-none-eabi\include\c++\10.2.1\bits\std_abs.h **** _GLIBCXX_BEGIN_NAMESPACE_VERSION
  51:c:\program files\daisytoolchain\arm-none-eabi\include\c++\10.2.1\bits\std_abs.h **** 
  52:c:\program files\daisytoolchain\arm-none-eabi\include\c++\10.2.1\bits\std_abs.h ****   using ::abs;
  53:c:\program files\daisytoolchain\arm-none-eabi\include\c++\10.2.1\bits\std_abs.h **** 
  54:c:\program files\daisytoolchain\arm-none-eabi\include\c++\10.2.1\bits\std_abs.h **** #ifndef __CORRECT_ISO_CPP_STDLIB_H_PROTO
  55:c:\program files\daisytoolchain\arm-none-eabi\include\c++\10.2.1\bits\std_abs.h ****   inline long
  56:c:\program files\daisytoolchain\arm-none-eabi\include\c++\10.2.1\bits\std_abs.h ****   abs(long __i) { return __builtin_labs(__i); }
  57:c:\program files\daisytoolchain\arm-none-eabi\include\c++\10.2.1\bits\std_abs.h **** #endif
  58:c:\program files\daisytoolchain\arm-none-eabi\include\c++\10.2.1\bits\std_abs.h **** 
  59:c:\program files\daisytoolchain\arm-none-eabi\include\c++\10.2.1\bits\std_abs.h **** #ifdef _GLIBCXX_USE_LONG_LONG
  60:c:\program files\daisytoolchain\arm-none-eabi\include\c++\10.2.1\bits\std_abs.h ****   inline long long
  61:c:\program files\daisytoolchain\arm-none-eabi\include\c++\10.2.1\bits\std_abs.h ****   abs(long long __x) { return __builtin_llabs (__x); }
  62:c:\program files\daisytoolchain\arm-none-eabi\include\c++\10.2.1\bits\std_abs.h **** #endif
  63:c:\program files\daisytoolchain\arm-none-eabi\include\c++\10.2.1\bits\std_abs.h **** 
  64:c:\program files\daisytoolchain\arm-none-eabi\include\c++\10.2.1\bits\std_abs.h **** // _GLIBCXX_RESOLVE_LIB_DEFECTS
  65:c:\program files\daisytoolchain\arm-none-eabi\include\c++\10.2.1\bits\std_abs.h **** // 2192. Validity and return type of std::abs(0u) is unclear
  66:c:\program files\daisytoolchain\arm-none-eabi\include\c++\10.2.1\bits\std_abs.h **** // 2294. <cstdlib> should declare abs(double)
  67:c:\program files\daisytoolchain\arm-none-eabi\include\c++\10.2.1\bits\std_abs.h **** // 2735. std::abs(short), std::abs(signed char) and others should return int
  68:c:\program files\daisytoolchain\arm-none-eabi\include\c++\10.2.1\bits\std_abs.h **** 
  69:c:\program files\daisytoolchain\arm-none-eabi\include\c++\10.2.1\bits\std_abs.h **** #ifndef __CORRECT_ISO_CPP_MATH_H_PROTO
  70:c:\program files\daisytoolchain\arm-none-eabi\include\c++\10.2.1\bits\std_abs.h ****   inline _GLIBCXX_CONSTEXPR double
  71:c:\program files\daisytoolchain\arm-none-eabi\include\c++\10.2.1\bits\std_abs.h ****   abs(double __x)
  72:c:\program files\daisytoolchain\arm-none-eabi\include\c++\10.2.1\bits\std_abs.h ****   { return __builtin_fabs(__x); }
  73:c:\program files\daisytoolchain\arm-none-eabi\include\c++\10.2.1\bits\std_abs.h **** 
  74:c:\program files\daisytoolchain\arm-none-eabi\include\c++\10.2.1\bits\std_abs.h ****   inline _GLIBCXX_CONSTEXPR float
  75:c:\program files\daisytoolchain\arm-none-eabi\include\c++\10.2.1\bits\std_abs.h ****   abs(float __x)
  76:c:\program files\daisytoolchain\arm-none-eabi\include\c++\10.2.1\bits\std_abs.h ****   { return __builtin_fabsf(__x); }
 461              		.loc 12 76 31 view .LVU38
 462 000e B0EEC08A 		vabs.f32	s16, s0
 463              	.LBE169:
 464              	.LBE168:
 465              		.loc 11 47 27 view .LVU39
 466 0012 F0EE007A 		vmov.f32	s15, #2.0e+0
 467              	.LVL14:
 468              	.LBB171:
 469              	.LBI168:
  75:c:\program files\daisytoolchain\arm-none-eabi\include\c++\10.2.1\bits\std_abs.h ****   { return __builtin_fabsf(__x); }
 470              		.loc 12 75 3 is_stmt 1 view .LVU40
 471              	.LBB170:
 472              		.loc 12 76 5 view .LVU41
 473              		.loc 12 76 5 is_stmt 0 view .LVU42
 474              	.LBE170:
 475              	.LBE171:
  45:main.cpp      **** 
 476              		.loc 11 45 5 is_stmt 1 view .LVU43
 477              		.loc 11 47 5 view .LVU44
 478              		.loc 11 47 27 is_stmt 0 view .LVU45
 479 0016 B0EE689A 		vmov.f32	s18, s17
 480              	.LBB172:
 481              	.LBB173:
 482              		.file 13 "c:\\program files\\daisytoolchain\\arm-none-eabi\\include\\c++\\10.2.1\\cmath"
   1:c:\program files\daisytoolchain\arm-none-eabi\include\c++\10.2.1\cmath **** // -*- C++ -*- C forwarding header.
ARM GAS  C:\Users\galla\AppData\Local\Temp\ccOJAY1x.s 			page 22


   2:c:\program files\daisytoolchain\arm-none-eabi\include\c++\10.2.1\cmath **** 
   3:c:\program files\daisytoolchain\arm-none-eabi\include\c++\10.2.1\cmath **** // Copyright (C) 1997-2020 Free Software Foundation, Inc.
   4:c:\program files\daisytoolchain\arm-none-eabi\include\c++\10.2.1\cmath **** //
   5:c:\program files\daisytoolchain\arm-none-eabi\include\c++\10.2.1\cmath **** // This file is part of the GNU ISO C++ Library.  This library is free
   6:c:\program files\daisytoolchain\arm-none-eabi\include\c++\10.2.1\cmath **** // software; you can redistribute it and/or modify it under the
   7:c:\program files\daisytoolchain\arm-none-eabi\include\c++\10.2.1\cmath **** // terms of the GNU General Public License as published by the
   8:c:\program files\daisytoolchain\arm-none-eabi\include\c++\10.2.1\cmath **** // Free Software Foundation; either version 3, or (at your option)
   9:c:\program files\daisytoolchain\arm-none-eabi\include\c++\10.2.1\cmath **** // any later version.
  10:c:\program files\daisytoolchain\arm-none-eabi\include\c++\10.2.1\cmath **** 
  11:c:\program files\daisytoolchain\arm-none-eabi\include\c++\10.2.1\cmath **** // This library is distributed in the hope that it will be useful,
  12:c:\program files\daisytoolchain\arm-none-eabi\include\c++\10.2.1\cmath **** // but WITHOUT ANY WARRANTY; without even the implied warranty of
  13:c:\program files\daisytoolchain\arm-none-eabi\include\c++\10.2.1\cmath **** // MERCHANTABILITY or FITNESS FOR A PARTICULAR PURPOSE.  See the
  14:c:\program files\daisytoolchain\arm-none-eabi\include\c++\10.2.1\cmath **** // GNU General Public License for more details.
  15:c:\program files\daisytoolchain\arm-none-eabi\include\c++\10.2.1\cmath **** 
  16:c:\program files\daisytoolchain\arm-none-eabi\include\c++\10.2.1\cmath **** // Under Section 7 of GPL version 3, you are granted additional
  17:c:\program files\daisytoolchain\arm-none-eabi\include\c++\10.2.1\cmath **** // permissions described in the GCC Runtime Library Exception, version
  18:c:\program files\daisytoolchain\arm-none-eabi\include\c++\10.2.1\cmath **** // 3.1, as published by the Free Software Foundation.
  19:c:\program files\daisytoolchain\arm-none-eabi\include\c++\10.2.1\cmath **** 
  20:c:\program files\daisytoolchain\arm-none-eabi\include\c++\10.2.1\cmath **** // You should have received a copy of the GNU General Public License and
  21:c:\program files\daisytoolchain\arm-none-eabi\include\c++\10.2.1\cmath **** // a copy of the GCC Runtime Library Exception along with this program;
  22:c:\program files\daisytoolchain\arm-none-eabi\include\c++\10.2.1\cmath **** // see the files COPYING3 and COPYING.RUNTIME respectively.  If not, see
  23:c:\program files\daisytoolchain\arm-none-eabi\include\c++\10.2.1\cmath **** // <http://www.gnu.org/licenses/>.
  24:c:\program files\daisytoolchain\arm-none-eabi\include\c++\10.2.1\cmath **** 
  25:c:\program files\daisytoolchain\arm-none-eabi\include\c++\10.2.1\cmath **** /** @file include/cmath
  26:c:\program files\daisytoolchain\arm-none-eabi\include\c++\10.2.1\cmath ****  *  This is a Standard C++ Library file.  You should @c \#include this file
  27:c:\program files\daisytoolchain\arm-none-eabi\include\c++\10.2.1\cmath ****  *  in your programs, rather than any of the @a *.h implementation files.
  28:c:\program files\daisytoolchain\arm-none-eabi\include\c++\10.2.1\cmath ****  *
  29:c:\program files\daisytoolchain\arm-none-eabi\include\c++\10.2.1\cmath ****  *  This is the C++ version of the Standard C Library header @c math.h,
  30:c:\program files\daisytoolchain\arm-none-eabi\include\c++\10.2.1\cmath ****  *  and its contents are (mostly) the same as that header, but are all
  31:c:\program files\daisytoolchain\arm-none-eabi\include\c++\10.2.1\cmath ****  *  contained in the namespace @c std (except for names which are defined
  32:c:\program files\daisytoolchain\arm-none-eabi\include\c++\10.2.1\cmath ****  *  as macros in C).
  33:c:\program files\daisytoolchain\arm-none-eabi\include\c++\10.2.1\cmath ****  */
  34:c:\program files\daisytoolchain\arm-none-eabi\include\c++\10.2.1\cmath **** 
  35:c:\program files\daisytoolchain\arm-none-eabi\include\c++\10.2.1\cmath **** //
  36:c:\program files\daisytoolchain\arm-none-eabi\include\c++\10.2.1\cmath **** // ISO C++ 14882: 26.5  C library
  37:c:\program files\daisytoolchain\arm-none-eabi\include\c++\10.2.1\cmath **** //
  38:c:\program files\daisytoolchain\arm-none-eabi\include\c++\10.2.1\cmath **** 
  39:c:\program files\daisytoolchain\arm-none-eabi\include\c++\10.2.1\cmath **** #pragma GCC system_header
  40:c:\program files\daisytoolchain\arm-none-eabi\include\c++\10.2.1\cmath **** 
  41:c:\program files\daisytoolchain\arm-none-eabi\include\c++\10.2.1\cmath **** #include <bits/c++config.h>
  42:c:\program files\daisytoolchain\arm-none-eabi\include\c++\10.2.1\cmath **** #include <bits/cpp_type_traits.h>
  43:c:\program files\daisytoolchain\arm-none-eabi\include\c++\10.2.1\cmath **** #include <ext/type_traits.h>
  44:c:\program files\daisytoolchain\arm-none-eabi\include\c++\10.2.1\cmath **** #define _GLIBCXX_INCLUDE_NEXT_C_HEADERS
  45:c:\program files\daisytoolchain\arm-none-eabi\include\c++\10.2.1\cmath **** #include_next <math.h>
  46:c:\program files\daisytoolchain\arm-none-eabi\include\c++\10.2.1\cmath **** #undef _GLIBCXX_INCLUDE_NEXT_C_HEADERS
  47:c:\program files\daisytoolchain\arm-none-eabi\include\c++\10.2.1\cmath **** #include <bits/std_abs.h>
  48:c:\program files\daisytoolchain\arm-none-eabi\include\c++\10.2.1\cmath **** 
  49:c:\program files\daisytoolchain\arm-none-eabi\include\c++\10.2.1\cmath **** #ifndef _GLIBCXX_CMATH
  50:c:\program files\daisytoolchain\arm-none-eabi\include\c++\10.2.1\cmath **** #define _GLIBCXX_CMATH 1
  51:c:\program files\daisytoolchain\arm-none-eabi\include\c++\10.2.1\cmath **** 
  52:c:\program files\daisytoolchain\arm-none-eabi\include\c++\10.2.1\cmath **** // Get rid of those macros defined in <math.h> in lieu of real functions.
  53:c:\program files\daisytoolchain\arm-none-eabi\include\c++\10.2.1\cmath **** #undef div
  54:c:\program files\daisytoolchain\arm-none-eabi\include\c++\10.2.1\cmath **** #undef acos
  55:c:\program files\daisytoolchain\arm-none-eabi\include\c++\10.2.1\cmath **** #undef asin
  56:c:\program files\daisytoolchain\arm-none-eabi\include\c++\10.2.1\cmath **** #undef atan
  57:c:\program files\daisytoolchain\arm-none-eabi\include\c++\10.2.1\cmath **** #undef atan2
  58:c:\program files\daisytoolchain\arm-none-eabi\include\c++\10.2.1\cmath **** #undef ceil
ARM GAS  C:\Users\galla\AppData\Local\Temp\ccOJAY1x.s 			page 23


  59:c:\program files\daisytoolchain\arm-none-eabi\include\c++\10.2.1\cmath **** #undef cos
  60:c:\program files\daisytoolchain\arm-none-eabi\include\c++\10.2.1\cmath **** #undef cosh
  61:c:\program files\daisytoolchain\arm-none-eabi\include\c++\10.2.1\cmath **** #undef exp
  62:c:\program files\daisytoolchain\arm-none-eabi\include\c++\10.2.1\cmath **** #undef fabs
  63:c:\program files\daisytoolchain\arm-none-eabi\include\c++\10.2.1\cmath **** #undef floor
  64:c:\program files\daisytoolchain\arm-none-eabi\include\c++\10.2.1\cmath **** #undef fmod
  65:c:\program files\daisytoolchain\arm-none-eabi\include\c++\10.2.1\cmath **** #undef frexp
  66:c:\program files\daisytoolchain\arm-none-eabi\include\c++\10.2.1\cmath **** #undef ldexp
  67:c:\program files\daisytoolchain\arm-none-eabi\include\c++\10.2.1\cmath **** #undef log
  68:c:\program files\daisytoolchain\arm-none-eabi\include\c++\10.2.1\cmath **** #undef log10
  69:c:\program files\daisytoolchain\arm-none-eabi\include\c++\10.2.1\cmath **** #undef modf
  70:c:\program files\daisytoolchain\arm-none-eabi\include\c++\10.2.1\cmath **** #undef pow
  71:c:\program files\daisytoolchain\arm-none-eabi\include\c++\10.2.1\cmath **** #undef sin
  72:c:\program files\daisytoolchain\arm-none-eabi\include\c++\10.2.1\cmath **** #undef sinh
  73:c:\program files\daisytoolchain\arm-none-eabi\include\c++\10.2.1\cmath **** #undef sqrt
  74:c:\program files\daisytoolchain\arm-none-eabi\include\c++\10.2.1\cmath **** #undef tan
  75:c:\program files\daisytoolchain\arm-none-eabi\include\c++\10.2.1\cmath **** #undef tanh
  76:c:\program files\daisytoolchain\arm-none-eabi\include\c++\10.2.1\cmath **** 
  77:c:\program files\daisytoolchain\arm-none-eabi\include\c++\10.2.1\cmath **** extern "C++"
  78:c:\program files\daisytoolchain\arm-none-eabi\include\c++\10.2.1\cmath **** {
  79:c:\program files\daisytoolchain\arm-none-eabi\include\c++\10.2.1\cmath **** namespace std _GLIBCXX_VISIBILITY(default)
  80:c:\program files\daisytoolchain\arm-none-eabi\include\c++\10.2.1\cmath **** {
  81:c:\program files\daisytoolchain\arm-none-eabi\include\c++\10.2.1\cmath **** _GLIBCXX_BEGIN_NAMESPACE_VERSION
  82:c:\program files\daisytoolchain\arm-none-eabi\include\c++\10.2.1\cmath **** 
  83:c:\program files\daisytoolchain\arm-none-eabi\include\c++\10.2.1\cmath ****   using ::acos;
  84:c:\program files\daisytoolchain\arm-none-eabi\include\c++\10.2.1\cmath **** 
  85:c:\program files\daisytoolchain\arm-none-eabi\include\c++\10.2.1\cmath **** #ifndef __CORRECT_ISO_CPP_MATH_H_PROTO
  86:c:\program files\daisytoolchain\arm-none-eabi\include\c++\10.2.1\cmath ****   inline _GLIBCXX_CONSTEXPR float
  87:c:\program files\daisytoolchain\arm-none-eabi\include\c++\10.2.1\cmath ****   acos(float __x)
  88:c:\program files\daisytoolchain\arm-none-eabi\include\c++\10.2.1\cmath ****   { return __builtin_acosf(__x); }
  89:c:\program files\daisytoolchain\arm-none-eabi\include\c++\10.2.1\cmath **** 
  90:c:\program files\daisytoolchain\arm-none-eabi\include\c++\10.2.1\cmath ****   inline _GLIBCXX_CONSTEXPR long double
  91:c:\program files\daisytoolchain\arm-none-eabi\include\c++\10.2.1\cmath ****   acos(long double __x)
  92:c:\program files\daisytoolchain\arm-none-eabi\include\c++\10.2.1\cmath ****   { return __builtin_acosl(__x); }
  93:c:\program files\daisytoolchain\arm-none-eabi\include\c++\10.2.1\cmath **** #endif
  94:c:\program files\daisytoolchain\arm-none-eabi\include\c++\10.2.1\cmath **** 
  95:c:\program files\daisytoolchain\arm-none-eabi\include\c++\10.2.1\cmath ****   template<typename _Tp>
  96:c:\program files\daisytoolchain\arm-none-eabi\include\c++\10.2.1\cmath ****     inline _GLIBCXX_CONSTEXPR
  97:c:\program files\daisytoolchain\arm-none-eabi\include\c++\10.2.1\cmath ****     typename __gnu_cxx::__enable_if<__is_integer<_Tp>::__value, 
  98:c:\program files\daisytoolchain\arm-none-eabi\include\c++\10.2.1\cmath ****                                     double>::__type
  99:c:\program files\daisytoolchain\arm-none-eabi\include\c++\10.2.1\cmath ****     acos(_Tp __x)
 100:c:\program files\daisytoolchain\arm-none-eabi\include\c++\10.2.1\cmath ****     { return __builtin_acos(__x); }
 101:c:\program files\daisytoolchain\arm-none-eabi\include\c++\10.2.1\cmath **** 
 102:c:\program files\daisytoolchain\arm-none-eabi\include\c++\10.2.1\cmath ****   using ::asin;
 103:c:\program files\daisytoolchain\arm-none-eabi\include\c++\10.2.1\cmath **** 
 104:c:\program files\daisytoolchain\arm-none-eabi\include\c++\10.2.1\cmath **** #ifndef __CORRECT_ISO_CPP_MATH_H_PROTO
 105:c:\program files\daisytoolchain\arm-none-eabi\include\c++\10.2.1\cmath ****   inline _GLIBCXX_CONSTEXPR float
 106:c:\program files\daisytoolchain\arm-none-eabi\include\c++\10.2.1\cmath ****   asin(float __x)
 107:c:\program files\daisytoolchain\arm-none-eabi\include\c++\10.2.1\cmath ****   { return __builtin_asinf(__x); }
 108:c:\program files\daisytoolchain\arm-none-eabi\include\c++\10.2.1\cmath **** 
 109:c:\program files\daisytoolchain\arm-none-eabi\include\c++\10.2.1\cmath ****   inline _GLIBCXX_CONSTEXPR long double
 110:c:\program files\daisytoolchain\arm-none-eabi\include\c++\10.2.1\cmath ****   asin(long double __x)
 111:c:\program files\daisytoolchain\arm-none-eabi\include\c++\10.2.1\cmath ****   { return __builtin_asinl(__x); }
 112:c:\program files\daisytoolchain\arm-none-eabi\include\c++\10.2.1\cmath **** #endif
 113:c:\program files\daisytoolchain\arm-none-eabi\include\c++\10.2.1\cmath **** 
 114:c:\program files\daisytoolchain\arm-none-eabi\include\c++\10.2.1\cmath ****   template<typename _Tp>
 115:c:\program files\daisytoolchain\arm-none-eabi\include\c++\10.2.1\cmath ****     inline _GLIBCXX_CONSTEXPR
ARM GAS  C:\Users\galla\AppData\Local\Temp\ccOJAY1x.s 			page 24


 116:c:\program files\daisytoolchain\arm-none-eabi\include\c++\10.2.1\cmath ****     typename __gnu_cxx::__enable_if<__is_integer<_Tp>::__value,
 117:c:\program files\daisytoolchain\arm-none-eabi\include\c++\10.2.1\cmath ****                                     double>::__type
 118:c:\program files\daisytoolchain\arm-none-eabi\include\c++\10.2.1\cmath ****     asin(_Tp __x)
 119:c:\program files\daisytoolchain\arm-none-eabi\include\c++\10.2.1\cmath ****     { return __builtin_asin(__x); }
 120:c:\program files\daisytoolchain\arm-none-eabi\include\c++\10.2.1\cmath **** 
 121:c:\program files\daisytoolchain\arm-none-eabi\include\c++\10.2.1\cmath ****   using ::atan;
 122:c:\program files\daisytoolchain\arm-none-eabi\include\c++\10.2.1\cmath **** 
 123:c:\program files\daisytoolchain\arm-none-eabi\include\c++\10.2.1\cmath **** #ifndef __CORRECT_ISO_CPP_MATH_H_PROTO
 124:c:\program files\daisytoolchain\arm-none-eabi\include\c++\10.2.1\cmath ****   inline _GLIBCXX_CONSTEXPR float
 125:c:\program files\daisytoolchain\arm-none-eabi\include\c++\10.2.1\cmath ****   atan(float __x)
 126:c:\program files\daisytoolchain\arm-none-eabi\include\c++\10.2.1\cmath ****   { return __builtin_atanf(__x); }
 127:c:\program files\daisytoolchain\arm-none-eabi\include\c++\10.2.1\cmath **** 
 128:c:\program files\daisytoolchain\arm-none-eabi\include\c++\10.2.1\cmath ****   inline _GLIBCXX_CONSTEXPR long double
 129:c:\program files\daisytoolchain\arm-none-eabi\include\c++\10.2.1\cmath ****   atan(long double __x)
 130:c:\program files\daisytoolchain\arm-none-eabi\include\c++\10.2.1\cmath ****   { return __builtin_atanl(__x); }
 131:c:\program files\daisytoolchain\arm-none-eabi\include\c++\10.2.1\cmath **** #endif
 132:c:\program files\daisytoolchain\arm-none-eabi\include\c++\10.2.1\cmath **** 
 133:c:\program files\daisytoolchain\arm-none-eabi\include\c++\10.2.1\cmath ****   template<typename _Tp>
 134:c:\program files\daisytoolchain\arm-none-eabi\include\c++\10.2.1\cmath ****     inline _GLIBCXX_CONSTEXPR
 135:c:\program files\daisytoolchain\arm-none-eabi\include\c++\10.2.1\cmath ****     typename __gnu_cxx::__enable_if<__is_integer<_Tp>::__value,
 136:c:\program files\daisytoolchain\arm-none-eabi\include\c++\10.2.1\cmath ****                                     double>::__type
 137:c:\program files\daisytoolchain\arm-none-eabi\include\c++\10.2.1\cmath ****     atan(_Tp __x)
 138:c:\program files\daisytoolchain\arm-none-eabi\include\c++\10.2.1\cmath ****     { return __builtin_atan(__x); }
 139:c:\program files\daisytoolchain\arm-none-eabi\include\c++\10.2.1\cmath **** 
 140:c:\program files\daisytoolchain\arm-none-eabi\include\c++\10.2.1\cmath ****   using ::atan2;
 141:c:\program files\daisytoolchain\arm-none-eabi\include\c++\10.2.1\cmath **** 
 142:c:\program files\daisytoolchain\arm-none-eabi\include\c++\10.2.1\cmath **** #ifndef __CORRECT_ISO_CPP_MATH_H_PROTO
 143:c:\program files\daisytoolchain\arm-none-eabi\include\c++\10.2.1\cmath ****   inline _GLIBCXX_CONSTEXPR float
 144:c:\program files\daisytoolchain\arm-none-eabi\include\c++\10.2.1\cmath ****   atan2(float __y, float __x)
 145:c:\program files\daisytoolchain\arm-none-eabi\include\c++\10.2.1\cmath ****   { return __builtin_atan2f(__y, __x); }
 146:c:\program files\daisytoolchain\arm-none-eabi\include\c++\10.2.1\cmath **** 
 147:c:\program files\daisytoolchain\arm-none-eabi\include\c++\10.2.1\cmath ****   inline _GLIBCXX_CONSTEXPR long double
 148:c:\program files\daisytoolchain\arm-none-eabi\include\c++\10.2.1\cmath ****   atan2(long double __y, long double __x)
 149:c:\program files\daisytoolchain\arm-none-eabi\include\c++\10.2.1\cmath ****   { return __builtin_atan2l(__y, __x); }
 150:c:\program files\daisytoolchain\arm-none-eabi\include\c++\10.2.1\cmath **** #endif
 151:c:\program files\daisytoolchain\arm-none-eabi\include\c++\10.2.1\cmath **** 
 152:c:\program files\daisytoolchain\arm-none-eabi\include\c++\10.2.1\cmath ****   template<typename _Tp, typename _Up>
 153:c:\program files\daisytoolchain\arm-none-eabi\include\c++\10.2.1\cmath ****     inline _GLIBCXX_CONSTEXPR
 154:c:\program files\daisytoolchain\arm-none-eabi\include\c++\10.2.1\cmath ****     typename __gnu_cxx::__promote_2<_Tp, _Up>::__type
 155:c:\program files\daisytoolchain\arm-none-eabi\include\c++\10.2.1\cmath ****     atan2(_Tp __y, _Up __x)
 156:c:\program files\daisytoolchain\arm-none-eabi\include\c++\10.2.1\cmath ****     {
 157:c:\program files\daisytoolchain\arm-none-eabi\include\c++\10.2.1\cmath ****       typedef typename __gnu_cxx::__promote_2<_Tp, _Up>::__type __type;
 158:c:\program files\daisytoolchain\arm-none-eabi\include\c++\10.2.1\cmath ****       return atan2(__type(__y), __type(__x));
 159:c:\program files\daisytoolchain\arm-none-eabi\include\c++\10.2.1\cmath ****     }
 160:c:\program files\daisytoolchain\arm-none-eabi\include\c++\10.2.1\cmath **** 
 161:c:\program files\daisytoolchain\arm-none-eabi\include\c++\10.2.1\cmath ****   using ::ceil;
 162:c:\program files\daisytoolchain\arm-none-eabi\include\c++\10.2.1\cmath **** 
 163:c:\program files\daisytoolchain\arm-none-eabi\include\c++\10.2.1\cmath **** #ifndef __CORRECT_ISO_CPP_MATH_H_PROTO
 164:c:\program files\daisytoolchain\arm-none-eabi\include\c++\10.2.1\cmath ****   inline _GLIBCXX_CONSTEXPR float
 165:c:\program files\daisytoolchain\arm-none-eabi\include\c++\10.2.1\cmath ****   ceil(float __x)
 166:c:\program files\daisytoolchain\arm-none-eabi\include\c++\10.2.1\cmath ****   { return __builtin_ceilf(__x); }
 167:c:\program files\daisytoolchain\arm-none-eabi\include\c++\10.2.1\cmath **** 
 168:c:\program files\daisytoolchain\arm-none-eabi\include\c++\10.2.1\cmath ****   inline _GLIBCXX_CONSTEXPR long double
 169:c:\program files\daisytoolchain\arm-none-eabi\include\c++\10.2.1\cmath ****   ceil(long double __x)
 170:c:\program files\daisytoolchain\arm-none-eabi\include\c++\10.2.1\cmath ****   { return __builtin_ceill(__x); }
 171:c:\program files\daisytoolchain\arm-none-eabi\include\c++\10.2.1\cmath **** #endif
 172:c:\program files\daisytoolchain\arm-none-eabi\include\c++\10.2.1\cmath **** 
ARM GAS  C:\Users\galla\AppData\Local\Temp\ccOJAY1x.s 			page 25


 173:c:\program files\daisytoolchain\arm-none-eabi\include\c++\10.2.1\cmath ****   template<typename _Tp>
 174:c:\program files\daisytoolchain\arm-none-eabi\include\c++\10.2.1\cmath ****     inline _GLIBCXX_CONSTEXPR
 175:c:\program files\daisytoolchain\arm-none-eabi\include\c++\10.2.1\cmath ****     typename __gnu_cxx::__enable_if<__is_integer<_Tp>::__value, 
 176:c:\program files\daisytoolchain\arm-none-eabi\include\c++\10.2.1\cmath ****                                     double>::__type
 177:c:\program files\daisytoolchain\arm-none-eabi\include\c++\10.2.1\cmath ****     ceil(_Tp __x)
 178:c:\program files\daisytoolchain\arm-none-eabi\include\c++\10.2.1\cmath ****     { return __builtin_ceil(__x); }
 179:c:\program files\daisytoolchain\arm-none-eabi\include\c++\10.2.1\cmath **** 
 180:c:\program files\daisytoolchain\arm-none-eabi\include\c++\10.2.1\cmath ****   using ::cos;
 181:c:\program files\daisytoolchain\arm-none-eabi\include\c++\10.2.1\cmath **** 
 182:c:\program files\daisytoolchain\arm-none-eabi\include\c++\10.2.1\cmath **** #ifndef __CORRECT_ISO_CPP_MATH_H_PROTO
 183:c:\program files\daisytoolchain\arm-none-eabi\include\c++\10.2.1\cmath ****   inline _GLIBCXX_CONSTEXPR float
 184:c:\program files\daisytoolchain\arm-none-eabi\include\c++\10.2.1\cmath ****   cos(float __x)
 185:c:\program files\daisytoolchain\arm-none-eabi\include\c++\10.2.1\cmath ****   { return __builtin_cosf(__x); }
 186:c:\program files\daisytoolchain\arm-none-eabi\include\c++\10.2.1\cmath **** 
 187:c:\program files\daisytoolchain\arm-none-eabi\include\c++\10.2.1\cmath ****   inline _GLIBCXX_CONSTEXPR long double
 188:c:\program files\daisytoolchain\arm-none-eabi\include\c++\10.2.1\cmath ****   cos(long double __x)
 189:c:\program files\daisytoolchain\arm-none-eabi\include\c++\10.2.1\cmath ****   { return __builtin_cosl(__x); }
 190:c:\program files\daisytoolchain\arm-none-eabi\include\c++\10.2.1\cmath **** #endif
 191:c:\program files\daisytoolchain\arm-none-eabi\include\c++\10.2.1\cmath **** 
 192:c:\program files\daisytoolchain\arm-none-eabi\include\c++\10.2.1\cmath ****   template<typename _Tp>
 193:c:\program files\daisytoolchain\arm-none-eabi\include\c++\10.2.1\cmath ****     inline _GLIBCXX_CONSTEXPR
 194:c:\program files\daisytoolchain\arm-none-eabi\include\c++\10.2.1\cmath ****     typename __gnu_cxx::__enable_if<__is_integer<_Tp>::__value,
 195:c:\program files\daisytoolchain\arm-none-eabi\include\c++\10.2.1\cmath ****                                     double>::__type
 196:c:\program files\daisytoolchain\arm-none-eabi\include\c++\10.2.1\cmath ****     cos(_Tp __x)
 197:c:\program files\daisytoolchain\arm-none-eabi\include\c++\10.2.1\cmath ****     { return __builtin_cos(__x); }
 198:c:\program files\daisytoolchain\arm-none-eabi\include\c++\10.2.1\cmath **** 
 199:c:\program files\daisytoolchain\arm-none-eabi\include\c++\10.2.1\cmath ****   using ::cosh;
 200:c:\program files\daisytoolchain\arm-none-eabi\include\c++\10.2.1\cmath **** 
 201:c:\program files\daisytoolchain\arm-none-eabi\include\c++\10.2.1\cmath **** #ifndef __CORRECT_ISO_CPP_MATH_H_PROTO
 202:c:\program files\daisytoolchain\arm-none-eabi\include\c++\10.2.1\cmath ****   inline _GLIBCXX_CONSTEXPR float
 203:c:\program files\daisytoolchain\arm-none-eabi\include\c++\10.2.1\cmath ****   cosh(float __x)
 204:c:\program files\daisytoolchain\arm-none-eabi\include\c++\10.2.1\cmath ****   { return __builtin_coshf(__x); }
 205:c:\program files\daisytoolchain\arm-none-eabi\include\c++\10.2.1\cmath **** 
 206:c:\program files\daisytoolchain\arm-none-eabi\include\c++\10.2.1\cmath ****   inline _GLIBCXX_CONSTEXPR long double
 207:c:\program files\daisytoolchain\arm-none-eabi\include\c++\10.2.1\cmath ****   cosh(long double __x)
 208:c:\program files\daisytoolchain\arm-none-eabi\include\c++\10.2.1\cmath ****   { return __builtin_coshl(__x); }
 209:c:\program files\daisytoolchain\arm-none-eabi\include\c++\10.2.1\cmath **** #endif
 210:c:\program files\daisytoolchain\arm-none-eabi\include\c++\10.2.1\cmath **** 
 211:c:\program files\daisytoolchain\arm-none-eabi\include\c++\10.2.1\cmath ****   template<typename _Tp>
 212:c:\program files\daisytoolchain\arm-none-eabi\include\c++\10.2.1\cmath ****     inline _GLIBCXX_CONSTEXPR
 213:c:\program files\daisytoolchain\arm-none-eabi\include\c++\10.2.1\cmath ****     typename __gnu_cxx::__enable_if<__is_integer<_Tp>::__value,
 214:c:\program files\daisytoolchain\arm-none-eabi\include\c++\10.2.1\cmath ****                                     double>::__type
 215:c:\program files\daisytoolchain\arm-none-eabi\include\c++\10.2.1\cmath ****     cosh(_Tp __x)
 216:c:\program files\daisytoolchain\arm-none-eabi\include\c++\10.2.1\cmath ****     { return __builtin_cosh(__x); }
 217:c:\program files\daisytoolchain\arm-none-eabi\include\c++\10.2.1\cmath **** 
 218:c:\program files\daisytoolchain\arm-none-eabi\include\c++\10.2.1\cmath ****   using ::exp;
 219:c:\program files\daisytoolchain\arm-none-eabi\include\c++\10.2.1\cmath **** 
 220:c:\program files\daisytoolchain\arm-none-eabi\include\c++\10.2.1\cmath **** #ifndef __CORRECT_ISO_CPP_MATH_H_PROTO
 221:c:\program files\daisytoolchain\arm-none-eabi\include\c++\10.2.1\cmath ****   inline _GLIBCXX_CONSTEXPR float
 222:c:\program files\daisytoolchain\arm-none-eabi\include\c++\10.2.1\cmath ****   exp(float __x)
 223:c:\program files\daisytoolchain\arm-none-eabi\include\c++\10.2.1\cmath ****   { return __builtin_expf(__x); }
 224:c:\program files\daisytoolchain\arm-none-eabi\include\c++\10.2.1\cmath **** 
 225:c:\program files\daisytoolchain\arm-none-eabi\include\c++\10.2.1\cmath ****   inline _GLIBCXX_CONSTEXPR long double
 226:c:\program files\daisytoolchain\arm-none-eabi\include\c++\10.2.1\cmath ****   exp(long double __x)
 227:c:\program files\daisytoolchain\arm-none-eabi\include\c++\10.2.1\cmath ****   { return __builtin_expl(__x); }
 228:c:\program files\daisytoolchain\arm-none-eabi\include\c++\10.2.1\cmath **** #endif
 229:c:\program files\daisytoolchain\arm-none-eabi\include\c++\10.2.1\cmath **** 
ARM GAS  C:\Users\galla\AppData\Local\Temp\ccOJAY1x.s 			page 26


 230:c:\program files\daisytoolchain\arm-none-eabi\include\c++\10.2.1\cmath ****   template<typename _Tp>
 231:c:\program files\daisytoolchain\arm-none-eabi\include\c++\10.2.1\cmath ****     inline _GLIBCXX_CONSTEXPR
 232:c:\program files\daisytoolchain\arm-none-eabi\include\c++\10.2.1\cmath ****     typename __gnu_cxx::__enable_if<__is_integer<_Tp>::__value,
 233:c:\program files\daisytoolchain\arm-none-eabi\include\c++\10.2.1\cmath ****                                     double>::__type
 234:c:\program files\daisytoolchain\arm-none-eabi\include\c++\10.2.1\cmath ****     exp(_Tp __x)
 235:c:\program files\daisytoolchain\arm-none-eabi\include\c++\10.2.1\cmath ****     { return __builtin_exp(__x); }
 236:c:\program files\daisytoolchain\arm-none-eabi\include\c++\10.2.1\cmath **** 
 237:c:\program files\daisytoolchain\arm-none-eabi\include\c++\10.2.1\cmath ****   using ::fabs;
 238:c:\program files\daisytoolchain\arm-none-eabi\include\c++\10.2.1\cmath **** 
 239:c:\program files\daisytoolchain\arm-none-eabi\include\c++\10.2.1\cmath **** #ifndef __CORRECT_ISO_CPP_MATH_H_PROTO
 240:c:\program files\daisytoolchain\arm-none-eabi\include\c++\10.2.1\cmath ****   inline _GLIBCXX_CONSTEXPR float
 241:c:\program files\daisytoolchain\arm-none-eabi\include\c++\10.2.1\cmath ****   fabs(float __x)
 242:c:\program files\daisytoolchain\arm-none-eabi\include\c++\10.2.1\cmath ****   { return __builtin_fabsf(__x); }
 243:c:\program files\daisytoolchain\arm-none-eabi\include\c++\10.2.1\cmath **** 
 244:c:\program files\daisytoolchain\arm-none-eabi\include\c++\10.2.1\cmath ****   inline _GLIBCXX_CONSTEXPR long double
 245:c:\program files\daisytoolchain\arm-none-eabi\include\c++\10.2.1\cmath ****   fabs(long double __x)
 246:c:\program files\daisytoolchain\arm-none-eabi\include\c++\10.2.1\cmath ****   { return __builtin_fabsl(__x); }
 247:c:\program files\daisytoolchain\arm-none-eabi\include\c++\10.2.1\cmath **** #endif
 248:c:\program files\daisytoolchain\arm-none-eabi\include\c++\10.2.1\cmath **** 
 249:c:\program files\daisytoolchain\arm-none-eabi\include\c++\10.2.1\cmath ****   template<typename _Tp>
 250:c:\program files\daisytoolchain\arm-none-eabi\include\c++\10.2.1\cmath ****     inline _GLIBCXX_CONSTEXPR
 251:c:\program files\daisytoolchain\arm-none-eabi\include\c++\10.2.1\cmath ****     typename __gnu_cxx::__enable_if<__is_integer<_Tp>::__value,
 252:c:\program files\daisytoolchain\arm-none-eabi\include\c++\10.2.1\cmath ****                                     double>::__type
 253:c:\program files\daisytoolchain\arm-none-eabi\include\c++\10.2.1\cmath ****     fabs(_Tp __x)
 254:c:\program files\daisytoolchain\arm-none-eabi\include\c++\10.2.1\cmath ****     { return __builtin_fabs(__x); }
 255:c:\program files\daisytoolchain\arm-none-eabi\include\c++\10.2.1\cmath **** 
 256:c:\program files\daisytoolchain\arm-none-eabi\include\c++\10.2.1\cmath ****   using ::floor;
 257:c:\program files\daisytoolchain\arm-none-eabi\include\c++\10.2.1\cmath **** 
 258:c:\program files\daisytoolchain\arm-none-eabi\include\c++\10.2.1\cmath **** #ifndef __CORRECT_ISO_CPP_MATH_H_PROTO
 259:c:\program files\daisytoolchain\arm-none-eabi\include\c++\10.2.1\cmath ****   inline _GLIBCXX_CONSTEXPR float
 260:c:\program files\daisytoolchain\arm-none-eabi\include\c++\10.2.1\cmath ****   floor(float __x)
 261:c:\program files\daisytoolchain\arm-none-eabi\include\c++\10.2.1\cmath ****   { return __builtin_floorf(__x); }
 262:c:\program files\daisytoolchain\arm-none-eabi\include\c++\10.2.1\cmath **** 
 263:c:\program files\daisytoolchain\arm-none-eabi\include\c++\10.2.1\cmath ****   inline _GLIBCXX_CONSTEXPR long double
 264:c:\program files\daisytoolchain\arm-none-eabi\include\c++\10.2.1\cmath ****   floor(long double __x)
 265:c:\program files\daisytoolchain\arm-none-eabi\include\c++\10.2.1\cmath ****   { return __builtin_floorl(__x); }
 266:c:\program files\daisytoolchain\arm-none-eabi\include\c++\10.2.1\cmath **** #endif
 267:c:\program files\daisytoolchain\arm-none-eabi\include\c++\10.2.1\cmath **** 
 268:c:\program files\daisytoolchain\arm-none-eabi\include\c++\10.2.1\cmath ****   template<typename _Tp>
 269:c:\program files\daisytoolchain\arm-none-eabi\include\c++\10.2.1\cmath ****     inline _GLIBCXX_CONSTEXPR
 270:c:\program files\daisytoolchain\arm-none-eabi\include\c++\10.2.1\cmath ****     typename __gnu_cxx::__enable_if<__is_integer<_Tp>::__value,
 271:c:\program files\daisytoolchain\arm-none-eabi\include\c++\10.2.1\cmath ****                                     double>::__type
 272:c:\program files\daisytoolchain\arm-none-eabi\include\c++\10.2.1\cmath ****     floor(_Tp __x)
 273:c:\program files\daisytoolchain\arm-none-eabi\include\c++\10.2.1\cmath ****     { return __builtin_floor(__x); }
 274:c:\program files\daisytoolchain\arm-none-eabi\include\c++\10.2.1\cmath **** 
 275:c:\program files\daisytoolchain\arm-none-eabi\include\c++\10.2.1\cmath ****   using ::fmod;
 276:c:\program files\daisytoolchain\arm-none-eabi\include\c++\10.2.1\cmath **** 
 277:c:\program files\daisytoolchain\arm-none-eabi\include\c++\10.2.1\cmath **** #ifndef __CORRECT_ISO_CPP_MATH_H_PROTO
 278:c:\program files\daisytoolchain\arm-none-eabi\include\c++\10.2.1\cmath ****   inline _GLIBCXX_CONSTEXPR float
 279:c:\program files\daisytoolchain\arm-none-eabi\include\c++\10.2.1\cmath ****   fmod(float __x, float __y)
 280:c:\program files\daisytoolchain\arm-none-eabi\include\c++\10.2.1\cmath ****   { return __builtin_fmodf(__x, __y); }
 281:c:\program files\daisytoolchain\arm-none-eabi\include\c++\10.2.1\cmath **** 
 282:c:\program files\daisytoolchain\arm-none-eabi\include\c++\10.2.1\cmath ****   inline _GLIBCXX_CONSTEXPR long double
 283:c:\program files\daisytoolchain\arm-none-eabi\include\c++\10.2.1\cmath ****   fmod(long double __x, long double __y)
 284:c:\program files\daisytoolchain\arm-none-eabi\include\c++\10.2.1\cmath ****   { return __builtin_fmodl(__x, __y); }
 285:c:\program files\daisytoolchain\arm-none-eabi\include\c++\10.2.1\cmath **** #endif
 286:c:\program files\daisytoolchain\arm-none-eabi\include\c++\10.2.1\cmath **** 
ARM GAS  C:\Users\galla\AppData\Local\Temp\ccOJAY1x.s 			page 27


 287:c:\program files\daisytoolchain\arm-none-eabi\include\c++\10.2.1\cmath ****   template<typename _Tp, typename _Up>
 288:c:\program files\daisytoolchain\arm-none-eabi\include\c++\10.2.1\cmath ****     inline _GLIBCXX_CONSTEXPR
 289:c:\program files\daisytoolchain\arm-none-eabi\include\c++\10.2.1\cmath ****     typename __gnu_cxx::__promote_2<_Tp, _Up>::__type
 290:c:\program files\daisytoolchain\arm-none-eabi\include\c++\10.2.1\cmath ****     fmod(_Tp __x, _Up __y)
 291:c:\program files\daisytoolchain\arm-none-eabi\include\c++\10.2.1\cmath ****     {
 292:c:\program files\daisytoolchain\arm-none-eabi\include\c++\10.2.1\cmath ****       typedef typename __gnu_cxx::__promote_2<_Tp, _Up>::__type __type;
 293:c:\program files\daisytoolchain\arm-none-eabi\include\c++\10.2.1\cmath ****       return fmod(__type(__x), __type(__y));
 294:c:\program files\daisytoolchain\arm-none-eabi\include\c++\10.2.1\cmath ****     }
 295:c:\program files\daisytoolchain\arm-none-eabi\include\c++\10.2.1\cmath **** 
 296:c:\program files\daisytoolchain\arm-none-eabi\include\c++\10.2.1\cmath ****   using ::frexp;
 297:c:\program files\daisytoolchain\arm-none-eabi\include\c++\10.2.1\cmath **** 
 298:c:\program files\daisytoolchain\arm-none-eabi\include\c++\10.2.1\cmath **** #ifndef __CORRECT_ISO_CPP_MATH_H_PROTO
 299:c:\program files\daisytoolchain\arm-none-eabi\include\c++\10.2.1\cmath ****   inline float
 300:c:\program files\daisytoolchain\arm-none-eabi\include\c++\10.2.1\cmath ****   frexp(float __x, int* __exp)
 301:c:\program files\daisytoolchain\arm-none-eabi\include\c++\10.2.1\cmath ****   { return __builtin_frexpf(__x, __exp); }
 302:c:\program files\daisytoolchain\arm-none-eabi\include\c++\10.2.1\cmath **** 
 303:c:\program files\daisytoolchain\arm-none-eabi\include\c++\10.2.1\cmath ****   inline long double
 304:c:\program files\daisytoolchain\arm-none-eabi\include\c++\10.2.1\cmath ****   frexp(long double __x, int* __exp)
 305:c:\program files\daisytoolchain\arm-none-eabi\include\c++\10.2.1\cmath ****   { return __builtin_frexpl(__x, __exp); }
 306:c:\program files\daisytoolchain\arm-none-eabi\include\c++\10.2.1\cmath **** #endif
 307:c:\program files\daisytoolchain\arm-none-eabi\include\c++\10.2.1\cmath **** 
 308:c:\program files\daisytoolchain\arm-none-eabi\include\c++\10.2.1\cmath ****   template<typename _Tp>
 309:c:\program files\daisytoolchain\arm-none-eabi\include\c++\10.2.1\cmath ****     inline _GLIBCXX_CONSTEXPR
 310:c:\program files\daisytoolchain\arm-none-eabi\include\c++\10.2.1\cmath ****     typename __gnu_cxx::__enable_if<__is_integer<_Tp>::__value, 
 311:c:\program files\daisytoolchain\arm-none-eabi\include\c++\10.2.1\cmath ****                                     double>::__type
 312:c:\program files\daisytoolchain\arm-none-eabi\include\c++\10.2.1\cmath ****     frexp(_Tp __x, int* __exp)
 313:c:\program files\daisytoolchain\arm-none-eabi\include\c++\10.2.1\cmath ****     { return __builtin_frexp(__x, __exp); }
 314:c:\program files\daisytoolchain\arm-none-eabi\include\c++\10.2.1\cmath **** 
 315:c:\program files\daisytoolchain\arm-none-eabi\include\c++\10.2.1\cmath ****   using ::ldexp;
 316:c:\program files\daisytoolchain\arm-none-eabi\include\c++\10.2.1\cmath **** 
 317:c:\program files\daisytoolchain\arm-none-eabi\include\c++\10.2.1\cmath **** #ifndef __CORRECT_ISO_CPP_MATH_H_PROTO
 318:c:\program files\daisytoolchain\arm-none-eabi\include\c++\10.2.1\cmath ****   inline _GLIBCXX_CONSTEXPR float
 319:c:\program files\daisytoolchain\arm-none-eabi\include\c++\10.2.1\cmath ****   ldexp(float __x, int __exp)
 320:c:\program files\daisytoolchain\arm-none-eabi\include\c++\10.2.1\cmath ****   { return __builtin_ldexpf(__x, __exp); }
 321:c:\program files\daisytoolchain\arm-none-eabi\include\c++\10.2.1\cmath **** 
 322:c:\program files\daisytoolchain\arm-none-eabi\include\c++\10.2.1\cmath ****   inline _GLIBCXX_CONSTEXPR long double
 323:c:\program files\daisytoolchain\arm-none-eabi\include\c++\10.2.1\cmath ****   ldexp(long double __x, int __exp)
 324:c:\program files\daisytoolchain\arm-none-eabi\include\c++\10.2.1\cmath ****   { return __builtin_ldexpl(__x, __exp); }
 325:c:\program files\daisytoolchain\arm-none-eabi\include\c++\10.2.1\cmath **** #endif
 326:c:\program files\daisytoolchain\arm-none-eabi\include\c++\10.2.1\cmath **** 
 327:c:\program files\daisytoolchain\arm-none-eabi\include\c++\10.2.1\cmath ****   template<typename _Tp>
 328:c:\program files\daisytoolchain\arm-none-eabi\include\c++\10.2.1\cmath ****     inline _GLIBCXX_CONSTEXPR
 329:c:\program files\daisytoolchain\arm-none-eabi\include\c++\10.2.1\cmath ****     typename __gnu_cxx::__enable_if<__is_integer<_Tp>::__value, 
 330:c:\program files\daisytoolchain\arm-none-eabi\include\c++\10.2.1\cmath ****                                     double>::__type
 331:c:\program files\daisytoolchain\arm-none-eabi\include\c++\10.2.1\cmath ****     ldexp(_Tp __x, int __exp)
 332:c:\program files\daisytoolchain\arm-none-eabi\include\c++\10.2.1\cmath ****     { return __builtin_ldexp(__x, __exp); }
 333:c:\program files\daisytoolchain\arm-none-eabi\include\c++\10.2.1\cmath **** 
 334:c:\program files\daisytoolchain\arm-none-eabi\include\c++\10.2.1\cmath ****   using ::log;
 335:c:\program files\daisytoolchain\arm-none-eabi\include\c++\10.2.1\cmath **** 
 336:c:\program files\daisytoolchain\arm-none-eabi\include\c++\10.2.1\cmath **** #ifndef __CORRECT_ISO_CPP_MATH_H_PROTO
 337:c:\program files\daisytoolchain\arm-none-eabi\include\c++\10.2.1\cmath ****   inline _GLIBCXX_CONSTEXPR float
 338:c:\program files\daisytoolchain\arm-none-eabi\include\c++\10.2.1\cmath ****   log(float __x)
 339:c:\program files\daisytoolchain\arm-none-eabi\include\c++\10.2.1\cmath ****   { return __builtin_logf(__x); }
 483              		.loc 13 339 26 view .LVU46
 484 001a 38EE290A 		vadd.f32	s0, s16, s19
 485              	.LVL15:
 486              		.loc 13 339 26 view .LVU47
ARM GAS  C:\Users\galla\AppData\Local\Temp\ccOJAY1x.s 			page 28


 487              	.LBE173:
 488              	.LBE172:
 489              		.loc 11 47 27 view .LVU48
 490 001e A8EE279A 		vfma.f32	s18, s16, s15
 491              	.LVL16:
 492              	.LBB175:
 493              	.LBI172:
 338:c:\program files\daisytoolchain\arm-none-eabi\include\c++\10.2.1\cmath ****   { return __builtin_logf(__x); }
 494              		.loc 13 338 3 is_stmt 1 view .LVU49
 495              	.LBB174:
 496              		.loc 13 339 5 view .LVU50
 497              		.loc 13 339 26 is_stmt 0 view .LVU51
 498 0022 FFF7FEFF 		bl	logf
 499              	.LVL17:
 500              		.loc 13 339 26 view .LVU52
 501              	.LBE174:
 502              	.LBE175:
 503              		.loc 11 47 57 view .LVU53
 504 0026 F0EE087A 		vmov.f32	s15, #3.0e+0
 505              		.loc 11 47 18 view .LVU54
 506 002a B1EE086A 		vmov.f32	s12, #6.0e+0
 507              		.loc 11 47 71 view .LVU55
 508 002e F2EE026A 		vmov.f32	s13, #9.0e+0
 509              		.loc 11 47 57 view .LVU56
 510 0032 78EEA77A 		vadd.f32	s15, s17, s15
  48:main.cpp      **** 
  49:main.cpp      ****     out = -1*num/12;
 511              		.loc 11 49 9 view .LVU57
 512 0036 B2EE087A 		vmov.f32	s14, #1.2e+1
  47:main.cpp      **** 
 513              		.loc 11 47 32 view .LVU58
 514 003a 39EE299A 		vadd.f32	s18, s18, s19
  47:main.cpp      **** 
 515              		.loc 11 47 52 view .LVU59
 516 003e 77EEA77A 		vadd.f32	s15, s15, s15
  47:main.cpp      **** 
 517              		.loc 11 47 18 view .LVU60
 518 0042 29EE069A 		vmul.f32	s18, s18, s12
  47:main.cpp      **** 
 519              		.loc 11 47 49 view .LVU61
 520 0046 28EE678A 		vnmul.f32	s16, s16, s15
 521              	.LVL18:
  47:main.cpp      **** 
 522              		.loc 11 47 49 view .LVU62
 523 004a A9EE008A 		vfma.f32	s16, s18, s0
  47:main.cpp      **** 
 524              		.loc 11 47 71 view .LVU63
 525 004e A8EEE68A 		vfms.f32	s16, s17, s13
 526              	.LVL19:
 527              		.loc 11 49 5 is_stmt 1 view .LVU64
  50:main.cpp      **** 
  51:main.cpp      ****     return out;
 528              		.loc 11 51 5 view .LVU65
  49:main.cpp      **** 
 529              		.loc 11 49 13 is_stmt 0 view .LVU66
 530 0052 B1EE488A 		vneg.f32	s16, s16
 531              	.LVL20:
ARM GAS  C:\Users\galla\AppData\Local\Temp\ccOJAY1x.s 			page 29


  52:main.cpp      **** }
 532              		.loc 11 52 1 view .LVU67
 533 0056 88EE070A 		vdiv.f32	s0, s16, s14
 534              	.LVL21:
 535              		.loc 11 52 1 view .LVU68
 536 005a BDEC048B 		vldm	sp!, {d8-d9}
 537              		.cfi_restore 82
 538              		.cfi_restore 83
 539              		.cfi_restore 80
 540              		.cfi_restore 81
 541              		.cfi_def_cfa_offset 8
 542              		.loc 11 52 1 view .LVU69
 543 005e 08BD     		pop	{r3, pc}
 544              		.cfi_endproc
 545              	.LFE4739:
 547              		.section	.text._Z2tsf,"ax",%progbits
 548              		.align	1
 549              		.p2align 2,,3
 550              		.global	_Z2tsf
 551              		.syntax unified
 552              		.thumb
 553              		.thumb_func
 554              		.fpu fpv5-d16
 556              	_Z2tsf:
 557              	.LVL22:
 558              	.LFB4740:
  53:main.cpp      **** 
  54:main.cpp      **** float ts(float in) {
 559              		.loc 11 54 20 is_stmt 1 view -0
 560              		.cfi_startproc
 561              		@ args = 0, pretend = 0, frame = 0
 562              		@ frame_needed = 0, uses_anonymous_args = 0
 563              		@ link register save eliminated.
  55:main.cpp      ****     return in / (1 + abs(in));
 564              		.loc 11 55 5 view .LVU71
 565              		.loc 11 55 20 is_stmt 0 view .LVU72
 566 0000 B7EE007A 		vmov.f32	s14, #1.0e+0
 567              	.LVL23:
 568              	.LBB176:
 569              	.LBI176:
  75:c:\program files\daisytoolchain\arm-none-eabi\include\c++\10.2.1\bits\std_abs.h ****   { return __builtin_fabsf(__x); }
 570              		.loc 12 75 3 is_stmt 1 view .LVU73
 571              	.LBB177:
 572              		.loc 12 76 5 view .LVU74
 573              		.loc 12 76 31 is_stmt 0 view .LVU75
 574 0004 F0EEC07A 		vabs.f32	s15, s0
 575              	.LBE177:
 576              	.LBE176:
 577              		.loc 11 55 20 view .LVU76
 578 0008 77EE877A 		vadd.f32	s15, s15, s14
  56:main.cpp      **** }
 579              		.loc 11 56 1 view .LVU77
 580 000c 80EE270A 		vdiv.f32	s0, s0, s15
 581              	.LVL24:
 582              		.loc 11 56 1 view .LVU78
 583 0010 7047     		bx	lr
 584              		.cfi_endproc
ARM GAS  C:\Users\galla\AppData\Local\Temp\ccOJAY1x.s 			page 30


 585              	.LFE4740:
 587 0012 00BF     		.section	.text._Z5bm3ADf,"ax",%progbits
 588              		.align	1
 589              		.p2align 2,,3
 590              		.global	_Z5bm3ADf
 591              		.syntax unified
 592              		.thumb
 593              		.thumb_func
 594              		.fpu fpv5-d16
 596              	_Z5bm3ADf:
 597              	.LVL25:
 598              	.LFB4741:
  57:main.cpp      **** 
  58:main.cpp      **** float bm3AD(float x) {
 599              		.loc 11 58 22 is_stmt 1 view -0
 600              		.cfi_startproc
 601              		@ args = 0, pretend = 0, frame = 0
 602              		@ frame_needed = 0, uses_anonymous_args = 0
 603              		@ link register save eliminated.
  59:main.cpp      ****     float out;
 604              		.loc 11 59 5 view .LVU80
  60:main.cpp      ****     float stage1;
 605              		.loc 11 60 5 view .LVU81
  61:main.cpp      ****     // if (x >= 0.4) {
  62:main.cpp      ****     //     stage1 = 0.666667*x*x*x;
  63:main.cpp      ****     // } else if(x<= -0.4) {
  64:main.cpp      ****     //     stage1 = -1*0.666667*x*x*x;
  65:main.cpp      ****     // } else {
  66:main.cpp      ****     //     stage1 = 0.041666*x*x*x*x;
  67:main.cpp      ****     // }
  68:main.cpp      **** 
  69:main.cpp      ****     if (x >= 0.17) {
 606              		.loc 11 69 5 view .LVU82
  70:main.cpp      ****         stage1 = 0.000002833*x*x*x;
  71:main.cpp      ****     } else if(x<= -0.17) {
  72:main.cpp      ****         stage1 = -1*0.000002833*x*x*x;
  73:main.cpp      ****     } else {
  74:main.cpp      ****         stage1 = 0.041666*x*x*x*x;
  75:main.cpp      ****     }
  76:main.cpp      **** 
  77:main.cpp      ****     stage1 *= 40;
  78:main.cpp      **** 
  79:main.cpp      ****     // if (stage1 >= 0.4) {
  80:main.cpp      ****     //     out = 0.666667*stage1*stage1*stage1;
  81:main.cpp      ****     // } else if(x<= -0.4) {
  82:main.cpp      ****     //     out = -1*0.666667*stage1*stage1*stage1; // slilcon diode hard clipping / faithful to ori
  83:main.cpp      ****     // } else {
  84:main.cpp      ****     //     out = 0.041666*stage1*stage1*stage1*stage1;
  85:main.cpp      ****     // }
  86:main.cpp      **** 
  87:main.cpp      ****     if (x >= 0.17) {
 607              		.loc 11 87 5 is_stmt 0 view .LVU83
 608 0000 9FED197B 		vldr.64	d7, .L36
  69:main.cpp      ****         stage1 = 0.000002833*x*x*x;
 609              		.loc 11 69 9 view .LVU84
 610 0004 B7EEC00A 		vcvt.f64.f32	d0, s0
 611              	.LVL26:
ARM GAS  C:\Users\galla\AppData\Local\Temp\ccOJAY1x.s 			page 31


  71:main.cpp      ****         stage1 = -1*0.000002833*x*x*x;
 612              		.loc 11 71 12 is_stmt 1 view .LVU85
  74:main.cpp      ****     }
 613              		.loc 11 74 9 view .LVU86
  77:main.cpp      **** 
 614              		.loc 11 77 5 view .LVU87
 615              		.loc 11 87 5 view .LVU88
 616 0008 B4EEC70B 		vcmpe.f64	d0, d7
 617 000c F1EE10FA 		vmrs	APSR_nzcv, FPSCR
 618 0010 0ADB     		blt	.L34
  88:main.cpp      ****         out = 0.000002833*x*x*x;
 619              		.loc 11 88 9 view .LVU89
 620              		.loc 11 88 26 is_stmt 0 view .LVU90
 621 0012 9FED177B 		vldr.64	d7, .L36+8
 622 0016 20EE077B 		vmul.f64	d7, d0, d7
 623              		.loc 11 88 28 view .LVU91
 624 001a 27EE007B 		vmul.f64	d7, d7, d0
 625              		.loc 11 88 30 view .LVU92
 626 001e 27EE000B 		vmul.f64	d0, d7, d0
 627              		.loc 11 88 13 view .LVU93
 628 0022 B7EEC00B 		vcvt.f32.f64	s0, d0
 629              	.LVL27:
 630              		.loc 11 88 13 view .LVU94
 631 0026 7047     		bx	lr
 632              	.LVL28:
 633              	.L34:
  89:main.cpp      ****     } else if(x<= -0.17) {
 634              		.loc 11 89 12 is_stmt 1 view .LVU95
 635 0028 9FED137B 		vldr.64	d7, .L36+16
 636 002c B4EEC70B 		vcmpe.f64	d0, d7
 637 0030 F1EE10FA 		vmrs	APSR_nzcv, FPSCR
 638 0034 0AD8     		bhi	.L35
  90:main.cpp      ****         out = -1*0.000002833*x*x*x; // germanium hard clipping approximation / test later
 639              		.loc 11 90 9 view .LVU96
 640              		.loc 11 90 29 is_stmt 0 view .LVU97
 641 0036 9FED127B 		vldr.64	d7, .L36+24
 642 003a 20EE077B 		vmul.f64	d7, d0, d7
 643              		.loc 11 90 31 view .LVU98
 644 003e 27EE007B 		vmul.f64	d7, d7, d0
 645              		.loc 11 90 33 view .LVU99
 646 0042 27EE000B 		vmul.f64	d0, d7, d0
 647              		.loc 11 90 13 view .LVU100
 648 0046 B7EEC00B 		vcvt.f32.f64	s0, d0
 649              	.LVL29:
 650              		.loc 11 90 13 view .LVU101
 651 004a 7047     		bx	lr
 652              	.LVL30:
 653              	.L35:
  91:main.cpp      ****     } else {
  92:main.cpp      ****         out = 0.041666*x*x*x*x;
 654              		.loc 11 92 9 is_stmt 1 view .LVU102
 655              		.loc 11 92 23 is_stmt 0 view .LVU103
 656 004c 9FED0E7B 		vldr.64	d7, .L36+32
 657 0050 20EE077B 		vmul.f64	d7, d0, d7
 658              		.loc 11 92 25 view .LVU104
 659 0054 27EE007B 		vmul.f64	d7, d7, d0
 660              		.loc 11 92 27 view .LVU105
ARM GAS  C:\Users\galla\AppData\Local\Temp\ccOJAY1x.s 			page 32


 661 0058 27EE007B 		vmul.f64	d7, d7, d0
 662              		.loc 11 92 29 view .LVU106
 663 005c 27EE000B 		vmul.f64	d0, d7, d0
 664              		.loc 11 92 13 view .LVU107
 665 0060 B7EEC00B 		vcvt.f32.f64	s0, d0
 666              	.LVL31:
  93:main.cpp      ****     }
  94:main.cpp      ****     return out;
 667              		.loc 11 94 5 is_stmt 1 view .LVU108
  95:main.cpp      **** }
 668              		.loc 11 95 1 is_stmt 0 view .LVU109
 669 0064 7047     		bx	lr
 670              	.L37:
 671 0066 00BF     		.align	3
 672              	.L36:
 673 0068 C3F5285C 		.word	1546188227
 674 006c 8FC2C53F 		.word	1069925007
 675 0070 94B98238 		.word	948091284
 676 0074 D2C3C73E 		.word	1053279186
 677 0078 C3F5285C 		.word	1546188227
 678 007c 8FC2C5BF 		.word	-1077558641
 679 0080 94B98238 		.word	948091284
 680 0084 D2C3C7BE 		.word	-1094204462
 681 0088 63D4B5F6 		.word	-155855773
 682 008c 3E55A53F 		.word	1067799870
 683              		.cfi_endproc
 684              	.LFE4741:
 686              		.section	.text._Z2bmf,"ax",%progbits
 687              		.align	1
 688              		.p2align 2,,3
 689              		.global	_Z2bmf
 690              		.syntax unified
 691              		.thumb
 692              		.thumb_func
 693              		.fpu fpv5-d16
 695              	_Z2bmf:
 696              	.LVL32:
 697              	.LFB4742:
  96:main.cpp      **** 
  97:main.cpp      **** float bm(float in) {
 698              		.loc 11 97 20 is_stmt 1 view -0
 699              		.cfi_startproc
 700              		@ args = 0, pretend = 0, frame = 0
 701              		@ frame_needed = 0, uses_anonymous_args = 0
 702              		@ link register save eliminated.
  98:main.cpp      ****     if (in > 0.17) {
 703              		.loc 11 98 5 view .LVU111
 704 0000 9FED0B7B 		vldr.64	d7, .L42
 705              		.loc 11 98 9 is_stmt 0 view .LVU112
 706 0004 B7EEC06A 		vcvt.f64.f32	d6, s0
 707              		.loc 11 98 5 view .LVU113
 708 0008 B4EEC76B 		vcmpe.f64	d6, d7
 709 000c F1EE10FA 		vmrs	APSR_nzcv, FPSCR
 710 0010 0BDC     		bgt	.L40
  99:main.cpp      ****         return 0.17;
 100:main.cpp      ****     } else if (in < -0.17) {
 711              		.loc 11 100 12 is_stmt 1 view .LVU114
ARM GAS  C:\Users\galla\AppData\Local\Temp\ccOJAY1x.s 			page 33


 101:main.cpp      ****         return -0.17;
 102:main.cpp      ****     } else {
 103:main.cpp      ****         return in;
 712              		.loc 11 103 16 is_stmt 0 view .LVU115
 713 0012 DFED0B7A 		vldr.32	s15, .L42+16
 100:main.cpp      ****         return -0.17;
 714              		.loc 11 100 12 view .LVU116
 715 0016 9FED085B 		vldr.64	d5, .L42+8
 716              		.loc 11 103 16 view .LVU117
 717 001a B4EEC56B 		vcmpe.f64	d6, d5
 718 001e F1EE10FA 		vmrs	APSR_nzcv, FPSCR
 719 0022 48BF     		it	mi
 720 0024 B0EE670A 		vmovmi.f32	s0, s15
 721              	.LVL33:
 722              		.loc 11 103 16 view .LVU118
 723 0028 7047     		bx	lr
 724              	.LVL34:
 725              	.L40:
  99:main.cpp      ****         return 0.17;
 726              		.loc 11 99 16 view .LVU119
 727 002a 9FED060A 		vldr.32	s0, .L42+20
 728              	.LVL35:
 104:main.cpp      ****     }
 105:main.cpp      **** }
 729              		.loc 11 105 1 view .LVU120
 730 002e 7047     		bx	lr
 731              	.L43:
 732              		.align	3
 733              	.L42:
 734 0030 C3F5285C 		.word	1546188227
 735 0034 8FC2C53F 		.word	1069925007
 736 0038 C3F5285C 		.word	1546188227
 737 003c 8FC2C5BF 		.word	-1077558641
 738 0040 7B142EBE 		.word	-1104276357
 739 0044 7B142E3E 		.word	1043207291
 740              		.cfi_endproc
 741              	.LFE4742:
 743              		.section	.text._Z9dist3ADAAf,"ax",%progbits
 744              		.align	1
 745              		.p2align 2,,3
 746              		.global	_Z9dist3ADAAf
 747              		.syntax unified
 748              		.thumb
 749              		.thumb_func
 750              		.fpu fpv5-d16
 752              	_Z9dist3ADAAf:
 753              	.LVL36:
 754              	.LFB4743:
 106:main.cpp      **** 
 107:main.cpp      **** 
 108:main.cpp      **** 
 109:main.cpp      **** float dist3ADAA(float in) {
 755              		.loc 11 109 27 is_stmt 1 view -0
 756              		.cfi_startproc
 757              		@ args = 0, pretend = 0, frame = 0
 758              		@ frame_needed = 0, uses_anonymous_args = 0
 110:main.cpp      ****     float out = 0;
ARM GAS  C:\Users\galla\AppData\Local\Temp\ccOJAY1x.s 			page 34


 759              		.loc 11 110 5 view .LVU122
 111:main.cpp      ****     float sigma = 0.00001;
 760              		.loc 11 111 5 view .LVU123
 112:main.cpp      ****     float x = in;
 761              		.loc 11 112 5 view .LVU124
 109:main.cpp      ****     float out = 0;
 762              		.loc 11 109 27 is_stmt 0 view .LVU125
 763 0000 2DE9F843 		push	{r3, r4, r5, r6, r7, r8, r9, lr}
 764              		.cfi_def_cfa_offset 32
 765              		.cfi_offset 3, -32
 766              		.cfi_offset 4, -28
 767              		.cfi_offset 5, -24
 768              		.cfi_offset 6, -20
 769              		.cfi_offset 7, -16
 770              		.cfi_offset 8, -12
 771              		.cfi_offset 9, -8
 772              		.cfi_offset 14, -4
 113:main.cpp      **** 
 114:main.cpp      ****     float x_x1 = x-x1;
 773              		.loc 11 114 19 view .LVU126
 774 0004 DE4C     		ldr	r4, .L144+32
 115:main.cpp      ****     float x1_x2 = x1-x2;
 775              		.loc 11 115 21 view .LVU127
 776 0006 DF4D     		ldr	r5, .L144+36
 114:main.cpp      ****     float x1_x2 = x1-x2;
 777              		.loc 11 114 19 view .LVU128
 778 0008 94ED006A 		vldr.32	s12, [r4]
 116:main.cpp      ****     float x2_x3 = x2-x3;
 779              		.loc 11 116 21 view .LVU129
 780 000c DE4E     		ldr	r6, .L144+40
 117:main.cpp      ****     float x1_x3 = x1-x3;
 118:main.cpp      ****     float x_x2 = x-x2;
 119:main.cpp      **** 
 120:main.cpp      **** 
 121:main.cpp      ****     if (effect == 0) {
 781              		.loc 11 121 16 view .LVU130
 782 000e DF4B     		ldr	r3, .L144+44
 115:main.cpp      ****     float x2_x3 = x2-x3;
 783              		.loc 11 115 21 view .LVU131
 784 0010 D5ED007A 		vldr.32	s15, [r5]
 116:main.cpp      ****     float x2_x3 = x2-x3;
 785              		.loc 11 116 21 view .LVU132
 786 0014 96ED007A 		vldr.32	s14, [r6]
 122:main.cpp      **** 
 123:main.cpp      ****         if(x_x1 < sigma){
 787              		.loc 11 123 9 view .LVU133
 788 0018 DFEDDD6A 		vldr.32	s13, .L144+48
 121:main.cpp      **** 
 789              		.loc 11 121 5 view .LVU134
 790 001c 1B68     		ldr	r3, [r3]
 109:main.cpp      ****     float out = 0;
 791              		.loc 11 109 27 view .LVU135
 792 001e 2DED068B 		vpush.64	{d8, d9, d10}
 793              		.cfi_def_cfa_offset 56
 794              		.cfi_offset 80, -56
 795              		.cfi_offset 81, -52
 796              		.cfi_offset 82, -48
ARM GAS  C:\Users\galla\AppData\Local\Temp\ccOJAY1x.s 			page 35


 797              		.cfi_offset 83, -44
 798              		.cfi_offset 84, -40
 799              		.cfi_offset 85, -36
 114:main.cpp      ****     float x1_x2 = x1-x2;
 800              		.loc 11 114 11 view .LVU136
 801 0022 70EE468A 		vsub.f32	s17, s0, s12
 109:main.cpp      ****     float out = 0;
 802              		.loc 11 109 27 view .LVU137
 803 0026 B0EE408A 		vmov.f32	s16, s0
 804              	.LVL37:
 114:main.cpp      ****     float x1_x2 = x1-x2;
 805              		.loc 11 114 5 is_stmt 1 view .LVU138
 115:main.cpp      ****     float x2_x3 = x2-x3;
 806              		.loc 11 115 5 view .LVU139
 115:main.cpp      ****     float x2_x3 = x2-x3;
 807              		.loc 11 115 11 is_stmt 0 view .LVU140
 808 002a 36EE679A 		vsub.f32	s18, s12, s15
 809              	.LVL38:
 116:main.cpp      ****     float x1_x3 = x1-x3;
 810              		.loc 11 116 5 is_stmt 1 view .LVU141
 116:main.cpp      ****     float x1_x3 = x1-x3;
 811              		.loc 11 116 11 is_stmt 0 view .LVU142
 812 002e 77EEC79A 		vsub.f32	s19, s15, s14
 813              	.LVL39:
 117:main.cpp      ****     float x_x2 = x-x2;
 814              		.loc 11 117 5 is_stmt 1 view .LVU143
 117:main.cpp      ****     float x_x2 = x-x2;
 815              		.loc 11 117 11 is_stmt 0 view .LVU144
 816 0032 36EE47AA 		vsub.f32	s20, s12, s14
 817              	.LVL40:
 118:main.cpp      **** 
 818              		.loc 11 118 5 is_stmt 1 view .LVU145
 118:main.cpp      **** 
 819              		.loc 11 118 11 is_stmt 0 view .LVU146
 820 0036 70EE67AA 		vsub.f32	s21, s0, s15
 821              	.LVL41:
 121:main.cpp      **** 
 822              		.loc 11 121 5 is_stmt 1 view .LVU147
 823              		.loc 11 123 9 is_stmt 0 view .LVU148
 824 003a F4EEE68A 		vcmpe.f32	s17, s13
 121:main.cpp      **** 
 825              		.loc 11 121 5 view .LVU149
 826 003e 6BBB     		cbnz	r3, .L45
 827              		.loc 11 123 9 is_stmt 1 view .LVU150
 828 0040 F1EE10FA 		vmrs	APSR_nzcv, FPSCR
 829 0044 11D5     		bpl	.L116
 124:main.cpp      ****             return ts( (x + x1) / 2);
 830              		.loc 11 124 13 view .LVU151
 831              		.loc 11 124 27 is_stmt 0 view .LVU152
 832 0046 36EE008A 		vadd.f32	s16, s12, s0
 833              	.L136:
 125:main.cpp      ****         } else if(x1_x2 < sigma) {
 126:main.cpp      ****             return ts( (x1 + x2) / 2);
 834              		.loc 11 126 22 view .LVU153
 835 004a F6EE007A 		vmov.f32	s15, #5.0e-1
 836              	.LBB216:
 837              	.LBB217:
ARM GAS  C:\Users\galla\AppData\Local\Temp\ccOJAY1x.s 			page 36


  55:main.cpp      **** }
 838              		.loc 11 55 20 view .LVU154
 839 004e B7EE007A 		vmov.f32	s14, #1.0e+0
 840              	.LBE217:
 841              	.LBE216:
 842              		.loc 11 126 22 view .LVU155
 843 0052 28EE278A 		vmul.f32	s16, s16, s15
 844              	.LVL42:
 845              	.LBB221:
 846              	.LBI216:
  54:main.cpp      ****     return in / (1 + abs(in));
 847              		.loc 11 54 7 is_stmt 1 view .LVU156
 848              	.LBB220:
  55:main.cpp      **** }
 849              		.loc 11 55 5 view .LVU157
 850              	.LBB218:
 851              	.LBI218:
  75:c:\program files\daisytoolchain\arm-none-eabi\include\c++\10.2.1\bits\std_abs.h ****   { return __builtin_fabsf(__x); }
 852              		.loc 12 75 3 view .LVU158
 853              	.LBB219:
 854              		.loc 12 76 5 view .LVU159
 855              		.loc 12 76 31 is_stmt 0 view .LVU160
 856 0056 F0EEC87A 		vabs.f32	s15, s16
 857              	.LBE219:
 858              	.LBE218:
  55:main.cpp      **** }
 859              		.loc 11 55 20 view .LVU161
 860 005a 77EE877A 		vadd.f32	s15, s15, s14
  55:main.cpp      **** }
 861              		.loc 11 55 29 view .LVU162
 862 005e 88EE270A 		vdiv.f32	s0, s16, s15
 863              	.LVL43:
 864              	.L44:
  55:main.cpp      **** }
 865              		.loc 11 55 29 view .LVU163
 866              	.LBE220:
 867              	.LBE221:
 127:main.cpp      ****         } else if(x2_x3 < sigma) {
 128:main.cpp      ****             return ts( (x2 + x3) / 2);
 129:main.cpp      ****         } else if(x1_x3 < sigma) {
 130:main.cpp      ****             return ts( (x1 + x3) / 2);
 131:main.cpp      ****         } else if(x_x2 < sigma) {
 132:main.cpp      ****             return ts( (x + x2) / 2);
 133:main.cpp      ****         }
 134:main.cpp      **** 
 135:main.cpp      ****         f0 = ts3AD(x);
 136:main.cpp      ****         f1 = ts3AD(x1);
 137:main.cpp      ****         f2 = ts3AD(x2);
 138:main.cpp      ****         f3 = ts3AD(x3);
 139:main.cpp      ****     } else {
 140:main.cpp      **** 
 141:main.cpp      ****         if(x_x1 < sigma){
 142:main.cpp      ****             return bm( (x + x1) / 2);
 143:main.cpp      ****         } else if(x1_x2 < sigma) {
 144:main.cpp      ****             return bm( (x1 + x2) / 2);
 145:main.cpp      ****         } else if(x2_x3 < sigma) {
 146:main.cpp      ****             return bm( (x2 + x3) / 2);
ARM GAS  C:\Users\galla\AppData\Local\Temp\ccOJAY1x.s 			page 37


 147:main.cpp      ****         } else if(x1_x3 < sigma) {
 148:main.cpp      ****             return bm( (x1 + x3) / 2);
 149:main.cpp      ****         } else if(x_x2 < sigma) {
 150:main.cpp      ****             return bm( (x + x2) / 2);
 151:main.cpp      ****         }
 152:main.cpp      **** 
 153:main.cpp      ****         f0 = bm3AD(x);
 154:main.cpp      ****         f1 = bm3AD(x1);
 155:main.cpp      ****         f2 = bm3AD(x2);
 156:main.cpp      ****         f3 = bm3AD(x3);
 157:main.cpp      ****     }
 158:main.cpp      ****     
 159:main.cpp      ****     out = 1/x1_x2 * ( 2/x_x2*((f0-f1)/(x_x1) - (f1-f2)/(x1_x2)) - 2/x1_x3*((f1-f2)/(x1_x2) - (f2-f3
 160:main.cpp      **** 
 161:main.cpp      ****     x3 = x2;
 162:main.cpp      ****     x2 = x1;
 163:main.cpp      ****     x1 = x;
 164:main.cpp      **** 
 165:main.cpp      ****     return out;
 166:main.cpp      **** 
 167:main.cpp      **** }
 868              		.loc 11 167 1 view .LVU164
 869 0062 BDEC068B 		vldm	sp!, {d8-d10}
 870              		.cfi_remember_state
 871              		.cfi_restore 84
 872              		.cfi_restore 85
 873              		.cfi_restore 82
 874              		.cfi_restore 83
 875              		.cfi_restore 80
 876              		.cfi_restore 81
 877              		.cfi_def_cfa_offset 32
 878              	.LVL44:
 879              		.loc 11 167 1 view .LVU165
 880 0066 BDE8F883 		pop	{r3, r4, r5, r6, r7, r8, r9, pc}
 881              	.LVL45:
 882              	.L116:
 883              		.cfi_restore_state
 125:main.cpp      ****             return ts( (x1 + x2) / 2);
 884              		.loc 11 125 16 is_stmt 1 view .LVU166
 885 006a B4EEE69A 		vcmpe.f32	s18, s13
 886 006e F1EE10FA 		vmrs	APSR_nzcv, FPSCR
 887 0072 56D4     		bmi	.L140
 127:main.cpp      ****         } else if(x2_x3 < sigma) {
 888              		.loc 11 127 16 view .LVU167
 889 0074 F4EEE69A 		vcmpe.f32	s19, s13
 890 0078 F1EE10FA 		vmrs	APSR_nzcv, FPSCR
 891 007c 54D5     		bpl	.L118
 128:main.cpp      ****         } else if(x1_x3 < sigma) {
 892              		.loc 11 128 13 view .LVU168
 128:main.cpp      ****         } else if(x1_x3 < sigma) {
 893              		.loc 11 128 28 is_stmt 0 view .LVU169
 894 007e 77EE877A 		vadd.f32	s15, s15, s14
 128:main.cpp      ****         } else if(x1_x3 < sigma) {
 895              		.loc 11 128 22 view .LVU170
 896 0082 B6EE007A 		vmov.f32	s14, #5.0e-1
 897              	.LBB222:
 898              	.LBB223:
ARM GAS  C:\Users\galla\AppData\Local\Temp\ccOJAY1x.s 			page 38


  55:main.cpp      **** }
 899              		.loc 11 55 20 view .LVU171
 900 0086 F7EE006A 		vmov.f32	s13, #1.0e+0
 901              	.LBE223:
 902              	.LBE222:
 128:main.cpp      ****         } else if(x1_x3 < sigma) {
 903              		.loc 11 128 22 view .LVU172
 904 008a 67EE877A 		vmul.f32	s15, s15, s14
 905              	.LVL46:
 906              	.LBB227:
 907              	.LBI222:
  54:main.cpp      ****     return in / (1 + abs(in));
 908              		.loc 11 54 7 is_stmt 1 view .LVU173
 909              	.LBB226:
  55:main.cpp      **** }
 910              		.loc 11 55 5 view .LVU174
 911              	.LBB224:
 912              	.LBI224:
  75:c:\program files\daisytoolchain\arm-none-eabi\include\c++\10.2.1\bits\std_abs.h ****   { return __builtin_fabsf(__x); }
 913              		.loc 12 75 3 view .LVU175
 914              	.LBB225:
 915              		.loc 12 76 5 view .LVU176
 916              		.loc 12 76 31 is_stmt 0 view .LVU177
 917 008e B0EEE77A 		vabs.f32	s14, s15
 918              	.LBE225:
 919              	.LBE224:
  55:main.cpp      **** }
 920              		.loc 11 55 20 view .LVU178
 921 0092 37EE267A 		vadd.f32	s14, s14, s13
  55:main.cpp      **** }
 922              		.loc 11 55 29 view .LVU179
 923 0096 87EE870A 		vdiv.f32	s0, s15, s14
 924              	.LVL47:
  55:main.cpp      **** }
 925              		.loc 11 55 29 view .LVU180
 926              	.LBE226:
 927              	.LBE227:
 128:main.cpp      ****         } else if(x1_x3 < sigma) {
 928              		.loc 11 128 37 view .LVU181
 929 009a E2E7     		b	.L44
 930              	.LVL48:
 931              	.L45:
 141:main.cpp      ****             return bm( (x + x1) / 2);
 932              		.loc 11 141 9 is_stmt 1 view .LVU182
 933 009c F1EE10FA 		vmrs	APSR_nzcv, FPSCR
 934 00a0 1DD5     		bpl	.L121
 142:main.cpp      ****         } else if(x1_x2 < sigma) {
 935              		.loc 11 142 13 view .LVU183
 142:main.cpp      ****         } else if(x1_x2 < sigma) {
 936              		.loc 11 142 27 is_stmt 0 view .LVU184
 937 00a2 36EE008A 		vadd.f32	s16, s12, s0
 938              	.L138:
 148:main.cpp      ****         } else if(x_x2 < sigma) {
 939              		.loc 11 148 22 view .LVU185
 940 00a6 B6EE000A 		vmov.f32	s0, #5.0e-1
 941              	.LVL49:
 942              	.LBB228:
ARM GAS  C:\Users\galla\AppData\Local\Temp\ccOJAY1x.s 			page 39


 943              	.LBB229:
  98:main.cpp      ****         return 0.17;
 944              		.loc 11 98 5 view .LVU186
 945 00aa 9FEDAD5B 		vldr.64	d5, .L144
 946              	.LBE229:
 947              	.LBE228:
 148:main.cpp      ****         } else if(x_x2 < sigma) {
 948              		.loc 11 148 22 view .LVU187
 949 00ae 28EE000A 		vmul.f32	s0, s16, s0
 950              	.LVL50:
 951              	.LBB231:
 952              	.LBI228:
  97:main.cpp      ****     if (in > 0.17) {
 953              		.loc 11 97 7 is_stmt 1 view .LVU188
 954              	.LBB230:
  98:main.cpp      ****         return 0.17;
 955              		.loc 11 98 5 view .LVU189
  98:main.cpp      ****         return 0.17;
 956              		.loc 11 98 9 is_stmt 0 view .LVU190
 957 00b2 B7EEC07A 		vcvt.f64.f32	d7, s0
  98:main.cpp      ****         return 0.17;
 958              		.loc 11 98 5 view .LVU191
 959 00b6 B4EEC57B 		vcmpe.f64	d7, d5
 960 00ba F1EE10FA 		vmrs	APSR_nzcv, FPSCR
 961 00be 27DC     		bgt	.L96
 962              	.LVL51:
 963              	.L135:
  98:main.cpp      ****         return 0.17;
 964              		.loc 11 98 5 view .LVU192
 965              	.LBE230:
 966              	.LBE231:
 967              	.LBB232:
 968              	.LBB233:
 100:main.cpp      ****         return -0.17;
 969              		.loc 11 100 12 is_stmt 1 view .LVU193
 970              	.LBE233:
 971              	.LBE232:
 972              	.LBB237:
 973              	.LBB238:
 101:main.cpp      ****     } else {
 974              		.loc 11 101 17 is_stmt 0 view .LVU194
 975 00c0 DFEDB46A 		vldr.32	s13, .L144+52
 976              	.LBE238:
 977              	.LBE237:
 978              	.LBB241:
 979              	.LBB234:
 100:main.cpp      ****         return -0.17;
 980              		.loc 11 100 12 view .LVU195
 981 00c4 9FEDA85B 		vldr.64	d5, .L144+8
 982              	.LBE234:
 983              	.LBE241:
 984              		.loc 11 167 1 view .LVU196
 985 00c8 BDEC068B 		vldm	sp!, {d8-d10}
 986              		.cfi_remember_state
 987              		.cfi_restore 84
 988              		.cfi_restore 85
 989              		.cfi_restore 82
ARM GAS  C:\Users\galla\AppData\Local\Temp\ccOJAY1x.s 			page 40


 990              		.cfi_restore 83
 991              		.cfi_restore 80
 992              		.cfi_restore 81
 993              		.cfi_def_cfa_offset 32
 994              	.LVL52:
 995              	.LBB242:
 996              	.LBB239:
 101:main.cpp      ****     } else {
 997              		.loc 11 101 17 view .LVU197
 998 00cc B4EE457B 		vcmp.f64	d7, d5
 999 00d0 F1EE10FA 		vmrs	APSR_nzcv, FPSCR
 1000 00d4 48BF     		it	mi
 1001 00d6 B0EE660A 		vmovmi.f32	s0, s13
 1002              	.LBE239:
 1003              	.LBE242:
 1004              		.loc 11 167 1 view .LVU198
 1005 00da BDE8F883 		pop	{r3, r4, r5, r6, r7, r8, r9, pc}
 1006              	.LVL53:
 1007              	.L121:
 1008              		.cfi_restore_state
 143:main.cpp      ****             return bm( (x1 + x2) / 2);
 1009              		.loc 11 143 16 is_stmt 1 view .LVU199
 1010 00de B4EEE69A 		vcmpe.f32	s18, s13
 1011 00e2 F1EE10FA 		vmrs	APSR_nzcv, FPSCR
 1012 00e6 19D4     		bmi	.L141
 145:main.cpp      ****             return bm( (x2 + x3) / 2);
 1013              		.loc 11 145 16 view .LVU200
 1014 00e8 F4EEE69A 		vcmpe.f32	s19, s13
 1015 00ec F1EE10FA 		vmrs	APSR_nzcv, FPSCR
 1016 00f0 34D5     		bpl	.L123
 146:main.cpp      ****         } else if(x1_x3 < sigma) {
 1017              		.loc 11 146 13 view .LVU201
 146:main.cpp      ****         } else if(x1_x3 < sigma) {
 1018              		.loc 11 146 28 is_stmt 0 view .LVU202
 1019 00f2 77EE877A 		vadd.f32	s15, s15, s14
 146:main.cpp      ****         } else if(x1_x3 < sigma) {
 1020              		.loc 11 146 22 view .LVU203
 1021 00f6 B6EE000A 		vmov.f32	s0, #5.0e-1
 1022              	.LVL54:
 1023              	.LBB243:
 1024              	.LBB244:
  98:main.cpp      ****         return 0.17;
 1025              		.loc 11 98 5 view .LVU204
 1026 00fa 9FED996B 		vldr.64	d6, .L144
 1027              	.LBE244:
 1028              	.LBE243:
 146:main.cpp      ****         } else if(x1_x3 < sigma) {
 1029              		.loc 11 146 22 view .LVU205
 1030 00fe 27EE800A 		vmul.f32	s0, s15, s0
 1031              	.LVL55:
 1032              	.LBB246:
 1033              	.LBI243:
  97:main.cpp      ****     if (in > 0.17) {
 1034              		.loc 11 97 7 is_stmt 1 view .LVU206
 1035              	.LBB245:
  98:main.cpp      ****         return 0.17;
 1036              		.loc 11 98 5 view .LVU207
ARM GAS  C:\Users\galla\AppData\Local\Temp\ccOJAY1x.s 			page 41


  98:main.cpp      ****         return 0.17;
 1037              		.loc 11 98 9 is_stmt 0 view .LVU208
 1038 0102 B7EEC07A 		vcvt.f64.f32	d7, s0
  98:main.cpp      ****         return 0.17;
 1039              		.loc 11 98 5 view .LVU209
 1040 0106 B4EEC67B 		vcmpe.f64	d7, d6
 1041 010a F1EE10FA 		vmrs	APSR_nzcv, FPSCR
 1042 010e D7DD     		ble	.L135
 1043              	.LVL56:
 1044              	.L96:
  98:main.cpp      ****         return 0.17;
 1045              		.loc 11 98 5 view .LVU210
 1046              	.LBE245:
 1047              	.LBE246:
 1048              	.LBB247:
 1049              	.LBB240:
  99:main.cpp      ****     } else if (in < -0.17) {
 1050              		.loc 11 99 16 view .LVU211
 1051 0110 9FEDA10A 		vldr.32	s0, .L144+56
 1052              	.LBE240:
 1053              	.LBE247:
 1054              		.loc 11 167 1 view .LVU212
 1055 0114 BDEC068B 		vldm	sp!, {d8-d10}
 1056              		.cfi_remember_state
 1057              		.cfi_restore 84
 1058              		.cfi_restore 85
 1059              		.cfi_restore 82
 1060              		.cfi_restore 83
 1061              		.cfi_restore 80
 1062              		.cfi_restore 81
 1063              		.cfi_def_cfa_offset 32
 1064              	.LVL57:
 1065              		.loc 11 167 1 view .LVU213
 1066 0118 BDE8F883 		pop	{r3, r4, r5, r6, r7, r8, r9, pc}
 1067              	.LVL58:
 1068              	.L141:
 1069              		.cfi_restore_state
 144:main.cpp      ****         } else if(x2_x3 < sigma) {
 1070              		.loc 11 144 13 is_stmt 1 view .LVU214
 144:main.cpp      ****         } else if(x2_x3 < sigma) {
 1071              		.loc 11 144 28 is_stmt 0 view .LVU215
 1072 011c 36EE278A 		vadd.f32	s16, s12, s15
 1073 0120 C1E7     		b	.L138
 1074              	.L140:
 126:main.cpp      ****         } else if(x2_x3 < sigma) {
 1075              		.loc 11 126 13 is_stmt 1 view .LVU216
 126:main.cpp      ****         } else if(x2_x3 < sigma) {
 1076              		.loc 11 126 28 is_stmt 0 view .LVU217
 1077 0122 36EE278A 		vadd.f32	s16, s12, s15
 1078 0126 90E7     		b	.L136
 1079              	.L118:
 129:main.cpp      ****             return ts( (x1 + x3) / 2);
 1080              		.loc 11 129 16 is_stmt 1 view .LVU218
 1081 0128 B4EEE6AA 		vcmpe.f32	s20, s13
 1082 012c F1EE10FA 		vmrs	APSR_nzcv, FPSCR
 1083 0130 31D4     		bmi	.L142
 131:main.cpp      ****             return ts( (x + x2) / 2);
ARM GAS  C:\Users\galla\AppData\Local\Temp\ccOJAY1x.s 			page 42


 1084              		.loc 11 131 16 view .LVU219
 1085 0132 F4EEE6AA 		vcmpe.f32	s21, s13
 1086 0136 F1EE10FA 		vmrs	APSR_nzcv, FPSCR
 1087 013a 40F1BD80 		bpl	.L120
 132:main.cpp      ****         }
 1088              		.loc 11 132 13 view .LVU220
 132:main.cpp      ****         }
 1089              		.loc 11 132 27 is_stmt 0 view .LVU221
 1090 013e 77EE807A 		vadd.f32	s15, s15, s0
 132:main.cpp      ****         }
 1091              		.loc 11 132 22 view .LVU222
 1092 0142 B6EE008A 		vmov.f32	s16, #5.0e-1
 1093              	.LBB248:
 1094              	.LBB249:
  55:main.cpp      **** }
 1095              		.loc 11 55 20 view .LVU223
 1096 0146 F7EE006A 		vmov.f32	s13, #1.0e+0
 1097              	.LBE249:
 1098              	.LBE248:
 132:main.cpp      ****         }
 1099              		.loc 11 132 22 view .LVU224
 1100 014a 67EE887A 		vmul.f32	s15, s15, s16
 1101              	.LVL59:
 1102              	.LBB253:
 1103              	.LBI248:
  54:main.cpp      ****     return in / (1 + abs(in));
 1104              		.loc 11 54 7 is_stmt 1 view .LVU225
 1105              	.LBB252:
  55:main.cpp      **** }
 1106              		.loc 11 55 5 view .LVU226
 1107              	.LBB250:
 1108              	.LBI250:
  75:c:\program files\daisytoolchain\arm-none-eabi\include\c++\10.2.1\bits\std_abs.h ****   { return __builtin_fabsf(__x); }
 1109              		.loc 12 75 3 view .LVU227
 1110              	.LBB251:
 1111              		.loc 12 76 5 view .LVU228
 1112              		.loc 12 76 31 is_stmt 0 view .LVU229
 1113 014e B0EEE77A 		vabs.f32	s14, s15
 1114              	.LBE251:
 1115              	.LBE250:
  55:main.cpp      **** }
 1116              		.loc 11 55 20 view .LVU230
 1117 0152 37EE267A 		vadd.f32	s14, s14, s13
  55:main.cpp      **** }
 1118              		.loc 11 55 29 view .LVU231
 1119 0156 87EE870A 		vdiv.f32	s0, s15, s14
 1120              	.LVL60:
  55:main.cpp      **** }
 1121              		.loc 11 55 29 view .LVU232
 1122              	.LBE252:
 1123              	.LBE253:
 132:main.cpp      ****         }
 1124              		.loc 11 132 36 view .LVU233
 1125 015a 82E7     		b	.L44
 1126              	.LVL61:
 1127              	.L123:
 147:main.cpp      ****             return bm( (x1 + x3) / 2);
ARM GAS  C:\Users\galla\AppData\Local\Temp\ccOJAY1x.s 			page 43


 1128              		.loc 11 147 16 is_stmt 1 view .LVU234
 1129 015c B4EEE6AA 		vcmpe.f32	s20, s13
 1130 0160 F1EE10FA 		vmrs	APSR_nzcv, FPSCR
 1131 0164 14D4     		bmi	.L143
 149:main.cpp      ****             return bm( (x + x2) / 2);
 1132              		.loc 11 149 16 view .LVU235
 1133 0166 F4EEE6AA 		vcmpe.f32	s21, s13
 1134 016a F1EE10FA 		vmrs	APSR_nzcv, FPSCR
 1135 016e 21D5     		bpl	.L125
 150:main.cpp      ****         }
 1136              		.loc 11 150 13 view .LVU236
 150:main.cpp      ****         }
 1137              		.loc 11 150 27 is_stmt 0 view .LVU237
 1138 0170 77EE807A 		vadd.f32	s15, s15, s0
 150:main.cpp      ****         }
 1139              		.loc 11 150 22 view .LVU238
 1140 0174 B6EE007A 		vmov.f32	s14, #5.0e-1
 1141              	.LBB254:
 1142              	.LBB235:
  98:main.cpp      ****         return 0.17;
 1143              		.loc 11 98 5 view .LVU239
 1144 0178 9FED796B 		vldr.64	d6, .L144
 1145              	.LBE235:
 1146              	.LBE254:
 150:main.cpp      ****         }
 1147              		.loc 11 150 22 view .LVU240
 1148 017c 27EE870A 		vmul.f32	s0, s15, s14
 1149              	.LVL62:
 1150              	.LBB255:
 1151              	.LBI232:
  97:main.cpp      ****     if (in > 0.17) {
 1152              		.loc 11 97 7 is_stmt 1 view .LVU241
 1153              	.LBB236:
  98:main.cpp      ****         return 0.17;
 1154              		.loc 11 98 5 view .LVU242
  98:main.cpp      ****         return 0.17;
 1155              		.loc 11 98 9 is_stmt 0 view .LVU243
 1156 0180 B7EEC07A 		vcvt.f64.f32	d7, s0
  98:main.cpp      ****         return 0.17;
 1157              		.loc 11 98 5 view .LVU244
 1158 0184 B4EEC67B 		vcmpe.f64	d7, d6
 1159 0188 F1EE10FA 		vmrs	APSR_nzcv, FPSCR
 1160 018c 98DD     		ble	.L135
 1161 018e BFE7     		b	.L96
 1162              	.LVL63:
 1163              	.L143:
  98:main.cpp      ****         return 0.17;
 1164              		.loc 11 98 5 view .LVU245
 1165              	.LBE236:
 1166              	.LBE255:
 148:main.cpp      ****         } else if(x_x2 < sigma) {
 1167              		.loc 11 148 13 is_stmt 1 view .LVU246
 148:main.cpp      ****         } else if(x_x2 < sigma) {
 1168              		.loc 11 148 28 is_stmt 0 view .LVU247
 1169 0190 36EE078A 		vadd.f32	s16, s12, s14
 1170 0194 87E7     		b	.L138
 1171              	.L142:
ARM GAS  C:\Users\galla\AppData\Local\Temp\ccOJAY1x.s 			page 44


 130:main.cpp      ****         } else if(x_x2 < sigma) {
 1172              		.loc 11 130 13 is_stmt 1 view .LVU248
 130:main.cpp      ****         } else if(x_x2 < sigma) {
 1173              		.loc 11 130 28 is_stmt 0 view .LVU249
 1174 0196 36EE077A 		vadd.f32	s14, s12, s14
 130:main.cpp      ****         } else if(x_x2 < sigma) {
 1175              		.loc 11 130 22 view .LVU250
 1176 019a B6EE006A 		vmov.f32	s12, #5.0e-1
 1177              	.LBB256:
 1178              	.LBB257:
  55:main.cpp      **** }
 1179              		.loc 11 55 20 view .LVU251
 1180 019e F7EE006A 		vmov.f32	s13, #1.0e+0
 1181              	.LBE257:
 1182              	.LBE256:
 130:main.cpp      ****         } else if(x_x2 < sigma) {
 1183              		.loc 11 130 22 view .LVU252
 1184 01a2 27EE067A 		vmul.f32	s14, s14, s12
 1185              	.LVL64:
 1186              	.LBB261:
 1187              	.LBI256:
  54:main.cpp      ****     return in / (1 + abs(in));
 1188              		.loc 11 54 7 is_stmt 1 view .LVU253
 1189              	.LBB260:
  55:main.cpp      **** }
 1190              		.loc 11 55 5 view .LVU254
 1191              	.LBB258:
 1192              	.LBI258:
  75:c:\program files\daisytoolchain\arm-none-eabi\include\c++\10.2.1\bits\std_abs.h ****   { return __builtin_fabsf(__x); }
 1193              		.loc 12 75 3 view .LVU255
 1194              	.LBB259:
 1195              		.loc 12 76 5 view .LVU256
 1196              		.loc 12 76 31 is_stmt 0 view .LVU257
 1197 01a6 F0EEC77A 		vabs.f32	s15, s14
 1198              	.LBE259:
 1199              	.LBE258:
  55:main.cpp      **** }
 1200              		.loc 11 55 20 view .LVU258
 1201 01aa 77EEA67A 		vadd.f32	s15, s15, s13
  55:main.cpp      **** }
 1202              		.loc 11 55 29 view .LVU259
 1203 01ae 87EE270A 		vdiv.f32	s0, s14, s15
 1204              	.LVL65:
  55:main.cpp      **** }
 1205              		.loc 11 55 29 view .LVU260
 1206              	.LBE260:
 1207              	.LBE261:
 130:main.cpp      ****         } else if(x_x2 < sigma) {
 1208              		.loc 11 130 37 view .LVU261
 1209 01b2 56E7     		b	.L44
 1210              	.LVL66:
 1211              	.L125:
 153:main.cpp      ****         f1 = bm3AD(x1);
 1212              		.loc 11 153 9 is_stmt 1 view .LVU262
 1213              	.LBB262:
 1214              	.LBI262:
  58:main.cpp      ****     float out;
ARM GAS  C:\Users\galla\AppData\Local\Temp\ccOJAY1x.s 			page 45


 1215              		.loc 11 58 7 view .LVU263
 1216              	.LBB263:
  59:main.cpp      ****     float stage1;
 1217              		.loc 11 59 5 view .LVU264
  60:main.cpp      ****     // if (x >= 0.4) {
 1218              		.loc 11 60 5 view .LVU265
  69:main.cpp      ****         stage1 = 0.000002833*x*x*x;
 1219              		.loc 11 69 5 view .LVU266
  69:main.cpp      ****         stage1 = 0.000002833*x*x*x;
 1220              		.loc 11 69 9 is_stmt 0 view .LVU267
 1221 01b4 B7EEC05A 		vcvt.f64.f32	d5, s0
  71:main.cpp      ****         stage1 = -1*0.000002833*x*x*x;
 1222              		.loc 11 71 12 is_stmt 1 view .LVU268
  74:main.cpp      ****     }
 1223              		.loc 11 74 9 view .LVU269
  77:main.cpp      **** 
 1224              		.loc 11 77 5 view .LVU270
  87:main.cpp      ****         out = 0.000002833*x*x*x;
 1225              		.loc 11 87 5 view .LVU271
 1226 01b8 9FED694B 		vldr.64	d4, .L144
 1227 01bc B4EEC45B 		vcmpe.f64	d5, d4
 1228 01c0 F1EE10FA 		vmrs	APSR_nzcv, FPSCR
 1229 01c4 C0F20481 		blt	.L126
  88:main.cpp      ****     } else if(x<= -0.17) {
 1230              		.loc 11 88 9 view .LVU272
  88:main.cpp      ****     } else if(x<= -0.17) {
 1231              		.loc 11 88 26 is_stmt 0 view .LVU273
 1232 01c8 9FED694B 		vldr.64	d4, .L144+16
 1233 01cc 25EE044B 		vmul.f64	d4, d5, d4
  88:main.cpp      ****     } else if(x<= -0.17) {
 1234              		.loc 11 88 28 view .LVU274
 1235 01d0 24EE054B 		vmul.f64	d4, d4, d5
  88:main.cpp      ****     } else if(x<= -0.17) {
 1236              		.loc 11 88 30 view .LVU275
 1237 01d4 24EE055B 		vmul.f64	d5, d4, d5
  88:main.cpp      ****     } else if(x<= -0.17) {
 1238              		.loc 11 88 13 view .LVU276
 1239 01d8 F7EEC54B 		vcvt.f32.f64	s9, d5
 1240              	.LVL67:
 1241              	.L70:
  94:main.cpp      **** }
 1242              		.loc 11 94 5 is_stmt 1 view .LVU277
  94:main.cpp      **** }
 1243              		.loc 11 94 5 is_stmt 0 view .LVU278
 1244              	.LBE263:
 1245              	.LBE262:
 1246              	.LBB266:
 1247              	.LBB267:
  69:main.cpp      ****         stage1 = 0.000002833*x*x*x;
 1248              		.loc 11 69 9 view .LVU279
 1249 01dc B7EEC65A 		vcvt.f64.f32	d5, s12
 1250              	.LBE267:
 1251              	.LBE266:
 153:main.cpp      ****         f1 = bm3AD(x1);
 1252              		.loc 11 153 12 view .LVU280
 1253 01e0 6E4B     		ldr	r3, .L144+60
 1254              	.LBB272:
ARM GAS  C:\Users\galla\AppData\Local\Temp\ccOJAY1x.s 			page 46


 1255              	.LBB268:
  87:main.cpp      ****         out = 0.000002833*x*x*x;
 1256              		.loc 11 87 5 view .LVU281
 1257 01e2 9FED5F3B 		vldr.64	d3, .L144
 1258              	.LBE268:
 1259              	.LBE272:
 153:main.cpp      ****         f1 = bm3AD(x1);
 1260              		.loc 11 153 12 view .LVU282
 1261 01e6 C3ED004A 		vstr.32	s9, [r3]
 154:main.cpp      ****         f2 = bm3AD(x2);
 1262              		.loc 11 154 9 is_stmt 1 view .LVU283
 1263              	.LVL68:
 1264              	.LBB273:
 1265              	.LBI266:
  58:main.cpp      ****     float out;
 1266              		.loc 11 58 7 view .LVU284
 1267              	.LBB269:
  59:main.cpp      ****     float stage1;
 1268              		.loc 11 59 5 view .LVU285
  60:main.cpp      ****     // if (x >= 0.4) {
 1269              		.loc 11 60 5 view .LVU286
  69:main.cpp      ****         stage1 = 0.000002833*x*x*x;
 1270              		.loc 11 69 5 view .LVU287
  71:main.cpp      ****         stage1 = -1*0.000002833*x*x*x;
 1271              		.loc 11 71 12 view .LVU288
  74:main.cpp      ****     }
 1272              		.loc 11 74 9 view .LVU289
  77:main.cpp      **** 
 1273              		.loc 11 77 5 view .LVU290
  87:main.cpp      ****         out = 0.000002833*x*x*x;
 1274              		.loc 11 87 5 view .LVU291
 1275 01ea B4EEC35B 		vcmpe.f64	d5, d3
 1276 01ee F1EE10FA 		vmrs	APSR_nzcv, FPSCR
 1277 01f2 C0F2DB80 		blt	.L128
  88:main.cpp      ****     } else if(x<= -0.17) {
 1278              		.loc 11 88 9 view .LVU292
  88:main.cpp      ****     } else if(x<= -0.17) {
 1279              		.loc 11 88 26 is_stmt 0 view .LVU293
 1280 01f6 9FED5E3B 		vldr.64	d3, .L144+16
 1281 01fa 25EE033B 		vmul.f64	d3, d5, d3
  88:main.cpp      ****     } else if(x<= -0.17) {
 1282              		.loc 11 88 28 view .LVU294
 1283 01fe 23EE053B 		vmul.f64	d3, d3, d5
  88:main.cpp      ****     } else if(x<= -0.17) {
 1284              		.loc 11 88 30 view .LVU295
 1285 0202 23EE055B 		vmul.f64	d5, d3, d5
  88:main.cpp      ****     } else if(x<= -0.17) {
 1286              		.loc 11 88 13 view .LVU296
 1287 0206 B7EEC54B 		vcvt.f32.f64	s8, d5
 1288              	.LVL69:
 1289              	.L75:
  94:main.cpp      **** }
 1290              		.loc 11 94 5 is_stmt 1 view .LVU297
  94:main.cpp      **** }
 1291              		.loc 11 94 5 is_stmt 0 view .LVU298
 1292              	.LBE269:
 1293              	.LBE273:
ARM GAS  C:\Users\galla\AppData\Local\Temp\ccOJAY1x.s 			page 47


 1294              	.LBB274:
 1295              	.LBB275:
  69:main.cpp      ****         stage1 = 0.000002833*x*x*x;
 1296              		.loc 11 69 9 view .LVU299
 1297 020a B7EEE75A 		vcvt.f64.f32	d5, s15
 1298              	.LBE275:
 1299              	.LBE274:
 154:main.cpp      ****         f2 = bm3AD(x2);
 1300              		.loc 11 154 12 view .LVU300
 1301 020e 644B     		ldr	r3, .L144+64
 1302              	.LBB280:
 1303              	.LBB276:
  87:main.cpp      ****         out = 0.000002833*x*x*x;
 1304              		.loc 11 87 5 view .LVU301
 1305 0210 9FED533B 		vldr.64	d3, .L144
 1306              	.LBE276:
 1307              	.LBE280:
 154:main.cpp      ****         f2 = bm3AD(x2);
 1308              		.loc 11 154 12 view .LVU302
 1309 0214 83ED004A 		vstr.32	s8, [r3]
 155:main.cpp      ****         f3 = bm3AD(x3);
 1310              		.loc 11 155 9 is_stmt 1 view .LVU303
 1311              	.LVL70:
 1312              	.LBB281:
 1313              	.LBI274:
  58:main.cpp      ****     float out;
 1314              		.loc 11 58 7 view .LVU304
 1315              	.LBB277:
  59:main.cpp      ****     float stage1;
 1316              		.loc 11 59 5 view .LVU305
  60:main.cpp      ****     // if (x >= 0.4) {
 1317              		.loc 11 60 5 view .LVU306
  69:main.cpp      ****         stage1 = 0.000002833*x*x*x;
 1318              		.loc 11 69 5 view .LVU307
  71:main.cpp      ****         stage1 = -1*0.000002833*x*x*x;
 1319              		.loc 11 71 12 view .LVU308
  74:main.cpp      ****     }
 1320              		.loc 11 74 9 view .LVU309
  77:main.cpp      **** 
 1321              		.loc 11 77 5 view .LVU310
  87:main.cpp      ****         out = 0.000002833*x*x*x;
 1322              		.loc 11 87 5 view .LVU311
 1323 0218 B4EEC35B 		vcmpe.f64	d5, d3
 1324 021c F1EE10FA 		vmrs	APSR_nzcv, FPSCR
 1325 0220 C0F28980 		blt	.L130
  88:main.cpp      ****     } else if(x<= -0.17) {
 1326              		.loc 11 88 9 view .LVU312
  88:main.cpp      ****     } else if(x<= -0.17) {
 1327              		.loc 11 88 26 is_stmt 0 view .LVU313
 1328 0224 9FED523B 		vldr.64	d3, .L144+16
 1329 0228 25EE033B 		vmul.f64	d3, d5, d3
  88:main.cpp      ****     } else if(x<= -0.17) {
 1330              		.loc 11 88 28 view .LVU314
 1331 022c 23EE053B 		vmul.f64	d3, d3, d5
  88:main.cpp      ****     } else if(x<= -0.17) {
 1332              		.loc 11 88 30 view .LVU315
 1333 0230 23EE055B 		vmul.f64	d5, d3, d5
ARM GAS  C:\Users\galla\AppData\Local\Temp\ccOJAY1x.s 			page 48


  88:main.cpp      ****     } else if(x<= -0.17) {
 1334              		.loc 11 88 13 view .LVU316
 1335 0234 F7EEC56B 		vcvt.f32.f64	s13, d5
 1336              	.LVL71:
 1337              	.L80:
  94:main.cpp      **** }
 1338              		.loc 11 94 5 is_stmt 1 view .LVU317
  94:main.cpp      **** }
 1339              		.loc 11 94 5 is_stmt 0 view .LVU318
 1340              	.LBE277:
 1341              	.LBE281:
 1342              	.LBB282:
 1343              	.LBB283:
  69:main.cpp      ****         stage1 = 0.000002833*x*x*x;
 1344              		.loc 11 69 9 view .LVU319
 1345 0238 B7EEC75A 		vcvt.f64.f32	d5, s14
 1346              	.LBE283:
 1347              	.LBE282:
 155:main.cpp      ****         f3 = bm3AD(x3);
 1348              		.loc 11 155 12 view .LVU320
 1349 023c 594B     		ldr	r3, .L144+68
 1350              	.LBB288:
 1351              	.LBB284:
  87:main.cpp      ****         out = 0.000002833*x*x*x;
 1352              		.loc 11 87 5 view .LVU321
 1353 023e 9FED483B 		vldr.64	d3, .L144
 1354              	.LBE284:
 1355              	.LBE288:
 155:main.cpp      ****         f3 = bm3AD(x3);
 1356              		.loc 11 155 12 view .LVU322
 1357 0242 C3ED006A 		vstr.32	s13, [r3]
 156:main.cpp      ****     }
 1358              		.loc 11 156 9 is_stmt 1 view .LVU323
 1359              	.LVL72:
 1360              	.LBB289:
 1361              	.LBI282:
  58:main.cpp      ****     float out;
 1362              		.loc 11 58 7 view .LVU324
 1363              	.LBB285:
  59:main.cpp      ****     float stage1;
 1364              		.loc 11 59 5 view .LVU325
  60:main.cpp      ****     // if (x >= 0.4) {
 1365              		.loc 11 60 5 view .LVU326
  69:main.cpp      ****         stage1 = 0.000002833*x*x*x;
 1366              		.loc 11 69 5 view .LVU327
  71:main.cpp      ****         stage1 = -1*0.000002833*x*x*x;
 1367              		.loc 11 71 12 view .LVU328
  74:main.cpp      ****     }
 1368              		.loc 11 74 9 view .LVU329
  77:main.cpp      **** 
 1369              		.loc 11 77 5 view .LVU330
  87:main.cpp      ****         out = 0.000002833*x*x*x;
 1370              		.loc 11 87 5 view .LVU331
 1371 0246 B4EEC35B 		vcmpe.f64	d5, d3
 1372 024a F1EE10FA 		vmrs	APSR_nzcv, FPSCR
 1373 024e 60DB     		blt	.L132
  88:main.cpp      ****     } else if(x<= -0.17) {
ARM GAS  C:\Users\galla\AppData\Local\Temp\ccOJAY1x.s 			page 49


 1374              		.loc 11 88 9 view .LVU332
  88:main.cpp      ****     } else if(x<= -0.17) {
 1375              		.loc 11 88 26 is_stmt 0 view .LVU333
 1376 0250 9FED473B 		vldr.64	d3, .L144+16
 1377 0254 25EE033B 		vmul.f64	d3, d5, d3
  88:main.cpp      ****     } else if(x<= -0.17) {
 1378              		.loc 11 88 28 view .LVU334
 1379 0258 23EE053B 		vmul.f64	d3, d3, d5
  88:main.cpp      ****     } else if(x<= -0.17) {
 1380              		.loc 11 88 30 view .LVU335
 1381 025c 23EE055B 		vmul.f64	d5, d3, d5
  88:main.cpp      ****     } else if(x<= -0.17) {
 1382              		.loc 11 88 13 view .LVU336
 1383 0260 B7EEC50B 		vcvt.f32.f64	s0, d5
 1384              	.LVL73:
 1385              	.L85:
  94:main.cpp      **** }
 1386              		.loc 11 94 5 is_stmt 1 view .LVU337
  94:main.cpp      **** }
 1387              		.loc 11 94 5 is_stmt 0 view .LVU338
 1388              	.LBE285:
 1389              	.LBE289:
 156:main.cpp      ****     }
 1390              		.loc 11 156 12 view .LVU339
 1391 0264 504B     		ldr	r3, .L144+72
 1392 0266 83ED000A 		vstr.32	s0, [r3]
 1393              	.L57:
 159:main.cpp      **** 
 1394              		.loc 11 159 5 is_stmt 1 view .LVU340
 159:main.cpp      **** 
 1395              		.loc 11 159 51 is_stmt 0 view .LVU341
 1396 026a 34EE667A 		vsub.f32	s14, s8, s13
 161:main.cpp      ****     x2 = x1;
 1397              		.loc 11 161 8 view .LVU342
 1398 026e C6ED007A 		vstr.32	s15, [r6]
 159:main.cpp      **** 
 1399              		.loc 11 159 97 view .LVU343
 1400 0272 36EEC05A 		vsub.f32	s10, s13, s0
 162:main.cpp      ****     x1 = x;
 1401              		.loc 11 162 8 view .LVU344
 1402 0276 85ED006A 		vstr.32	s12, [r5]
 159:main.cpp      **** 
 1403              		.loc 11 159 24 view .LVU345
 1404 027a F0EE003A 		vmov.f32	s7, #2.0e+0
 163:main.cpp      **** 
 1405              		.loc 11 163 8 view .LVU346
 1406 027e 84ED008A 		vstr.32	s16, [r4]
 159:main.cpp      **** 
 1407              		.loc 11 159 55 view .LVU347
 1408 0282 C7EE095A 		vdiv.f32	s11, s14, s18
 159:main.cpp      **** 
 1409              		.loc 11 159 101 view .LVU348
 1410 0286 C5EE296A 		vdiv.f32	s13, s10, s19
 159:main.cpp      **** 
 1411              		.loc 11 159 34 view .LVU349
 1412 028a 74EEC44A 		vsub.f32	s9, s9, s8
 159:main.cpp      **** 
ARM GAS  C:\Users\galla\AppData\Local\Temp\ccOJAY1x.s 			page 50


 1413              		.loc 11 159 68 view .LVU350
 1414 028e 83EE8A0A 		vdiv.f32	s0, s7, s20
 159:main.cpp      **** 
 1415              		.loc 11 159 38 view .LVU351
 1416 0292 84EEA87A 		vdiv.f32	s14, s9, s17
 159:main.cpp      **** 
 1417              		.loc 11 159 24 view .LVU352
 1418 0296 83EEAA5A 		vdiv.f32	s10, s7, s21
 159:main.cpp      **** 
 1419              		.loc 11 159 12 view .LVU353
 1420 029a B7EE004A 		vmov.f32	s8, #1.0e+0
 159:main.cpp      **** 
 1421              		.loc 11 159 92 view .LVU354
 1422 029e 75EEE66A 		vsub.f32	s13, s11, s13
 159:main.cpp      **** 
 1423              		.loc 11 159 12 view .LVU355
 1424 02a2 C4EE097A 		vdiv.f32	s15, s8, s18
 159:main.cpp      **** 
 1425              		.loc 11 159 46 view .LVU356
 1426 02a6 37EE657A 		vsub.f32	s14, s14, s11
 159:main.cpp      **** 
 1427              		.loc 11 159 65 view .LVU357
 1428 02aa 20EE660A 		vnmul.f32	s0, s0, s13
 1429 02ae A5EE070A 		vfma.f32	s0, s10, s14
 159:main.cpp      **** 
 1430              		.loc 11 159 9 view .LVU358
 1431 02b2 27EE800A 		vmul.f32	s0, s15, s0
 1432              	.LVL74:
 161:main.cpp      ****     x2 = x1;
 1433              		.loc 11 161 5 is_stmt 1 view .LVU359
 162:main.cpp      ****     x1 = x;
 1434              		.loc 11 162 5 view .LVU360
 163:main.cpp      **** 
 1435              		.loc 11 163 5 view .LVU361
 165:main.cpp      **** 
 1436              		.loc 11 165 5 view .LVU362
 165:main.cpp      **** 
 1437              		.loc 11 165 12 is_stmt 0 view .LVU363
 1438 02b6 D4E6     		b	.L44
 1439              	.LVL75:
 1440              	.L120:
 135:main.cpp      ****         f1 = ts3AD(x1);
 1441              		.loc 11 135 9 is_stmt 1 view .LVU364
 135:main.cpp      ****         f1 = ts3AD(x1);
 1442              		.loc 11 135 19 is_stmt 0 view .LVU365
 1443 02b8 FFF7FEFF 		bl	_Z5ts3ADf
 1444              	.LVL76:
 135:main.cpp      ****         f1 = ts3AD(x1);
 1445              		.loc 11 135 19 view .LVU366
 1446 02bc F0EE407A 		vmov.f32	s15, s0
 135:main.cpp      ****         f1 = ts3AD(x1);
 1447              		.loc 11 135 12 view .LVU367
 1448 02c0 DFF8D890 		ldr	r9, .L144+60
 136:main.cpp      ****         f2 = ts3AD(x2);
 1449              		.loc 11 136 19 view .LVU368
 1450 02c4 94ED000A 		vldr.32	s0, [r4]
 135:main.cpp      ****         f1 = ts3AD(x1);
ARM GAS  C:\Users\galla\AppData\Local\Temp\ccOJAY1x.s 			page 51


 1451              		.loc 11 135 12 view .LVU369
 1452 02c8 C9ED007A 		vstr.32	s15, [r9]
 136:main.cpp      ****         f2 = ts3AD(x2);
 1453              		.loc 11 136 9 is_stmt 1 view .LVU370
 136:main.cpp      ****         f2 = ts3AD(x2);
 1454              		.loc 11 136 19 is_stmt 0 view .LVU371
 1455 02cc FFF7FEFF 		bl	_Z5ts3ADf
 1456              	.LVL77:
 1457 02d0 F0EE407A 		vmov.f32	s15, s0
 136:main.cpp      ****         f2 = ts3AD(x2);
 1458              		.loc 11 136 12 view .LVU372
 1459 02d4 DFF8C880 		ldr	r8, .L144+64
 137:main.cpp      ****         f3 = ts3AD(x3);
 1460              		.loc 11 137 19 view .LVU373
 1461 02d8 95ED000A 		vldr.32	s0, [r5]
 137:main.cpp      ****         f3 = ts3AD(x3);
 1462              		.loc 11 137 12 view .LVU374
 1463 02dc 314F     		ldr	r7, .L144+68
 136:main.cpp      ****         f2 = ts3AD(x2);
 1464              		.loc 11 136 12 view .LVU375
 1465 02de C8ED007A 		vstr.32	s15, [r8]
 137:main.cpp      ****         f3 = ts3AD(x3);
 1466              		.loc 11 137 9 is_stmt 1 view .LVU376
 137:main.cpp      ****         f3 = ts3AD(x3);
 1467              		.loc 11 137 19 is_stmt 0 view .LVU377
 1468 02e2 FFF7FEFF 		bl	_Z5ts3ADf
 1469              	.LVL78:
 1470 02e6 F0EE407A 		vmov.f32	s15, s0
 138:main.cpp      ****     } else {
 1471              		.loc 11 138 19 view .LVU378
 1472 02ea 96ED000A 		vldr.32	s0, [r6]
 137:main.cpp      ****         f3 = ts3AD(x3);
 1473              		.loc 11 137 12 view .LVU379
 1474 02ee C7ED007A 		vstr.32	s15, [r7]
 138:main.cpp      ****     } else {
 1475              		.loc 11 138 9 is_stmt 1 view .LVU380
 138:main.cpp      ****     } else {
 1476              		.loc 11 138 19 is_stmt 0 view .LVU381
 1477 02f2 FFF7FEFF 		bl	_Z5ts3ADf
 1478              	.LVL79:
 138:main.cpp      ****     } else {
 1479              		.loc 11 138 12 view .LVU382
 1480 02f6 2C4B     		ldr	r3, .L144+72
 159:main.cpp      **** 
 1481              		.loc 11 159 34 view .LVU383
 1482 02f8 D9ED004A 		vldr.32	s9, [r9]
 1483 02fc 98ED004A 		vldr.32	s8, [r8]
 159:main.cpp      **** 
 1484              		.loc 11 159 51 view .LVU384
 1485 0300 D7ED006A 		vldr.32	s13, [r7]
 161:main.cpp      ****     x2 = x1;
 1486              		.loc 11 161 8 view .LVU385
 1487 0304 D5ED007A 		vldr.32	s15, [r5]
 162:main.cpp      ****     x1 = x;
 1488              		.loc 11 162 8 view .LVU386
 1489 0308 94ED006A 		vldr.32	s12, [r4]
 138:main.cpp      ****     } else {
ARM GAS  C:\Users\galla\AppData\Local\Temp\ccOJAY1x.s 			page 52


 1490              		.loc 11 138 12 view .LVU387
 1491 030c 83ED000A 		vstr.32	s0, [r3]
 1492 0310 ABE7     		b	.L57
 1493              	.LVL80:
 1494              	.L132:
 1495              	.LBB290:
 1496              	.LBB286:
  89:main.cpp      ****         out = -1*0.000002833*x*x*x; // germanium hard clipping approximation / test later
 1497              		.loc 11 89 12 is_stmt 1 view .LVU388
 1498 0312 9FED153B 		vldr.64	d3, .L144+8
 1499 0316 B4EEC35B 		vcmpe.f64	d5, d3
 1500 031a F1EE10FA 		vmrs	APSR_nzcv, FPSCR
 1501 031e 69D8     		bhi	.L133
  90:main.cpp      ****     } else {
 1502              		.loc 11 90 9 view .LVU389
  90:main.cpp      ****     } else {
 1503              		.loc 11 90 29 is_stmt 0 view .LVU390
 1504 0320 9FED153B 		vldr.64	d3, .L144+24
 1505 0324 25EE033B 		vmul.f64	d3, d5, d3
  90:main.cpp      ****     } else {
 1506              		.loc 11 90 31 view .LVU391
 1507 0328 23EE053B 		vmul.f64	d3, d3, d5
  90:main.cpp      ****     } else {
 1508              		.loc 11 90 33 view .LVU392
 1509 032c 23EE055B 		vmul.f64	d5, d3, d5
  90:main.cpp      ****     } else {
 1510              		.loc 11 90 13 view .LVU393
 1511 0330 B7EEC50B 		vcvt.f32.f64	s0, d5
 1512              	.LVL81:
  90:main.cpp      ****     } else {
 1513              		.loc 11 90 13 view .LVU394
 1514 0334 96E7     		b	.L85
 1515              	.LVL82:
 1516              	.L130:
  90:main.cpp      ****     } else {
 1517              		.loc 11 90 13 view .LVU395
 1518              	.LBE286:
 1519              	.LBE290:
 1520              	.LBB291:
 1521              	.LBB278:
  89:main.cpp      ****         out = -1*0.000002833*x*x*x; // germanium hard clipping approximation / test later
 1522              		.loc 11 89 12 is_stmt 1 view .LVU396
 1523 0336 9FED0C3B 		vldr.64	d3, .L144+8
 1524 033a B4EEC35B 		vcmpe.f64	d5, d3
 1525 033e F1EE10FA 		vmrs	APSR_nzcv, FPSCR
 1526 0342 71D8     		bhi	.L131
  90:main.cpp      ****     } else {
 1527              		.loc 11 90 9 view .LVU397
  90:main.cpp      ****     } else {
 1528              		.loc 11 90 29 is_stmt 0 view .LVU398
 1529 0344 9FED0C3B 		vldr.64	d3, .L144+24
 1530 0348 25EE033B 		vmul.f64	d3, d5, d3
  90:main.cpp      ****     } else {
 1531              		.loc 11 90 31 view .LVU399
 1532 034c 23EE053B 		vmul.f64	d3, d3, d5
  90:main.cpp      ****     } else {
 1533              		.loc 11 90 33 view .LVU400
ARM GAS  C:\Users\galla\AppData\Local\Temp\ccOJAY1x.s 			page 53


 1534 0350 23EE055B 		vmul.f64	d5, d3, d5
  90:main.cpp      ****     } else {
 1535              		.loc 11 90 13 view .LVU401
 1536 0354 F7EEC56B 		vcvt.f32.f64	s13, d5
 1537              	.LVL83:
  90:main.cpp      ****     } else {
 1538              		.loc 11 90 13 view .LVU402
 1539 0358 6EE7     		b	.L80
 1540              	.L145:
 1541 035a 00BFAFF3 		.align	3
 1541      0080
 1542              	.L144:
 1543 0360 C3F5285C 		.word	1546188227
 1544 0364 8FC2C53F 		.word	1069925007
 1545 0368 C3F5285C 		.word	1546188227
 1546 036c 8FC2C5BF 		.word	-1077558641
 1547 0370 94B98238 		.word	948091284
 1548 0374 D2C3C73E 		.word	1053279186
 1549 0378 94B98238 		.word	948091284
 1550 037c D2C3C7BE 		.word	-1094204462
 1551 0380 00000000 		.word	.LANCHOR1
 1552 0384 00000000 		.word	.LANCHOR2
 1553 0388 00000000 		.word	.LANCHOR3
 1554 038c 00000000 		.word	.LANCHOR4
 1555 0390 ACC52737 		.word	925353388
 1556 0394 7B142EBE 		.word	-1104276357
 1557 0398 7B142E3E 		.word	1043207291
 1558 039c 00000000 		.word	.LANCHOR5
 1559 03a0 00000000 		.word	.LANCHOR6
 1560 03a4 00000000 		.word	.LANCHOR7
 1561 03a8 00000000 		.word	.LANCHOR8
 1562              	.LVL84:
 1563              	.L128:
  90:main.cpp      ****     } else {
 1564              		.loc 11 90 13 view .LVU403
 1565              	.LBE278:
 1566              	.LBE291:
 1567              	.LBB292:
 1568              	.LBB270:
  89:main.cpp      ****         out = -1*0.000002833*x*x*x; // germanium hard clipping approximation / test later
 1569              		.loc 11 89 12 is_stmt 1 view .LVU404
 1570 03ac 9FED2C3B 		vldr.64	d3, .L146
 1571 03b0 B4EEC35B 		vcmpe.f64	d5, d3
 1572 03b4 F1EE10FA 		vmrs	APSR_nzcv, FPSCR
 1573 03b8 43D8     		bhi	.L129
  90:main.cpp      ****     } else {
 1574              		.loc 11 90 9 view .LVU405
  90:main.cpp      ****     } else {
 1575              		.loc 11 90 29 is_stmt 0 view .LVU406
 1576 03ba 9FED2B3B 		vldr.64	d3, .L146+8
 1577 03be 25EE033B 		vmul.f64	d3, d5, d3
  90:main.cpp      ****     } else {
 1578              		.loc 11 90 31 view .LVU407
 1579 03c2 23EE053B 		vmul.f64	d3, d3, d5
  90:main.cpp      ****     } else {
 1580              		.loc 11 90 33 view .LVU408
 1581 03c6 23EE055B 		vmul.f64	d5, d3, d5
ARM GAS  C:\Users\galla\AppData\Local\Temp\ccOJAY1x.s 			page 54


  90:main.cpp      ****     } else {
 1582              		.loc 11 90 13 view .LVU409
 1583 03ca B7EEC54B 		vcvt.f32.f64	s8, d5
 1584              	.LVL85:
  90:main.cpp      ****     } else {
 1585              		.loc 11 90 13 view .LVU410
 1586 03ce 1CE7     		b	.L75
 1587              	.LVL86:
 1588              	.L126:
  90:main.cpp      ****     } else {
 1589              		.loc 11 90 13 view .LVU411
 1590              	.LBE270:
 1591              	.LBE292:
 1592              	.LBB293:
 1593              	.LBB264:
  89:main.cpp      ****         out = -1*0.000002833*x*x*x; // germanium hard clipping approximation / test later
 1594              		.loc 11 89 12 is_stmt 1 view .LVU412
 1595 03d0 9FED234B 		vldr.64	d4, .L146
 1596 03d4 B4EEC45B 		vcmpe.f64	d5, d4
 1597 03d8 F1EE10FA 		vmrs	APSR_nzcv, FPSCR
 1598 03dc 17D8     		bhi	.L127
  90:main.cpp      ****     } else {
 1599              		.loc 11 90 9 view .LVU413
  90:main.cpp      ****     } else {
 1600              		.loc 11 90 29 is_stmt 0 view .LVU414
 1601 03de 9FED224B 		vldr.64	d4, .L146+8
 1602 03e2 25EE044B 		vmul.f64	d4, d5, d4
  90:main.cpp      ****     } else {
 1603              		.loc 11 90 31 view .LVU415
 1604 03e6 24EE054B 		vmul.f64	d4, d4, d5
  90:main.cpp      ****     } else {
 1605              		.loc 11 90 33 view .LVU416
 1606 03ea 24EE055B 		vmul.f64	d5, d4, d5
  90:main.cpp      ****     } else {
 1607              		.loc 11 90 13 view .LVU417
 1608 03ee F7EEC54B 		vcvt.f32.f64	s9, d5
 1609              	.LVL87:
  90:main.cpp      ****     } else {
 1610              		.loc 11 90 13 view .LVU418
 1611 03f2 F3E6     		b	.L70
 1612              	.LVL88:
 1613              	.L133:
  90:main.cpp      ****     } else {
 1614              		.loc 11 90 13 view .LVU419
 1615              	.LBE264:
 1616              	.LBE293:
 1617              	.LBB294:
 1618              	.LBB287:
  92:main.cpp      ****     }
 1619              		.loc 11 92 9 is_stmt 1 view .LVU420
  92:main.cpp      ****     }
 1620              		.loc 11 92 23 is_stmt 0 view .LVU421
 1621 03f4 9FED1E3B 		vldr.64	d3, .L146+16
 1622 03f8 25EE033B 		vmul.f64	d3, d5, d3
  92:main.cpp      ****     }
 1623              		.loc 11 92 25 view .LVU422
 1624 03fc 23EE053B 		vmul.f64	d3, d3, d5
ARM GAS  C:\Users\galla\AppData\Local\Temp\ccOJAY1x.s 			page 55


  92:main.cpp      ****     }
 1625              		.loc 11 92 27 view .LVU423
 1626 0400 23EE053B 		vmul.f64	d3, d3, d5
  92:main.cpp      ****     }
 1627              		.loc 11 92 29 view .LVU424
 1628 0404 23EE055B 		vmul.f64	d5, d3, d5
  92:main.cpp      ****     }
 1629              		.loc 11 92 13 view .LVU425
 1630 0408 B7EEC50B 		vcvt.f32.f64	s0, d5
 1631              	.LVL89:
  92:main.cpp      ****     }
 1632              		.loc 11 92 13 view .LVU426
 1633 040c 2AE7     		b	.L85
 1634              	.LVL90:
 1635              	.L127:
  92:main.cpp      ****     }
 1636              		.loc 11 92 13 view .LVU427
 1637              	.LBE287:
 1638              	.LBE294:
 1639              	.LBB295:
 1640              	.LBB265:
  92:main.cpp      ****     }
 1641              		.loc 11 92 9 is_stmt 1 view .LVU428
  92:main.cpp      ****     }
 1642              		.loc 11 92 23 is_stmt 0 view .LVU429
 1643 040e 9FED184B 		vldr.64	d4, .L146+16
 1644 0412 25EE044B 		vmul.f64	d4, d5, d4
  92:main.cpp      ****     }
 1645              		.loc 11 92 25 view .LVU430
 1646 0416 24EE054B 		vmul.f64	d4, d4, d5
  92:main.cpp      ****     }
 1647              		.loc 11 92 27 view .LVU431
 1648 041a 24EE054B 		vmul.f64	d4, d4, d5
  92:main.cpp      ****     }
 1649              		.loc 11 92 29 view .LVU432
 1650 041e 24EE055B 		vmul.f64	d5, d4, d5
  92:main.cpp      ****     }
 1651              		.loc 11 92 13 view .LVU433
 1652 0422 F7EEC54B 		vcvt.f32.f64	s9, d5
 1653              	.LVL91:
  92:main.cpp      ****     }
 1654              		.loc 11 92 13 view .LVU434
 1655 0426 D9E6     		b	.L70
 1656              	.LVL92:
 1657              	.L131:
  92:main.cpp      ****     }
 1658              		.loc 11 92 13 view .LVU435
 1659              	.LBE265:
 1660              	.LBE295:
 1661              	.LBB296:
 1662              	.LBB279:
  92:main.cpp      ****     }
 1663              		.loc 11 92 9 is_stmt 1 view .LVU436
  92:main.cpp      ****     }
 1664              		.loc 11 92 23 is_stmt 0 view .LVU437
 1665 0428 9FED113B 		vldr.64	d3, .L146+16
 1666 042c 25EE033B 		vmul.f64	d3, d5, d3
ARM GAS  C:\Users\galla\AppData\Local\Temp\ccOJAY1x.s 			page 56


  92:main.cpp      ****     }
 1667              		.loc 11 92 25 view .LVU438
 1668 0430 23EE053B 		vmul.f64	d3, d3, d5
  92:main.cpp      ****     }
 1669              		.loc 11 92 27 view .LVU439
 1670 0434 23EE053B 		vmul.f64	d3, d3, d5
  92:main.cpp      ****     }
 1671              		.loc 11 92 29 view .LVU440
 1672 0438 23EE055B 		vmul.f64	d5, d3, d5
  92:main.cpp      ****     }
 1673              		.loc 11 92 13 view .LVU441
 1674 043c F7EEC56B 		vcvt.f32.f64	s13, d5
 1675              	.LVL93:
  92:main.cpp      ****     }
 1676              		.loc 11 92 13 view .LVU442
 1677 0440 FAE6     		b	.L80
 1678              	.LVL94:
 1679              	.L129:
  92:main.cpp      ****     }
 1680              		.loc 11 92 13 view .LVU443
 1681              	.LBE279:
 1682              	.LBE296:
 1683              	.LBB297:
 1684              	.LBB271:
  92:main.cpp      ****     }
 1685              		.loc 11 92 9 is_stmt 1 view .LVU444
  92:main.cpp      ****     }
 1686              		.loc 11 92 23 is_stmt 0 view .LVU445
 1687 0442 9FED0B3B 		vldr.64	d3, .L146+16
 1688 0446 25EE033B 		vmul.f64	d3, d5, d3
  92:main.cpp      ****     }
 1689              		.loc 11 92 25 view .LVU446
 1690 044a 23EE053B 		vmul.f64	d3, d3, d5
  92:main.cpp      ****     }
 1691              		.loc 11 92 27 view .LVU447
 1692 044e 23EE053B 		vmul.f64	d3, d3, d5
  92:main.cpp      ****     }
 1693              		.loc 11 92 29 view .LVU448
 1694 0452 23EE055B 		vmul.f64	d5, d3, d5
  92:main.cpp      ****     }
 1695              		.loc 11 92 13 view .LVU449
 1696 0456 B7EEC54B 		vcvt.f32.f64	s8, d5
 1697              	.LVL95:
  92:main.cpp      ****     }
 1698              		.loc 11 92 13 view .LVU450
 1699 045a D6E6     		b	.L75
 1700              	.L147:
 1701 045c AFF30080 		.align	3
 1702              	.L146:
 1703 0460 C3F5285C 		.word	1546188227
 1704 0464 8FC2C5BF 		.word	-1077558641
 1705 0468 94B98238 		.word	948091284
 1706 046c D2C3C7BE 		.word	-1094204462
 1707 0470 63D4B5F6 		.word	-155855773
 1708 0474 3E55A53F 		.word	1067799870
 1709              	.LBE271:
 1710              	.LBE297:
ARM GAS  C:\Users\galla\AppData\Local\Temp\ccOJAY1x.s 			page 57


 1711              		.cfi_endproc
 1712              	.LFE4743:
 1714              		.section	.text._Z13AudioCallbackPKPKfPPfj,"ax",%progbits
 1715              		.align	1
 1716              		.p2align 2,,3
 1717              		.global	_Z13AudioCallbackPKPKfPPfj
 1718              		.syntax unified
 1719              		.thumb
 1720              		.thumb_func
 1721              		.fpu fpv5-d16
 1723              	_Z13AudioCallbackPKPKfPPfj:
 1724              	.LVL96:
 1725              	.LFB4744:
 168:main.cpp      **** 
 169:main.cpp      **** 
 170:main.cpp      **** void AudioCallback(AudioHandle::InputBuffer in, AudioHandle::OutputBuffer out, size_t size) {
 1726              		.loc 11 170 93 is_stmt 1 view -0
 1727              		.cfi_startproc
 1728              		@ args = 0, pretend = 0, frame = 0
 1729              		@ frame_needed = 0, uses_anonymous_args = 0
 171:main.cpp      ****     knob1 = hw.adc.GetFloat(0);
 1730              		.loc 11 171 5 view .LVU452
 170:main.cpp      ****     knob1 = hw.adc.GetFloat(0);
 1731              		.loc 11 170 93 is_stmt 0 view .LVU453
 1732 0000 2DE9F84F 		push	{r3, r4, r5, r6, r7, r8, r9, r10, fp, lr}
 1733              		.cfi_def_cfa_offset 40
 1734              		.cfi_offset 3, -40
 1735              		.cfi_offset 4, -36
 1736              		.cfi_offset 5, -32
 1737              		.cfi_offset 6, -28
 1738              		.cfi_offset 7, -24
 1739              		.cfi_offset 8, -20
 1740              		.cfi_offset 9, -16
 1741              		.cfi_offset 10, -12
 1742              		.cfi_offset 11, -8
 1743              		.cfi_offset 14, -4
 1744 0004 0646     		mov	r6, r0
 1745 0006 0F46     		mov	r7, r1
 1746              		.loc 11 171 28 view .LVU454
 1747 0008 8548     		ldr	r0, .L167+16
 1748              	.LVL97:
 1749              		.loc 11 171 28 view .LVU455
 1750 000a 0021     		movs	r1, #0
 1751              	.LVL98:
 1752              		.loc 11 171 11 view .LVU456
 1753 000c DFF85482 		ldr	r8, .L167+84
 170:main.cpp      ****     knob1 = hw.adc.GetFloat(0);
 1754              		.loc 11 170 93 view .LVU457
 1755 0010 1546     		mov	r5, r2
 172:main.cpp      ****     knob2 = hw.adc.GetFloat(1);
 1756              		.loc 11 172 11 view .LVU458
 1757 0012 DFF854A2 		ldr	r10, .L167+88
 173:main.cpp      ****     knob3 = hw.adc.GetFloat(2);
 1758              		.loc 11 173 11 view .LVU459
 1759 0016 DFF85492 		ldr	r9, .L167+92
 170:main.cpp      ****     knob1 = hw.adc.GetFloat(0);
 1760              		.loc 11 170 93 view .LVU460
ARM GAS  C:\Users\galla\AppData\Local\Temp\ccOJAY1x.s 			page 58


 1761 001a 2DED028B 		vpush.64	{d8}
 1762              		.cfi_def_cfa_offset 48
 1763              		.cfi_offset 80, -48
 1764              		.cfi_offset 81, -44
 171:main.cpp      ****     knob2 = hw.adc.GetFloat(1);
 1765              		.loc 11 171 28 view .LVU461
 1766 001e FFF7FEFF 		bl	_ZNK5daisy9AdcHandle8GetFloatEh
 1767              	.LVL99:
 172:main.cpp      ****     knob2 = hw.adc.GetFloat(1);
 1768              		.loc 11 172 28 view .LVU462
 1769 0022 0121     		movs	r1, #1
 1770 0024 7E48     		ldr	r0, .L167+16
 174:main.cpp      **** 
 175:main.cpp      **** 
 176:main.cpp      ****     tstone.setFreq(500 + knob2*3500);
 177:main.cpp      **** 
 178:main.cpp      ****     stage2.setGain(8*knob2);
 179:main.cpp      ****     stage3.setGain(-8*knob2);
 180:main.cpp      ****     stage4.setGain(4*knob2);
 1771              		.loc 11 180 19 view .LVU463
 1772 0026 B1EE008A 		vmov.f32	s16, #4.0e+0
 171:main.cpp      ****     knob2 = hw.adc.GetFloat(1);
 1773              		.loc 11 171 11 view .LVU464
 1774 002a 88ED000A 		vstr.32	s0, [r8]
 172:main.cpp      ****     knob3 = hw.adc.GetFloat(2);
 1775              		.loc 11 172 5 is_stmt 1 view .LVU465
 172:main.cpp      ****     knob3 = hw.adc.GetFloat(2);
 1776              		.loc 11 172 28 is_stmt 0 view .LVU466
 1777 002e FFF7FEFF 		bl	_ZNK5daisy9AdcHandle8GetFloatEh
 1778              	.LVL100:
 173:main.cpp      **** 
 1779              		.loc 11 173 28 view .LVU467
 1780 0032 0221     		movs	r1, #2
 1781 0034 7A48     		ldr	r0, .L167+16
 172:main.cpp      ****     knob3 = hw.adc.GetFloat(2);
 1782              		.loc 11 172 11 view .LVU468
 1783 0036 8AED000A 		vstr.32	s0, [r10]
 173:main.cpp      **** 
 1784              		.loc 11 173 5 is_stmt 1 view .LVU469
 173:main.cpp      **** 
 1785              		.loc 11 173 28 is_stmt 0 view .LVU470
 1786 003a FFF7FEFF 		bl	_ZNK5daisy9AdcHandle8GetFloatEh
 1787              	.LVL101:
 176:main.cpp      **** 
 1788              		.loc 11 176 19 view .LVU471
 1789 003e DAED006A 		vldr.32	s13, [r10]
 173:main.cpp      **** 
 1790              		.loc 11 173 28 view .LVU472
 1791 0042 F0EE407A 		vmov.f32	s15, s0
 176:main.cpp      **** 
 1792              		.loc 11 176 19 view .LVU473
 1793 0046 9FED777A 		vldr.32	s14, .L167+20
 1794 004a 9FED770A 		vldr.32	s0, .L167+24
 1795 004e 7748     		ldr	r0, .L167+28
 1796 0050 A6EE870A 		vfma.f32	s0, s13, s14
 173:main.cpp      **** 
 1797              		.loc 11 173 11 view .LVU474
ARM GAS  C:\Users\galla\AppData\Local\Temp\ccOJAY1x.s 			page 59


 1798 0054 C9ED007A 		vstr.32	s15, [r9]
 176:main.cpp      **** 
 1799              		.loc 11 176 5 is_stmt 1 view .LVU475
 176:main.cpp      **** 
 1800              		.loc 11 176 19 is_stmt 0 view .LVU476
 1801 0058 FFF7FEFF 		bl	_ZN6TSTone7setFreqEf
 1802              	.LVL102:
 178:main.cpp      ****     stage3.setGain(-8*knob2);
 1803              		.loc 11 178 5 is_stmt 1 view .LVU477
 178:main.cpp      ****     stage3.setGain(-8*knob2);
 1804              		.loc 11 178 19 is_stmt 0 view .LVU478
 1805 005c F2EE007A 		vmov.f32	s15, #8.0e+0
 1806 0060 9AED000A 		vldr.32	s0, [r10]
 1807 0064 7248     		ldr	r0, .L167+32
 1808 0066 20EE270A 		vmul.f32	s0, s0, s15
 1809 006a FFF7FEFF 		bl	_ZN6PeakEQ7setGainEf
 1810              	.LVL103:
 179:main.cpp      ****     stage4.setGain(4*knob2);
 1811              		.loc 11 179 5 is_stmt 1 view .LVU479
 179:main.cpp      ****     stage4.setGain(4*knob2);
 1812              		.loc 11 179 19 is_stmt 0 view .LVU480
 1813 006e FAEE007A 		vmov.f32	s15, #-8.0e+0
 1814 0072 9AED000A 		vldr.32	s0, [r10]
 1815 0076 6F48     		ldr	r0, .L167+36
 1816 0078 20EE270A 		vmul.f32	s0, s0, s15
 1817 007c FFF7FEFF 		bl	_ZN6PeakEQ7setGainEf
 1818              	.LVL104:
 1819              		.loc 11 180 5 is_stmt 1 view .LVU481
 1820              		.loc 11 180 19 is_stmt 0 view .LVU482
 1821 0080 9AED000A 		vldr.32	s0, [r10]
 1822 0084 6C48     		ldr	r0, .L167+40
 1823 0086 20EE080A 		vmul.f32	s0, s0, s16
 1824 008a FFF7FEFF 		bl	_ZN6PeakEQ7setGainEf
 1825              	.LVL105:
 181:main.cpp      ****     stage5.setGain(4*knob2);
 1826              		.loc 11 181 5 is_stmt 1 view .LVU483
 1827              		.loc 11 181 19 is_stmt 0 view .LVU484
 1828 008e 9AED000A 		vldr.32	s0, [r10]
 1829 0092 6A48     		ldr	r0, .L167+44
 1830 0094 20EE080A 		vmul.f32	s0, s0, s16
 1831 0098 FFF7FEFF 		bl	_ZN6PeakEQ7setGainEf
 1832              	.LVL106:
 182:main.cpp      ****     float gain;
 1833              		.loc 11 182 5 is_stmt 1 view .LVU485
 183:main.cpp      ****     if(effect == 0) {
 1834              		.loc 11 183 5 view .LVU486
 1835              	.LBB298:
 1836              		.loc 11 183 15 is_stmt 0 view .LVU487
 1837 009c 684B     		ldr	r3, .L167+48
 1838 009e 1C68     		ldr	r4, [r3]
 1839              		.loc 11 183 5 view .LVU488
 1840 00a0 44BB     		cbnz	r4, .L149
 1841              	.LVL107:
 1842              	.LBB299:
 184:main.cpp      ****         for (size_t i = 0; i < size; i++) {
 1843              		.loc 11 184 30 is_stmt 1 view .LVU489
 1844 00a2 1DB3     		cbz	r5, .L148
ARM GAS  C:\Users\galla\AppData\Local\Temp\ccOJAY1x.s 			page 60


 1845              	.LVL108:
 1846              	.L151:
 1847              	.LBB300:
 185:main.cpp      ****             gain = 20 + knob1*140;
 1848              		.loc 11 185 13 discriminator 2 view .LVU490
 1849              		.loc 11 185 18 is_stmt 0 discriminator 2 view .LVU491
 1850 00a4 F3EE047A 		vmov.f32	s15, #2.0e+1
 1851 00a8 D8ED006A 		vldr.32	s13, [r8]
 1852 00ac 9FED657A 		vldr.32	s14, .L167+52
 1853 00b0 4FEA840A 		lsl	r10, r4, #2
 186:main.cpp      ****             float dist = dist3ADAA(IN_L[i]*gain);
 1854              		.loc 11 186 42 discriminator 2 view .LVU492
 1855 00b4 3268     		ldr	r2, [r6]
 185:main.cpp      ****             gain = 20 + knob1*140;
 1856              		.loc 11 185 18 discriminator 2 view .LVU493
 1857 00b6 E6EE877A 		vfma.f32	s15, s13, s14
 1858              	.LVL109:
 1859              		.loc 11 186 13 is_stmt 1 discriminator 2 view .LVU494
 1860              		.loc 11 186 42 is_stmt 0 discriminator 2 view .LVU495
 1861 00ba 02EB8402 		add	r2, r2, r4, lsl #2
 1862              	.LBE300:
 184:main.cpp      ****         for (size_t i = 0; i < size; i++) {
 1863              		.loc 11 184 9 discriminator 2 view .LVU496
 1864 00be 0134     		adds	r4, r4, #1
 1865              	.LVL110:
 1866              	.LBB301:
 1867              		.loc 11 186 35 discriminator 2 view .LVU497
 1868 00c0 92ED000A 		vldr.32	s0, [r2]
 1869 00c4 27EE800A 		vmul.f32	s0, s15, s0
 1870 00c8 FFF7FEFF 		bl	_Z9dist3ADAAf
 1871              	.LVL111:
 187:main.cpp      ****             OUT_L[i] = knob3*tstone.Process(tsHP.Process(dist));
 1872              		.loc 11 187 13 is_stmt 1 discriminator 2 view .LVU498
 1873              		.loc 11 187 44 is_stmt 0 discriminator 2 view .LVU499
 1874 00cc 5E48     		ldr	r0, .L167+56
 1875 00ce FFF7FEFF 		bl	_ZN6DistHP7ProcessEf
 1876              	.LVL112:
 1877              		.loc 11 187 44 discriminator 2 view .LVU500
 1878 00d2 5648     		ldr	r0, .L167+28
 1879 00d4 FFF7FEFF 		bl	_ZN6TSTone7ProcessEf
 1880              	.LVL113:
 1881              		.loc 11 187 29 discriminator 2 view .LVU501
 1882 00d8 D9ED007A 		vldr.32	s15, [r9]
 1883              		.loc 11 187 22 discriminator 2 view .LVU502
 1884 00dc 3B68     		ldr	r3, [r7]
 1885              	.LBE301:
 184:main.cpp      ****             gain = 20 + knob1*140;
 1886              		.loc 11 184 30 discriminator 2 view .LVU503
 1887 00de A542     		cmp	r5, r4
 1888              	.LBB302:
 1889              		.loc 11 187 29 discriminator 2 view .LVU504
 1890 00e0 27EE800A 		vmul.f32	s0, s15, s0
 1891              		.loc 11 187 22 discriminator 2 view .LVU505
 1892 00e4 5344     		add	r3, r3, r10
 1893 00e6 83ED000A 		vstr.32	s0, [r3]
 1894              	.LBE302:
 184:main.cpp      ****             gain = 20 + knob1*140;
ARM GAS  C:\Users\galla\AppData\Local\Temp\ccOJAY1x.s 			page 61


 1895              		.loc 11 184 9 is_stmt 1 discriminator 2 view .LVU506
 1896              	.LVL114:
 184:main.cpp      ****             gain = 20 + knob1*140;
 1897              		.loc 11 184 30 discriminator 2 view .LVU507
 1898 00ea DBD1     		bne	.L151
 1899              	.LVL115:
 1900              	.L148:
 184:main.cpp      ****             gain = 20 + knob1*140;
 1901              		.loc 11 184 30 is_stmt 0 discriminator 2 view .LVU508
 1902              	.LBE299:
 1903              	.LBE298:
 188:main.cpp      ****         }
 189:main.cpp      ****     } else if(effect == 1) {
 190:main.cpp      ****         for (size_t i = 0; i < size; i++) {
 191:main.cpp      ****             gain = 0.2+knob1*0.8;
 192:main.cpp      ****             float dist = dist3ADAA(IN_L[i]*60*gain);
 193:main.cpp      ****             float temp = bmBP.Process(dist);
 194:main.cpp      ****             float low = bmLow.Process(temp);
 195:main.cpp      ****             float high = bmHigh.Process(temp);
 196:main.cpp      ****             OUT_L[i] = 4*knob3*(high*knob2 + abs(1-knob2)*low);
 197:main.cpp      ****         }
 198:main.cpp      **** 
 199:main.cpp      ****     } else if(effect == 2) {
 200:main.cpp      ****         for (size_t i = 0; i < size; i++) {
 201:main.cpp      ****             gain = 0.2+knob1*0.8;
 202:main.cpp      ****             float dist = dist3ADAA(IN_L[i]*60*gain);
 203:main.cpp      ****             float s1 = stage1.Process(dist);
 204:main.cpp      ****             float s2 = stage2.Process(s1);
 205:main.cpp      ****             float s3 = stage3.Process(s2);
 206:main.cpp      ****             float s4 = stage4.Process(s3);
 207:main.cpp      ****             float s5 = stage5.Process(s4);
 208:main.cpp      ****             OUT_L[i] = knob3*hmHP.Process(s5);
 209:main.cpp      ****         }
 210:main.cpp      ****     }
 211:main.cpp      **** 
 212:main.cpp      **** }// end of callback
 1904              		.loc 11 212 1 view .LVU509
 1905 00ec BDEC028B 		vldm	sp!, {d8}
 1906              		.cfi_remember_state
 1907              		.cfi_restore 80
 1908              		.cfi_restore 81
 1909              		.cfi_def_cfa_offset 40
 1910 00f0 BDE8F88F 		pop	{r3, r4, r5, r6, r7, r8, r9, r10, fp, pc}
 1911              	.LVL116:
 1912              	.L149:
 1913              		.cfi_restore_state
 189:main.cpp      ****         for (size_t i = 0; i < size; i++) {
 1914              		.loc 11 189 12 is_stmt 1 view .LVU510
 1915              	.LBB318:
 1916              	.LBB303:
 1917 00f4 012C     		cmp	r4, #1
 1918 00f6 3CD0     		beq	.L166
 1919              	.LBE303:
 1920              	.LBE318:
 199:main.cpp      ****         for (size_t i = 0; i < size; i++) {
 1921              		.loc 11 199 12 view .LVU511
 1922              	.LBB319:
ARM GAS  C:\Users\galla\AppData\Local\Temp\ccOJAY1x.s 			page 62


 1923              	.LBB317:
 1924              	.LBB304:
 1925 00f8 022C     		cmp	r4, #2
 1926 00fa F7D1     		bne	.L148
 1927              	.LVL117:
 1928              	.LBB305:
 200:main.cpp      ****             gain = 0.2+knob1*0.8;
 1929              		.loc 11 200 30 view .LVU512
 1930 00fc 002D     		cmp	r5, #0
 1931 00fe F5D0     		beq	.L148
 200:main.cpp      ****             gain = 0.2+knob1*0.8;
 1932              		.loc 11 200 21 is_stmt 0 view .LVU513
 1933 0100 0024     		movs	r4, #0
 1934              	.LVL118:
 1935              	.L154:
 1936              	.LBB306:
 201:main.cpp      ****             float dist = dist3ADAA(IN_L[i]*60*gain);
 1937              		.loc 11 201 13 is_stmt 1 discriminator 2 view .LVU514
 201:main.cpp      ****             float dist = dist3ADAA(IN_L[i]*60*gain);
 1938              		.loc 11 201 24 is_stmt 0 discriminator 2 view .LVU515
 1939 0102 98ED007A 		vldr.32	s14, [r8]
 202:main.cpp      ****             float s1 = stage1.Process(dist);
 1940              		.loc 11 202 42 discriminator 2 view .LVU516
 1941 0106 3368     		ldr	r3, [r6]
 201:main.cpp      ****             float dist = dist3ADAA(IN_L[i]*60*gain);
 1942              		.loc 11 201 24 discriminator 2 view .LVU517
 1943 0108 B7EEC77A 		vcvt.f64.f32	d7, s14
 202:main.cpp      ****             float s1 = stage1.Process(dist);
 1944              		.loc 11 202 43 discriminator 2 view .LVU518
 1945 010c DFED4F6A 		vldr.32	s13, .L167+60
 202:main.cpp      ****             float s1 = stage1.Process(dist);
 1946              		.loc 11 202 42 discriminator 2 view .LVU519
 1947 0110 03EB8403 		add	r3, r3, r4, lsl #2
 201:main.cpp      ****             float dist = dist3ADAA(IN_L[i]*60*gain);
 1948              		.loc 11 201 23 discriminator 2 view .LVU520
 1949 0114 9FED3E5B 		vldr.64	d5, .L167
 1950 0118 9FED3F0B 		vldr.64	d0, .L167+8
 1951 011c A7EE050B 		vfma.f64	d0, d7, d5
 1952              	.LVL119:
 202:main.cpp      ****             float s1 = stage1.Process(dist);
 1953              		.loc 11 202 13 is_stmt 1 discriminator 2 view .LVU521
 202:main.cpp      ****             float s1 = stage1.Process(dist);
 1954              		.loc 11 202 43 is_stmt 0 discriminator 2 view .LVU522
 1955 0120 D3ED007A 		vldr.32	s15, [r3]
 1956 0124 67EEA67A 		vmul.f32	s15, s15, s13
 201:main.cpp      ****             float dist = dist3ADAA(IN_L[i]*60*gain);
 1957              		.loc 11 201 18 discriminator 2 view .LVU523
 1958 0128 B7EEC00B 		vcvt.f32.f64	s0, d0
 1959              	.LVL120:
 202:main.cpp      ****             float s1 = stage1.Process(dist);
 1960              		.loc 11 202 35 discriminator 2 view .LVU524
 1961 012c 27EE800A 		vmul.f32	s0, s15, s0
 1962              	.LVL121:
 202:main.cpp      ****             float s1 = stage1.Process(dist);
 1963              		.loc 11 202 35 discriminator 2 view .LVU525
 1964 0130 FFF7FEFF 		bl	_Z9dist3ADAAf
 1965              	.LVL122:
ARM GAS  C:\Users\galla\AppData\Local\Temp\ccOJAY1x.s 			page 63


 203:main.cpp      ****             float s2 = stage2.Process(s1);
 1966              		.loc 11 203 13 is_stmt 1 discriminator 2 view .LVU526
 203:main.cpp      ****             float s2 = stage2.Process(s1);
 1967              		.loc 11 203 38 is_stmt 0 discriminator 2 view .LVU527
 1968 0134 4648     		ldr	r0, .L167+64
 1969 0136 FFF7FEFF 		bl	_ZN6PeakEQ7ProcessEf
 1970              	.LVL123:
 204:main.cpp      ****             float s3 = stage3.Process(s2);
 1971              		.loc 11 204 13 is_stmt 1 discriminator 2 view .LVU528
 204:main.cpp      ****             float s3 = stage3.Process(s2);
 1972              		.loc 11 204 38 is_stmt 0 discriminator 2 view .LVU529
 1973 013a 3D48     		ldr	r0, .L167+32
 1974 013c FFF7FEFF 		bl	_ZN6PeakEQ7ProcessEf
 1975              	.LVL124:
 205:main.cpp      ****             float s4 = stage4.Process(s3);
 1976              		.loc 11 205 13 is_stmt 1 discriminator 2 view .LVU530
 205:main.cpp      ****             float s4 = stage4.Process(s3);
 1977              		.loc 11 205 38 is_stmt 0 discriminator 2 view .LVU531
 1978 0140 3C48     		ldr	r0, .L167+36
 1979 0142 FFF7FEFF 		bl	_ZN6PeakEQ7ProcessEf
 1980              	.LVL125:
 206:main.cpp      ****             float s5 = stage5.Process(s4);
 1981              		.loc 11 206 13 is_stmt 1 discriminator 2 view .LVU532
 206:main.cpp      ****             float s5 = stage5.Process(s4);
 1982              		.loc 11 206 38 is_stmt 0 discriminator 2 view .LVU533
 1983 0146 3C48     		ldr	r0, .L167+40
 1984 0148 FFF7FEFF 		bl	_ZN6PeakEQ7ProcessEf
 1985              	.LVL126:
 207:main.cpp      ****             OUT_L[i] = knob3*hmHP.Process(s5);
 1986              		.loc 11 207 13 is_stmt 1 discriminator 2 view .LVU534
 207:main.cpp      ****             OUT_L[i] = knob3*hmHP.Process(s5);
 1987              		.loc 11 207 38 is_stmt 0 discriminator 2 view .LVU535
 1988 014c 3B48     		ldr	r0, .L167+44
 1989 014e FFF7FEFF 		bl	_ZN6PeakEQ7ProcessEf
 1990              	.LVL127:
 208:main.cpp      ****         }
 1991              		.loc 11 208 13 is_stmt 1 discriminator 2 view .LVU536
 208:main.cpp      ****         }
 1992              		.loc 11 208 42 is_stmt 0 discriminator 2 view .LVU537
 1993 0152 4048     		ldr	r0, .L167+68
 1994 0154 FFF7FEFF 		bl	_ZN8DistHPHM7ProcessEf
 1995              	.LVL128:
 208:main.cpp      ****         }
 1996              		.loc 11 208 29 discriminator 2 view .LVU538
 1997 0158 D9ED007A 		vldr.32	s15, [r9]
 1998 015c A200     		lsls	r2, r4, #2
 208:main.cpp      ****         }
 1999              		.loc 11 208 22 discriminator 2 view .LVU539
 2000 015e 3B68     		ldr	r3, [r7]
 2001              	.LBE306:
 200:main.cpp      ****             gain = 0.2+knob1*0.8;
 2002              		.loc 11 200 9 discriminator 2 view .LVU540
 2003 0160 0134     		adds	r4, r4, #1
 2004              	.LVL129:
 2005              	.LBB307:
 208:main.cpp      ****         }
 2006              		.loc 11 208 29 discriminator 2 view .LVU541
ARM GAS  C:\Users\galla\AppData\Local\Temp\ccOJAY1x.s 			page 64


 2007 0162 27EE800A 		vmul.f32	s0, s15, s0
 208:main.cpp      ****         }
 2008              		.loc 11 208 22 discriminator 2 view .LVU542
 2009 0166 1344     		add	r3, r3, r2
 2010              	.LBE307:
 200:main.cpp      ****             gain = 0.2+knob1*0.8;
 2011              		.loc 11 200 30 discriminator 2 view .LVU543
 2012 0168 A542     		cmp	r5, r4
 2013              	.LBB308:
 208:main.cpp      ****         }
 2014              		.loc 11 208 22 discriminator 2 view .LVU544
 2015 016a 83ED000A 		vstr.32	s0, [r3]
 2016              	.LBE308:
 200:main.cpp      ****             gain = 0.2+knob1*0.8;
 2017              		.loc 11 200 9 is_stmt 1 discriminator 2 view .LVU545
 2018              	.LVL130:
 200:main.cpp      ****             gain = 0.2+knob1*0.8;
 2019              		.loc 11 200 30 discriminator 2 view .LVU546
 2020 016e C8D1     		bne	.L154
 2021 0170 BCE7     		b	.L148
 2022              	.LVL131:
 2023              	.L166:
 200:main.cpp      ****             gain = 0.2+knob1*0.8;
 2024              		.loc 11 200 30 is_stmt 0 discriminator 2 view .LVU547
 2025              	.LBE305:
 2026              	.LBE304:
 2027              	.LBB309:
 190:main.cpp      ****             gain = 0.2+knob1*0.8;
 2028              		.loc 11 190 30 is_stmt 1 view .LVU548
 2029 0172 002D     		cmp	r5, #0
 2030 0174 BAD0     		beq	.L148
 190:main.cpp      ****             gain = 0.2+knob1*0.8;
 2031              		.loc 11 190 21 is_stmt 0 view .LVU549
 2032 0176 0024     		movs	r4, #0
 2033              	.LVL132:
 2034              	.L153:
 2035              	.LBB310:
 191:main.cpp      ****             float dist = dist3ADAA(IN_L[i]*60*gain);
 2036              		.loc 11 191 13 is_stmt 1 discriminator 2 view .LVU550
 191:main.cpp      ****             float dist = dist3ADAA(IN_L[i]*60*gain);
 2037              		.loc 11 191 24 is_stmt 0 discriminator 2 view .LVU551
 2038 0178 98ED007A 		vldr.32	s14, [r8]
 2039 017c 4FEA840B 		lsl	fp, r4, #2
 192:main.cpp      ****             float temp = bmBP.Process(dist);
 2040              		.loc 11 192 42 discriminator 2 view .LVU552
 2041 0180 3268     		ldr	r2, [r6]
 191:main.cpp      ****             float dist = dist3ADAA(IN_L[i]*60*gain);
 2042              		.loc 11 191 24 discriminator 2 view .LVU553
 2043 0182 B7EEC77A 		vcvt.f64.f32	d7, s14
 192:main.cpp      ****             float temp = bmBP.Process(dist);
 2044              		.loc 11 192 43 discriminator 2 view .LVU554
 2045 0186 DFED316A 		vldr.32	s13, .L167+60
 192:main.cpp      ****             float temp = bmBP.Process(dist);
 2046              		.loc 11 192 42 discriminator 2 view .LVU555
 2047 018a 02EB8402 		add	r2, r2, r4, lsl #2
 2048              	.LBE310:
 190:main.cpp      ****             gain = 0.2+knob1*0.8;
ARM GAS  C:\Users\galla\AppData\Local\Temp\ccOJAY1x.s 			page 65


 2049              		.loc 11 190 9 discriminator 2 view .LVU556
 2050 018e 0134     		adds	r4, r4, #1
 2051              	.LVL133:
 2052              	.LBB315:
 191:main.cpp      ****             float dist = dist3ADAA(IN_L[i]*60*gain);
 2053              		.loc 11 191 23 discriminator 2 view .LVU557
 2054 0190 9FED1F5B 		vldr.64	d5, .L167
 2055 0194 9FED200B 		vldr.64	d0, .L167+8
 2056 0198 A7EE050B 		vfma.f64	d0, d7, d5
 2057              	.LVL134:
 192:main.cpp      ****             float temp = bmBP.Process(dist);
 2058              		.loc 11 192 13 is_stmt 1 discriminator 2 view .LVU558
 192:main.cpp      ****             float temp = bmBP.Process(dist);
 2059              		.loc 11 192 43 is_stmt 0 discriminator 2 view .LVU559
 2060 019c D2ED007A 		vldr.32	s15, [r2]
 2061 01a0 67EEA67A 		vmul.f32	s15, s15, s13
 191:main.cpp      ****             float dist = dist3ADAA(IN_L[i]*60*gain);
 2062              		.loc 11 191 18 discriminator 2 view .LVU560
 2063 01a4 B7EEC00B 		vcvt.f32.f64	s0, d0
 2064              	.LVL135:
 192:main.cpp      ****             float temp = bmBP.Process(dist);
 2065              		.loc 11 192 35 discriminator 2 view .LVU561
 2066 01a8 27EE800A 		vmul.f32	s0, s15, s0
 2067              	.LVL136:
 192:main.cpp      ****             float temp = bmBP.Process(dist);
 2068              		.loc 11 192 35 discriminator 2 view .LVU562
 2069 01ac FFF7FEFF 		bl	_Z9dist3ADAAf
 2070              	.LVL137:
 193:main.cpp      ****             float low = bmLow.Process(temp);
 2071              		.loc 11 193 13 is_stmt 1 discriminator 2 view .LVU563
 193:main.cpp      ****             float low = bmLow.Process(temp);
 2072              		.loc 11 193 38 is_stmt 0 discriminator 2 view .LVU564
 2073 01b0 2948     		ldr	r0, .L167+72
 2074 01b2 FFF7FEFF 		bl	_ZN6DistBP7ProcessEf
 2075              	.LVL138:
 194:main.cpp      ****             float high = bmHigh.Process(temp);
 2076              		.loc 11 194 38 discriminator 2 view .LVU565
 2077 01b6 2948     		ldr	r0, .L167+76
 193:main.cpp      ****             float low = bmLow.Process(temp);
 2078              		.loc 11 193 38 discriminator 2 view .LVU566
 2079 01b8 B0EE408A 		vmov.f32	s16, s0
 2080              	.LVL139:
 194:main.cpp      ****             float high = bmHigh.Process(temp);
 2081              		.loc 11 194 13 is_stmt 1 discriminator 2 view .LVU567
 194:main.cpp      ****             float high = bmHigh.Process(temp);
 2082              		.loc 11 194 38 is_stmt 0 discriminator 2 view .LVU568
 2083 01bc FFF7FEFF 		bl	_ZN5BMlow7ProcessEf
 2084              	.LVL140:
 194:main.cpp      ****             float high = bmHigh.Process(temp);
 2085              		.loc 11 194 38 discriminator 2 view .LVU569
 2086 01c0 F0EE407A 		vmov.f32	s15, s0
 195:main.cpp      ****             OUT_L[i] = 4*knob3*(high*knob2 + abs(1-knob2)*low);
 2087              		.loc 11 195 40 discriminator 2 view .LVU570
 2088 01c4 2648     		ldr	r0, .L167+80
 2089 01c6 B0EE480A 		vmov.f32	s0, s16
 194:main.cpp      ****             float high = bmHigh.Process(temp);
 2090              		.loc 11 194 38 discriminator 2 view .LVU571
ARM GAS  C:\Users\galla\AppData\Local\Temp\ccOJAY1x.s 			page 66


 2091 01ca B0EE678A 		vmov.f32	s16, s15
 2092              	.LVL141:
 195:main.cpp      ****             OUT_L[i] = 4*knob3*(high*knob2 + abs(1-knob2)*low);
 2093              		.loc 11 195 13 is_stmt 1 discriminator 2 view .LVU572
 195:main.cpp      ****             OUT_L[i] = 4*knob3*(high*knob2 + abs(1-knob2)*low);
 2094              		.loc 11 195 40 is_stmt 0 discriminator 2 view .LVU573
 2095 01ce FFF7FEFF 		bl	_ZN6BMhigh7ProcessEf
 2096              	.LVL142:
 196:main.cpp      ****         }
 2097              		.loc 11 196 13 is_stmt 1 discriminator 2 view .LVU574
 196:main.cpp      ****         }
 2098              		.loc 11 196 49 is_stmt 0 discriminator 2 view .LVU575
 2099 01d2 B7EE007A 		vmov.f32	s14, #1.0e+0
 196:main.cpp      ****         }
 2100              		.loc 11 196 37 discriminator 2 view .LVU576
 2101 01d6 9AED006A 		vldr.32	s12, [r10]
 2102              	.LVL143:
 2103              	.LBB311:
 2104              	.LBI311:
  75:c:\program files\daisytoolchain\arm-none-eabi\include\c++\10.2.1\bits\std_abs.h ****   { return __builtin_fabsf(__x); }
 2105              		.loc 12 75 3 is_stmt 1 discriminator 2 view .LVU577
 2106              	.LBB312:
 2107              		.loc 12 76 5 discriminator 2 view .LVU578
 2108              		.loc 12 76 5 is_stmt 0 discriminator 2 view .LVU579
 2109              	.LBE312:
 2110              	.LBE311:
 196:main.cpp      ****         }
 2111              		.loc 11 196 25 discriminator 2 view .LVU580
 2112 01da F1EE007A 		vmov.f32	s15, #4.0e+0
 2113 01de D9ED006A 		vldr.32	s13, [r9]
 196:main.cpp      ****         }
 2114              		.loc 11 196 22 discriminator 2 view .LVU581
 2115 01e2 3B68     		ldr	r3, [r7]
 2116              	.LBE315:
 190:main.cpp      ****             gain = 0.2+knob1*0.8;
 2117              		.loc 11 190 30 discriminator 2 view .LVU582
 2118 01e4 A542     		cmp	r5, r4
 2119              	.LBB316:
 196:main.cpp      ****         }
 2120              		.loc 11 196 49 discriminator 2 view .LVU583
 2121 01e6 37EE467A 		vsub.f32	s14, s14, s12
 196:main.cpp      ****         }
 2122              		.loc 11 196 25 discriminator 2 view .LVU584
 2123 01ea 66EEA76A 		vmul.f32	s13, s13, s15
 196:main.cpp      ****         }
 2124              		.loc 11 196 22 discriminator 2 view .LVU585
 2125 01ee 5B44     		add	r3, r3, fp
 2126              	.LBB314:
 2127              	.LBB313:
 2128              		.loc 12 76 31 discriminator 2 view .LVU586
 2129 01f0 B0EEC77A 		vabs.f32	s14, s14
 2130              	.LBE313:
 2131              	.LBE314:
 196:main.cpp      ****         }
 2132              		.loc 11 196 58 discriminator 2 view .LVU587
 2133 01f4 67EE087A 		vmul.f32	s15, s14, s16
 196:main.cpp      ****         }
ARM GAS  C:\Users\galla\AppData\Local\Temp\ccOJAY1x.s 			page 67


 2134              		.loc 11 196 44 discriminator 2 view .LVU588
 2135 01f8 E6EE007A 		vfma.f32	s15, s12, s0
 196:main.cpp      ****         }
 2136              		.loc 11 196 31 discriminator 2 view .LVU589
 2137 01fc 66EEA77A 		vmul.f32	s15, s13, s15
 196:main.cpp      ****         }
 2138              		.loc 11 196 22 discriminator 2 view .LVU590
 2139 0200 C3ED007A 		vstr.32	s15, [r3]
 2140              	.LBE316:
 190:main.cpp      ****             gain = 0.2+knob1*0.8;
 2141              		.loc 11 190 9 is_stmt 1 discriminator 2 view .LVU591
 2142              	.LVL144:
 190:main.cpp      ****             gain = 0.2+knob1*0.8;
 2143              		.loc 11 190 30 discriminator 2 view .LVU592
 2144 0204 B8D1     		bne	.L153
 2145              	.LBE309:
 2146              	.LBE317:
 2147              	.LBE319:
 2148              		.loc 11 212 1 is_stmt 0 view .LVU593
 2149 0206 BDEC028B 		vldm	sp!, {d8}
 2150              		.cfi_restore 80
 2151              		.cfi_restore 81
 2152              		.cfi_def_cfa_offset 40
 2153              	.LVL145:
 2154              		.loc 11 212 1 view .LVU594
 2155 020a BDE8F88F 		pop	{r3, r4, r5, r6, r7, r8, r9, r10, fp, pc}
 2156              	.LVL146:
 2157              	.L168:
 2158              		.loc 11 212 1 view .LVU595
 2159 020e 00BF     		.align	3
 2160              	.L167:
 2161 0210 9A999999 		.word	-1717986918
 2162 0214 9999E93F 		.word	1072273817
 2163 0218 9A999999 		.word	-1717986918
 2164 021c 9999C93F 		.word	1070176665
 2165 0220 18000000 		.word	.LANCHOR9+24
 2166 0224 00C05A45 		.word	1163575296
 2167 0228 0000FA43 		.word	1140457472
 2168 022c 00000000 		.word	.LANCHOR13
 2169 0230 00000000 		.word	.LANCHOR14
 2170 0234 00000000 		.word	.LANCHOR15
 2171 0238 00000000 		.word	.LANCHOR16
 2172 023c 00000000 		.word	.LANCHOR17
 2173 0240 00000000 		.word	.LANCHOR4
 2174 0244 00000C43 		.word	1124859904
 2175 0248 00000000 		.word	.LANCHOR18
 2176 024c 00007042 		.word	1114636288
 2177 0250 00000000 		.word	.LANCHOR22
 2178 0254 00000000 		.word	.LANCHOR23
 2179 0258 00000000 		.word	.LANCHOR19
 2180 025c 00000000 		.word	.LANCHOR20
 2181 0260 00000000 		.word	.LANCHOR21
 2182 0264 00000000 		.word	.LANCHOR10
 2183 0268 00000000 		.word	.LANCHOR11
 2184 026c 00000000 		.word	.LANCHOR12
 2185              		.cfi_endproc
 2186              	.LFE4744:
ARM GAS  C:\Users\galla\AppData\Local\Temp\ccOJAY1x.s 			page 68


 2188              		.section	.text._Z13InitializeADCv,"ax",%progbits
 2189              		.align	1
 2190              		.p2align 2,,3
 2191              		.global	_Z13InitializeADCv
 2192              		.syntax unified
 2193              		.thumb
 2194              		.thumb_func
 2195              		.fpu fpv5-d16
 2197              	_Z13InitializeADCv:
 2198              	.LFB4745:
 213:main.cpp      **** 
 214:main.cpp      **** void InitializeADC()
 215:main.cpp      **** {
 2199              		.loc 11 215 1 is_stmt 1 view -0
 2200              		.cfi_startproc
 2201              		@ args = 0, pretend = 0, frame = 72
 2202              		@ frame_needed = 0, uses_anonymous_args = 0
 216:main.cpp      **** 	AdcChannelConfig adc_config[3];
 2203              		.loc 11 216 2 view .LVU597
 217:main.cpp      ****     adc_config[0].InitSingle(hw.GetPin(15));//knob 1
 2204              		.loc 11 217 5 view .LVU598
 215:main.cpp      **** 	AdcChannelConfig adc_config[3];
 2205              		.loc 11 215 1 is_stmt 0 view .LVU599
 2206 0000 10B5     		push	{r4, lr}
 2207              		.cfi_def_cfa_offset 8
 2208              		.cfi_offset 4, -8
 2209              		.cfi_offset 14, -4
 2210              		.loc 11 217 29 view .LVU600
 2211 0002 0F20     		movs	r0, #15
 215:main.cpp      **** 	AdcChannelConfig adc_config[3];
 2212              		.loc 11 215 1 view .LVU601
 2213 0004 92B0     		sub	sp, sp, #72
 2214              		.cfi_def_cfa_offset 80
 2215              		.loc 11 217 29 view .LVU602
 2216 0006 FFF7FEFF 		bl	_ZN5daisy9DaisySeed6GetPinEh
 2217              	.LVL147:
 2218 000a 0346     		mov	r3, r0	@ movhi
 2219 000c 0222     		movs	r2, #2
 2220 000e 04A8     		add	r0, sp, #16
 2221 0010 ADF80430 		strh	r3, [sp, #4]	@ movhi
 2222 0014 0199     		ldr	r1, [sp, #4]
 2223 0016 FFF7FEFF 		bl	_ZN5daisy16AdcChannelConfig10InitSingleE12dsy_gpio_pinNS0_15ConversionSpeedE
 2224              	.LVL148:
 218:main.cpp      ****     adc_config[1].InitSingle(hw.GetPin(16));//knob 2
 2225              		.loc 11 218 5 is_stmt 1 view .LVU603
 2226              		.loc 11 218 29 is_stmt 0 view .LVU604
 2227 001a 1020     		movs	r0, #16
 2228 001c FFF7FEFF 		bl	_ZN5daisy9DaisySeed6GetPinEh
 2229              	.LVL149:
 2230 0020 ADF80800 		strh	r0, [sp, #8]	@ movhi
 2231 0024 0299     		ldr	r1, [sp, #8]
 2232 0026 0222     		movs	r2, #2
 2233 0028 0DF12200 		add	r0, sp, #34
 219:main.cpp      ****     adc_config[2].InitSingle(hw.GetPin(17));//knob 3
 220:main.cpp      **** 	hw.adc.Init(adc_config, 3);
 2234              		.loc 11 220 13 view .LVU605
 2235 002c 0B4C     		ldr	r4, .L171
ARM GAS  C:\Users\galla\AppData\Local\Temp\ccOJAY1x.s 			page 69


 218:main.cpp      ****     adc_config[1].InitSingle(hw.GetPin(16));//knob 2
 2236              		.loc 11 218 29 view .LVU606
 2237 002e FFF7FEFF 		bl	_ZN5daisy16AdcChannelConfig10InitSingleE12dsy_gpio_pinNS0_15ConversionSpeedE
 2238              	.LVL150:
 219:main.cpp      ****     adc_config[2].InitSingle(hw.GetPin(17));//knob 3
 2239              		.loc 11 219 5 is_stmt 1 view .LVU607
 219:main.cpp      ****     adc_config[2].InitSingle(hw.GetPin(17));//knob 3
 2240              		.loc 11 219 29 is_stmt 0 view .LVU608
 2241 0032 1120     		movs	r0, #17
 2242 0034 FFF7FEFF 		bl	_ZN5daisy9DaisySeed6GetPinEh
 2243              	.LVL151:
 2244 0038 ADF80C00 		strh	r0, [sp, #12]	@ movhi
 2245 003c 0399     		ldr	r1, [sp, #12]
 2246 003e 0DA8     		add	r0, sp, #52
 2247 0040 0222     		movs	r2, #2
 2248 0042 FFF7FEFF 		bl	_ZN5daisy16AdcChannelConfig10InitSingleE12dsy_gpio_pinNS0_15ConversionSpeedE
 2249              	.LVL152:
 2250              		.loc 11 220 2 is_stmt 1 view .LVU609
 2251              		.loc 11 220 13 is_stmt 0 view .LVU610
 2252 0046 0423     		movs	r3, #4
 2253 0048 0322     		movs	r2, #3
 2254 004a 04A9     		add	r1, sp, #16
 2255 004c 2046     		mov	r0, r4
 2256 004e FFF7FEFF 		bl	_ZN5daisy9AdcHandle4InitEPNS_16AdcChannelConfigEjNS0_12OverSamplingE
 2257              	.LVL153:
 221:main.cpp      **** 	hw.adc.Start();
 2258              		.loc 11 221 2 is_stmt 1 view .LVU611
 2259              		.loc 11 221 14 is_stmt 0 view .LVU612
 2260 0052 2046     		mov	r0, r4
 2261 0054 FFF7FEFF 		bl	_ZN5daisy9AdcHandle5StartEv
 2262              	.LVL154:
 222:main.cpp      **** }
 2263              		.loc 11 222 1 view .LVU613
 2264 0058 12B0     		add	sp, sp, #72
 2265              		.cfi_def_cfa_offset 8
 2266              		@ sp needed
 2267 005a 10BD     		pop	{r4, pc}
 2268              	.L172:
 2269              		.align	2
 2270              	.L171:
 2271 005c 18000000 		.word	.LANCHOR9+24
 2272              		.cfi_endproc
 2273              	.LFE4745:
 2275              		.section	.text.startup.main,"ax",%progbits
 2276              		.align	1
 2277              		.p2align 2,,3
 2278              		.global	main
 2279              		.syntax unified
 2280              		.thumb
 2281              		.thumb_func
 2282              		.fpu fpv5-d16
 2284              	main:
 2285              	.LFB4746:
 223:main.cpp      **** 
 224:main.cpp      **** int main(void) {
 2286              		.loc 11 224 16 is_stmt 1 view -0
 2287              		.cfi_startproc
ARM GAS  C:\Users\galla\AppData\Local\Temp\ccOJAY1x.s 			page 70


 2288              		@ Volatile: function does not return.
 2289              		@ args = 0, pretend = 0, frame = 72
 2290              		@ frame_needed = 0, uses_anonymous_args = 0
 225:main.cpp      **** 
 226:main.cpp      ****     hw.Configure();
 2291              		.loc 11 226 5 view .LVU615
 224:main.cpp      **** 
 2292              		.loc 11 224 16 is_stmt 0 view .LVU616
 2293 0000 80B5     		push	{r7, lr}
 2294              		.cfi_def_cfa_offset 8
 2295              		.cfi_offset 7, -8
 2296              		.cfi_offset 14, -4
 2297              		.loc 11 226 17 view .LVU617
 2298 0002 8048     		ldr	r0, .L187
 224:main.cpp      **** 
 2299              		.loc 11 224 16 view .LVU618
 2300 0004 94B0     		sub	sp, sp, #80
 2301              		.cfi_def_cfa_offset 88
 2302              		.loc 11 226 17 view .LVU619
 2303 0006 FFF7FEFF 		bl	_ZN5daisy9DaisySeed9ConfigureEv
 2304              	.LVL155:
 227:main.cpp      ****     hw.Init();
 2305              		.loc 11 227 5 is_stmt 1 view .LVU620
 2306              		.loc 11 227 12 is_stmt 0 view .LVU621
 2307 000a 0021     		movs	r1, #0
 2308 000c 7D48     		ldr	r0, .L187
 228:main.cpp      ****     hw.SetAudioSampleRate(SaiHandle::Config::SampleRate::SAI_96KHZ);
 229:main.cpp      ****     hw.SetAudioBlockSize(4);
 230:main.cpp      **** 
 231:main.cpp      ****     InitializeADC();
 232:main.cpp      **** 
 233:main.cpp      ****     bmBP.Init();
 234:main.cpp      ****     bmHigh.Init();
 235:main.cpp      ****     bmLow.Init();
 236:main.cpp      **** 
 237:main.cpp      ****     hmHP.Init();
 238:main.cpp      **** 
 239:main.cpp      ****     stage1.Init();
 240:main.cpp      ****     stage1.setParams(20, 300, 0.5);//0.707
 241:main.cpp      ****     stage1.setGain(-15);
 242:main.cpp      **** 
 243:main.cpp      ****     stage2.Init();
 244:main.cpp      ****     stage2.setParams(72, 300, 0.5);//1.707
 245:main.cpp      **** 
 246:main.cpp      ****     stage3.Init();
 247:main.cpp      ****     stage3.setParams(220, 300, 0.5);//1
 248:main.cpp      **** 
 249:main.cpp      ****     stage4.Init();
 250:main.cpp      ****     stage4.setParams(1000, 300, 0.5);//1.707
 251:main.cpp      **** 
 252:main.cpp      ****     stage5.Init();
 253:main.cpp      ****     stage5.setParams(1500, 300, 0.5);//1.707
 254:main.cpp      **** 
 255:main.cpp      ****     tstone.Init();
 256:main.cpp      ****     tsHP.Init();
 257:main.cpp      ****     HP1.Init();
 258:main.cpp      ****     HP2.Init();
ARM GAS  C:\Users\galla\AppData\Local\Temp\ccOJAY1x.s 			page 71


 259:main.cpp      ****     HP3.Init();
 260:main.cpp      ****     HP4.Init();
 261:main.cpp      **** 
 262:main.cpp      ****     Switch button1;
 263:main.cpp      ****     button1.Init(seed::D0, 1000);
 2309              		.loc 11 263 17 view .LVU622
 2310 000e 0127     		movs	r7, #1
 227:main.cpp      ****     hw.Init();
 2311              		.loc 11 227 12 view .LVU623
 2312 0010 FFF7FEFF 		bl	_ZN5daisy9DaisySeed4InitEb
 2313              	.LVL156:
 228:main.cpp      ****     hw.SetAudioSampleRate(SaiHandle::Config::SampleRate::SAI_96KHZ);
 2314              		.loc 11 228 5 is_stmt 1 view .LVU624
 228:main.cpp      ****     hw.SetAudioSampleRate(SaiHandle::Config::SampleRate::SAI_96KHZ);
 2315              		.loc 11 228 26 is_stmt 0 view .LVU625
 2316 0014 0421     		movs	r1, #4
 2317 0016 7B48     		ldr	r0, .L187
 2318              	.LBB352:
 2319              	.LBB353:
 2320              		.file 14 "../../libDaisy/src/hid/switch3.h"
   1:../../libDaisy/src/hid/switch3.h **** #pragma once
   2:../../libDaisy/src/hid/switch3.h **** #include "daisy_core.h"
   3:../../libDaisy/src/hid/switch3.h **** #include "per/gpio.h"
   4:../../libDaisy/src/hid/switch3.h **** 
   5:../../libDaisy/src/hid/switch3.h **** namespace daisy
   6:../../libDaisy/src/hid/switch3.h **** {
   7:../../libDaisy/src/hid/switch3.h **** class Switch3
   8:../../libDaisy/src/hid/switch3.h **** {
   9:../../libDaisy/src/hid/switch3.h ****   public:
  10:../../libDaisy/src/hid/switch3.h ****     enum
  11:../../libDaisy/src/hid/switch3.h ****     {
  12:../../libDaisy/src/hid/switch3.h ****         POS_CENTER = 0,
  13:../../libDaisy/src/hid/switch3.h ****         POS_LEFT   = 1,
  14:../../libDaisy/src/hid/switch3.h ****         POS_UP     = 1,
  15:../../libDaisy/src/hid/switch3.h ****         POS_RIGHT  = 2,
  16:../../libDaisy/src/hid/switch3.h ****         POS_DOWN   = 2,
  17:../../libDaisy/src/hid/switch3.h ****     };
  18:../../libDaisy/src/hid/switch3.h **** 
  19:../../libDaisy/src/hid/switch3.h **** 
  20:../../libDaisy/src/hid/switch3.h ****     Switch3() {}
  21:../../libDaisy/src/hid/switch3.h ****     ~Switch3() {}
  22:../../libDaisy/src/hid/switch3.h **** 
  23:../../libDaisy/src/hid/switch3.h ****     void Init(dsy_gpio_pin pina, dsy_gpio_pin pinb)
  24:../../libDaisy/src/hid/switch3.h ****     {
  25:../../libDaisy/src/hid/switch3.h ****         pina_gpio_.pin  = pina;
  26:../../libDaisy/src/hid/switch3.h ****         pina_gpio_.mode = DSY_GPIO_MODE_INPUT;
 2321              		.loc 14 26 25 view .LVU626
 2322 0018 0024     		movs	r4, #0
 2323              	.LBE353:
 2324              	.LBE352:
 228:main.cpp      ****     hw.SetAudioSampleRate(SaiHandle::Config::SampleRate::SAI_96KHZ);
 2325              		.loc 11 228 26 view .LVU627
 2326 001a FFF7FEFF 		bl	_ZN5daisy9DaisySeed18SetAudioSampleRateENS_9SaiHandle6Config10SampleRateE
 2327              	.LVL157:
 229:main.cpp      **** 
 2328              		.loc 11 229 5 is_stmt 1 view .LVU628
 229:main.cpp      **** 
ARM GAS  C:\Users\galla\AppData\Local\Temp\ccOJAY1x.s 			page 72


 2329              		.loc 11 229 25 is_stmt 0 view .LVU629
 2330 001e 0421     		movs	r1, #4
 2331 0020 7848     		ldr	r0, .L187
 2332              	.LBB356:
 2333              	.LBB354:
  25:../../libDaisy/src/hid/switch3.h ****         pina_gpio_.mode = DSY_GPIO_MODE_INPUT;
 2334              		.loc 14 25 25 view .LVU630
 2335 0022 0625     		movs	r5, #6
 2336              	.LBE354:
 2337              	.LBE356:
 229:main.cpp      **** 
 2338              		.loc 11 229 25 view .LVU631
 2339 0024 FFF7FEFF 		bl	_ZN5daisy9DaisySeed17SetAudioBlockSizeEj
 2340              	.LVL158:
 231:main.cpp      **** 
 2341              		.loc 11 231 5 is_stmt 1 view .LVU632
 231:main.cpp      **** 
 2342              		.loc 11 231 18 is_stmt 0 view .LVU633
 2343 0028 FFF7FEFF 		bl	_Z13InitializeADCv
 2344              	.LVL159:
 233:main.cpp      ****     bmHigh.Init();
 2345              		.loc 11 233 5 is_stmt 1 view .LVU634
 233:main.cpp      ****     bmHigh.Init();
 2346              		.loc 11 233 14 is_stmt 0 view .LVU635
 2347 002c 7648     		ldr	r0, .L187+4
 2348 002e FFF7FEFF 		bl	_ZN6DistBP4InitEv
 2349              	.LVL160:
 234:main.cpp      ****     bmLow.Init();
 2350              		.loc 11 234 5 is_stmt 1 view .LVU636
 234:main.cpp      ****     bmLow.Init();
 2351              		.loc 11 234 16 is_stmt 0 view .LVU637
 2352 0032 7648     		ldr	r0, .L187+8
 2353 0034 FFF7FEFF 		bl	_ZN6BMhigh4InitEv
 2354              	.LVL161:
 235:main.cpp      **** 
 2355              		.loc 11 235 5 is_stmt 1 view .LVU638
 235:main.cpp      **** 
 2356              		.loc 11 235 15 is_stmt 0 view .LVU639
 2357 0038 7548     		ldr	r0, .L187+12
 2358 003a FFF7FEFF 		bl	_ZN5BMlow4InitEv
 2359              	.LVL162:
 237:main.cpp      **** 
 2360              		.loc 11 237 5 is_stmt 1 view .LVU640
 237:main.cpp      **** 
 2361              		.loc 11 237 14 is_stmt 0 view .LVU641
 2362 003e 7548     		ldr	r0, .L187+16
 2363 0040 FFF7FEFF 		bl	_ZN8DistHPHM4InitEv
 2364              	.LVL163:
 239:main.cpp      ****     stage1.setParams(20, 300, 0.5);//0.707
 2365              		.loc 11 239 5 is_stmt 1 view .LVU642
 239:main.cpp      ****     stage1.setParams(20, 300, 0.5);//0.707
 2366              		.loc 11 239 16 is_stmt 0 view .LVU643
 2367 0044 7448     		ldr	r0, .L187+20
 2368 0046 FFF7FEFF 		bl	_ZN6PeakEQ4InitEv
 2369              	.LVL164:
 240:main.cpp      ****     stage1.setGain(-15);
 2370              		.loc 11 240 5 is_stmt 1 view .LVU644
ARM GAS  C:\Users\galla\AppData\Local\Temp\ccOJAY1x.s 			page 73


 240:main.cpp      ****     stage1.setGain(-15);
 2371              		.loc 11 240 21 is_stmt 0 view .LVU645
 2372 004a B6EE001A 		vmov.f32	s2, #5.0e-1
 2373 004e DFED730A 		vldr.32	s1, .L187+24
 2374 0052 B3EE040A 		vmov.f32	s0, #2.0e+1
 2375 0056 7048     		ldr	r0, .L187+20
 2376 0058 FFF7FEFF 		bl	_ZN6PeakEQ9setParamsEfff
 2377              	.LVL165:
 241:main.cpp      **** 
 2378              		.loc 11 241 5 is_stmt 1 view .LVU646
 241:main.cpp      **** 
 2379              		.loc 11 241 19 is_stmt 0 view .LVU647
 2380 005c BAEE0E0A 		vmov.f32	s0, #-1.5e+1
 2381 0060 6D48     		ldr	r0, .L187+20
 2382 0062 FFF7FEFF 		bl	_ZN6PeakEQ7setGainEf
 2383              	.LVL166:
 243:main.cpp      ****     stage2.setParams(72, 300, 0.5);//1.707
 2384              		.loc 11 243 5 is_stmt 1 view .LVU648
 243:main.cpp      ****     stage2.setParams(72, 300, 0.5);//1.707
 2385              		.loc 11 243 16 is_stmt 0 view .LVU649
 2386 0066 6E48     		ldr	r0, .L187+28
 2387 0068 FFF7FEFF 		bl	_ZN6PeakEQ4InitEv
 2388              	.LVL167:
 244:main.cpp      **** 
 2389              		.loc 11 244 5 is_stmt 1 view .LVU650
 244:main.cpp      **** 
 2390              		.loc 11 244 21 is_stmt 0 view .LVU651
 2391 006c B6EE001A 		vmov.f32	s2, #5.0e-1
 2392 0070 DFED6A0A 		vldr.32	s1, .L187+24
 2393 0074 9FED6B0A 		vldr.32	s0, .L187+32
 2394 0078 6948     		ldr	r0, .L187+28
 2395 007a FFF7FEFF 		bl	_ZN6PeakEQ9setParamsEfff
 2396              	.LVL168:
 246:main.cpp      ****     stage3.setParams(220, 300, 0.5);//1
 2397              		.loc 11 246 5 is_stmt 1 view .LVU652
 246:main.cpp      ****     stage3.setParams(220, 300, 0.5);//1
 2398              		.loc 11 246 16 is_stmt 0 view .LVU653
 2399 007e 6A48     		ldr	r0, .L187+36
 2400 0080 FFF7FEFF 		bl	_ZN6PeakEQ4InitEv
 2401              	.LVL169:
 247:main.cpp      **** 
 2402              		.loc 11 247 5 is_stmt 1 view .LVU654
 247:main.cpp      **** 
 2403              		.loc 11 247 21 is_stmt 0 view .LVU655
 2404 0084 B6EE001A 		vmov.f32	s2, #5.0e-1
 2405 0088 DFED640A 		vldr.32	s1, .L187+24
 2406 008c 9FED670A 		vldr.32	s0, .L187+40
 2407 0090 6548     		ldr	r0, .L187+36
 2408 0092 FFF7FEFF 		bl	_ZN6PeakEQ9setParamsEfff
 2409              	.LVL170:
 249:main.cpp      ****     stage4.setParams(1000, 300, 0.5);//1.707
 2410              		.loc 11 249 5 is_stmt 1 view .LVU656
 249:main.cpp      ****     stage4.setParams(1000, 300, 0.5);//1.707
 2411              		.loc 11 249 16 is_stmt 0 view .LVU657
 2412 0096 6648     		ldr	r0, .L187+44
 2413 0098 FFF7FEFF 		bl	_ZN6PeakEQ4InitEv
 2414              	.LVL171:
ARM GAS  C:\Users\galla\AppData\Local\Temp\ccOJAY1x.s 			page 74


 250:main.cpp      **** 
 2415              		.loc 11 250 5 is_stmt 1 view .LVU658
 250:main.cpp      **** 
 2416              		.loc 11 250 21 is_stmt 0 view .LVU659
 2417 009c B6EE001A 		vmov.f32	s2, #5.0e-1
 2418 00a0 DFED5E0A 		vldr.32	s1, .L187+24
 2419 00a4 9FED630A 		vldr.32	s0, .L187+48
 2420 00a8 6148     		ldr	r0, .L187+44
 2421 00aa FFF7FEFF 		bl	_ZN6PeakEQ9setParamsEfff
 2422              	.LVL172:
 252:main.cpp      ****     stage5.setParams(1500, 300, 0.5);//1.707
 2423              		.loc 11 252 5 is_stmt 1 view .LVU660
 252:main.cpp      ****     stage5.setParams(1500, 300, 0.5);//1.707
 2424              		.loc 11 252 16 is_stmt 0 view .LVU661
 2425 00ae 6248     		ldr	r0, .L187+52
 2426 00b0 FFF7FEFF 		bl	_ZN6PeakEQ4InitEv
 2427              	.LVL173:
 253:main.cpp      **** 
 2428              		.loc 11 253 5 is_stmt 1 view .LVU662
 253:main.cpp      **** 
 2429              		.loc 11 253 21 is_stmt 0 view .LVU663
 2430 00b4 B6EE001A 		vmov.f32	s2, #5.0e-1
 2431 00b8 DFED580A 		vldr.32	s1, .L187+24
 2432 00bc 9FED5F0A 		vldr.32	s0, .L187+56
 2433 00c0 5D48     		ldr	r0, .L187+52
 2434 00c2 FFF7FEFF 		bl	_ZN6PeakEQ9setParamsEfff
 2435              	.LVL174:
 255:main.cpp      ****     tsHP.Init();
 2436              		.loc 11 255 5 is_stmt 1 view .LVU664
 255:main.cpp      ****     tsHP.Init();
 2437              		.loc 11 255 16 is_stmt 0 view .LVU665
 2438 00c6 5E48     		ldr	r0, .L187+60
 2439 00c8 FFF7FEFF 		bl	_ZN6TSTone4InitEv
 2440              	.LVL175:
 256:main.cpp      ****     HP1.Init();
 2441              		.loc 11 256 5 is_stmt 1 view .LVU666
 256:main.cpp      ****     HP1.Init();
 2442              		.loc 11 256 14 is_stmt 0 view .LVU667
 2443 00cc 5D48     		ldr	r0, .L187+64
 2444 00ce FFF7FEFF 		bl	_ZN6DistHP4InitEv
 2445              	.LVL176:
 257:main.cpp      ****     HP2.Init();
 2446              		.loc 11 257 5 is_stmt 1 view .LVU668
 257:main.cpp      ****     HP2.Init();
 2447              		.loc 11 257 13 is_stmt 0 view .LVU669
 2448 00d2 5D48     		ldr	r0, .L187+68
 2449 00d4 FFF7FEFF 		bl	_ZN6DistHP4InitEv
 2450              	.LVL177:
 258:main.cpp      ****     HP3.Init();
 2451              		.loc 11 258 5 is_stmt 1 view .LVU670
 258:main.cpp      ****     HP3.Init();
 2452              		.loc 11 258 13 is_stmt 0 view .LVU671
 2453 00d8 5C48     		ldr	r0, .L187+72
 2454 00da FFF7FEFF 		bl	_ZN6DistHP4InitEv
 2455              	.LVL178:
 259:main.cpp      ****     HP4.Init();
 2456              		.loc 11 259 5 is_stmt 1 view .LVU672
ARM GAS  C:\Users\galla\AppData\Local\Temp\ccOJAY1x.s 			page 75


 259:main.cpp      ****     HP4.Init();
 2457              		.loc 11 259 13 is_stmt 0 view .LVU673
 2458 00de 5C48     		ldr	r0, .L187+76
 2459 00e0 FFF7FEFF 		bl	_ZN6DistHP4InitEv
 2460              	.LVL179:
 260:main.cpp      **** 
 2461              		.loc 11 260 5 is_stmt 1 view .LVU674
 260:main.cpp      **** 
 2462              		.loc 11 260 13 is_stmt 0 view .LVU675
 2463 00e4 5B48     		ldr	r0, .L187+80
 2464 00e6 FFF7FEFF 		bl	_ZN6DistHP4InitEv
 2465              	.LVL180:
 262:main.cpp      ****     button1.Init(seed::D0, 1000);
 2466              		.loc 11 262 5 is_stmt 1 view .LVU676
 2467              	.LBB357:
 2468              	.LBI357:
 2469              		.file 15 "../../libDaisy/src/hid/switch.h"
   1:../../libDaisy/src/hid/switch.h **** #pragma once
   2:../../libDaisy/src/hid/switch.h **** #ifndef DSY_SWITCH_H
   3:../../libDaisy/src/hid/switch.h **** #define DSY_SWITCH_H
   4:../../libDaisy/src/hid/switch.h **** #include "daisy_core.h"
   5:../../libDaisy/src/hid/switch.h **** #include "per/gpio.h"
   6:../../libDaisy/src/hid/switch.h **** #include "sys/system.h"
   7:../../libDaisy/src/hid/switch.h **** 
   8:../../libDaisy/src/hid/switch.h **** namespace daisy
   9:../../libDaisy/src/hid/switch.h **** {
  10:../../libDaisy/src/hid/switch.h **** /** 
  11:../../libDaisy/src/hid/switch.h ****     Generic Class for handling momentary/latching switches \n 
  12:../../libDaisy/src/hid/switch.h ****     Inspired/influenced by Mutable Instruments (pichenettes) Switch classes
  13:../../libDaisy/src/hid/switch.h ****     @author Stephen Hensley
  14:../../libDaisy/src/hid/switch.h ****     @date December 2019
  15:../../libDaisy/src/hid/switch.h ****     @ingroup controls
  16:../../libDaisy/src/hid/switch.h **** */
  17:../../libDaisy/src/hid/switch.h **** class Switch
  18:../../libDaisy/src/hid/switch.h **** {
  19:../../libDaisy/src/hid/switch.h ****   public:
  20:../../libDaisy/src/hid/switch.h ****     /** Specifies the expected behavior of the switch */
  21:../../libDaisy/src/hid/switch.h ****     enum Type
  22:../../libDaisy/src/hid/switch.h ****     {
  23:../../libDaisy/src/hid/switch.h ****         TYPE_TOGGLE,    /**< & */
  24:../../libDaisy/src/hid/switch.h ****         TYPE_MOMENTARY, /**< & */
  25:../../libDaisy/src/hid/switch.h ****     };
  26:../../libDaisy/src/hid/switch.h ****     /** Specifies whether the pressed is HIGH or LOW. */
  27:../../libDaisy/src/hid/switch.h ****     enum Polarity
  28:../../libDaisy/src/hid/switch.h ****     {
  29:../../libDaisy/src/hid/switch.h ****         POLARITY_NORMAL,   /**< & */
  30:../../libDaisy/src/hid/switch.h ****         POLARITY_INVERTED, /**< & */
  31:../../libDaisy/src/hid/switch.h ****     };
  32:../../libDaisy/src/hid/switch.h **** 
  33:../../libDaisy/src/hid/switch.h ****     /** Specifies whether to use built-in Pull Up/Down resistors to hold button at a given state wh
  34:../../libDaisy/src/hid/switch.h ****     enum Pull
  35:../../libDaisy/src/hid/switch.h ****     {
  36:../../libDaisy/src/hid/switch.h ****         PULL_UP,   /**< & */
  37:../../libDaisy/src/hid/switch.h ****         PULL_DOWN, /**< & */
  38:../../libDaisy/src/hid/switch.h ****         PULL_NONE, /**< & */
  39:../../libDaisy/src/hid/switch.h ****     };
  40:../../libDaisy/src/hid/switch.h **** 
ARM GAS  C:\Users\galla\AppData\Local\Temp\ccOJAY1x.s 			page 76


  41:../../libDaisy/src/hid/switch.h ****     Switch() {}
 2470              		.loc 15 41 5 view .LVU677
 2471              		.loc 15 41 5 is_stmt 0 view .LVU678
 2472              	.LBE357:
 2473              		.loc 11 263 5 is_stmt 1 view .LVU679
 2474              		.loc 11 263 17 is_stmt 0 view .LVU680
 2475 00ea 0C23     		movs	r3, #12
 2476 00ec 8DF80C70 		strb	r7, [sp, #12]
 2477 00f0 06A8     		add	r0, sp, #24
 2478 00f2 8DF80D30 		strb	r3, [sp, #13]
 2479 00f6 9FED4F0A 		vldr.32	s0, .L187+48
 2480 00fa 0399     		ldr	r1, [sp, #12]
 2481 00fc FFF7FEFF 		bl	_ZN5daisy6Switch4InitE12dsy_gpio_pinf
 2482              	.LVL181:
 264:main.cpp      **** 
 265:main.cpp      ****     // Switch latching;
 266:main.cpp      ****     // latching.Init(Seed::D0); // FOR LATCHING SWITCHES
 267:main.cpp      **** 
 268:main.cpp      ****     Switch3 toggle;
 2483              		.loc 11 268 5 is_stmt 1 view .LVU681
 2484              	.LBB358:
 2485              	.LBI358:
  20:../../libDaisy/src/hid/switch3.h ****     ~Switch3() {}
 2486              		.loc 14 20 5 view .LVU682
  20:../../libDaisy/src/hid/switch3.h ****     ~Switch3() {}
 2487              		.loc 14 20 5 is_stmt 0 view .LVU683
 2488              	.LBE358:
 269:main.cpp      ****     toggle.Init(seed::D7, seed::D8);
 2489              		.loc 11 269 5 is_stmt 1 view .LVU684
 2490              	.LBB359:
 2491              	.LBI352:
  23:../../libDaisy/src/hid/switch3.h ****     {
 2492              		.loc 14 23 10 view .LVU685
 2493              	.LBB355:
  25:../../libDaisy/src/hid/switch3.h ****         pina_gpio_.mode = DSY_GPIO_MODE_INPUT;
 2494              		.loc 14 25 9 view .LVU686
  25:../../libDaisy/src/hid/switch3.h ****         pina_gpio_.mode = DSY_GPIO_MODE_INPUT;
 2495              		.loc 14 25 25 is_stmt 0 view .LVU687
 2496 0100 0A23     		movs	r3, #10
  27:../../libDaisy/src/hid/switch3.h ****         pina_gpio_.pull = DSY_GPIO_PULLUP;
  28:../../libDaisy/src/hid/switch3.h ****         dsy_gpio_init(&pina_gpio_);
 2497              		.loc 14 28 22 view .LVU688
 2498 0102 04A8     		add	r0, sp, #16
 2499              	.LVL182:
  25:../../libDaisy/src/hid/switch3.h ****         pina_gpio_.mode = DSY_GPIO_MODE_INPUT;
 2500              		.loc 14 25 25 view .LVU689
 2501 0104 8DF81050 		strb	r5, [sp, #16]
 2502 0108 8DF81130 		strb	r3, [sp, #17]
  26:../../libDaisy/src/hid/switch3.h ****         pina_gpio_.pull = DSY_GPIO_PULLUP;
 2503              		.loc 14 26 9 is_stmt 1 view .LVU690
  27:../../libDaisy/src/hid/switch3.h ****         pina_gpio_.pull = DSY_GPIO_PULLUP;
 2504              		.loc 14 27 25 is_stmt 0 view .LVU691
 2505 010c 8DF81370 		strb	r7, [sp, #19]
  26:../../libDaisy/src/hid/switch3.h ****         pina_gpio_.pull = DSY_GPIO_PULLUP;
 2506              		.loc 14 26 25 view .LVU692
 2507 0110 8DF81240 		strb	r4, [sp, #18]
  27:../../libDaisy/src/hid/switch3.h ****         pina_gpio_.pull = DSY_GPIO_PULLUP;
ARM GAS  C:\Users\galla\AppData\Local\Temp\ccOJAY1x.s 			page 77


 2508              		.loc 14 27 9 is_stmt 1 view .LVU693
 2509              		.loc 14 28 9 view .LVU694
 2510              		.loc 14 28 22 is_stmt 0 view .LVU695
 2511 0114 FFF7FEFF 		bl	dsy_gpio_init
 2512              	.LVL183:
  29:../../libDaisy/src/hid/switch3.h **** 
  30:../../libDaisy/src/hid/switch3.h ****         pinb_gpio_.pin  = pinb;
 2513              		.loc 14 30 9 is_stmt 1 view .LVU696
 2514              		.loc 14 30 25 is_stmt 0 view .LVU697
 2515 0118 0B23     		movs	r3, #11
  31:../../libDaisy/src/hid/switch3.h ****         pinb_gpio_.mode = DSY_GPIO_MODE_INPUT;
  32:../../libDaisy/src/hid/switch3.h ****         pinb_gpio_.pull = DSY_GPIO_PULLUP;
  33:../../libDaisy/src/hid/switch3.h ****         dsy_gpio_init(&pinb_gpio_);
 2516              		.loc 14 33 22 view .LVU698
 2517 011a 05A8     		add	r0, sp, #20
  30:../../libDaisy/src/hid/switch3.h ****         pinb_gpio_.mode = DSY_GPIO_MODE_INPUT;
 2518              		.loc 14 30 25 view .LVU699
 2519 011c 8DF81450 		strb	r5, [sp, #20]
 2520 0120 8DF81530 		strb	r3, [sp, #21]
  31:../../libDaisy/src/hid/switch3.h ****         pinb_gpio_.mode = DSY_GPIO_MODE_INPUT;
 2521              		.loc 14 31 9 is_stmt 1 view .LVU700
  32:../../libDaisy/src/hid/switch3.h ****         dsy_gpio_init(&pinb_gpio_);
 2522              		.loc 14 32 9 view .LVU701
 2523              		.loc 14 33 9 view .LVU702
  31:../../libDaisy/src/hid/switch3.h ****         pinb_gpio_.mode = DSY_GPIO_MODE_INPUT;
 2524              		.loc 14 31 25 is_stmt 0 view .LVU703
 2525 0124 8DF81640 		strb	r4, [sp, #22]
  32:../../libDaisy/src/hid/switch3.h ****         dsy_gpio_init(&pinb_gpio_);
 2526              		.loc 14 32 25 view .LVU704
 2527 0128 8DF81770 		strb	r7, [sp, #23]
 2528              		.loc 14 33 22 view .LVU705
 2529 012c FFF7FEFF 		bl	dsy_gpio_init
 2530              	.LVL184:
 2531              		.loc 14 33 22 view .LVU706
 2532              	.LBE355:
 2533              	.LBE359:
 270:main.cpp      **** 
 271:main.cpp      ****     GPIO sw, led;
 2534              		.loc 11 271 5 is_stmt 1 view .LVU707
 2535              	.LBB360:
 2536              	.LBI360:
 2537              		.file 16 "../../libDaisy/src/per/gpio.h"
   1:../../libDaisy/src/per/gpio.h **** #pragma once
   2:../../libDaisy/src/per/gpio.h **** #ifndef DSY_GPIO_H
   3:../../libDaisy/src/per/gpio.h **** #define DSY_GPIO_H
   4:../../libDaisy/src/per/gpio.h **** #include "daisy_core.h"
   5:../../libDaisy/src/per/gpio.h **** 
   6:../../libDaisy/src/per/gpio.h **** #ifdef __cplusplus
   7:../../libDaisy/src/per/gpio.h **** 
   8:../../libDaisy/src/per/gpio.h **** namespace daisy
   9:../../libDaisy/src/per/gpio.h **** {
  10:../../libDaisy/src/per/gpio.h **** /** @brief General Purpose I/O control 
  11:../../libDaisy/src/per/gpio.h ****  *  @details peripheral control over a single GPIO
  12:../../libDaisy/src/per/gpio.h ****  *  @ingroup peripheral
  13:../../libDaisy/src/per/gpio.h ****  *   
  14:../../libDaisy/src/per/gpio.h ****  *  Button Input (with internal Pullup resistor)
  15:../../libDaisy/src/per/gpio.h ****  *  @include GPIO_Input.cpp 
ARM GAS  C:\Users\galla\AppData\Local\Temp\ccOJAY1x.s 			page 78


  16:../../libDaisy/src/per/gpio.h ****  * 
  17:../../libDaisy/src/per/gpio.h ****  *  Output Example (perfect for blinking an LED)
  18:../../libDaisy/src/per/gpio.h ****  *  @include GPIO_Output.cpp
  19:../../libDaisy/src/per/gpio.h ****  * 
  20:../../libDaisy/src/per/gpio.h **** */
  21:../../libDaisy/src/per/gpio.h **** class GPIO
  22:../../libDaisy/src/per/gpio.h **** {
  23:../../libDaisy/src/per/gpio.h ****   public:
  24:../../libDaisy/src/per/gpio.h ****     /** @brief Mode of operation for the specified GPIO */
  25:../../libDaisy/src/per/gpio.h ****     enum class Mode
  26:../../libDaisy/src/per/gpio.h ****     {
  27:../../libDaisy/src/per/gpio.h ****         INPUT,     /**< Input for reading state of pin */
  28:../../libDaisy/src/per/gpio.h ****         OUTPUT,    /**< Output w/ push-pull configuration */
  29:../../libDaisy/src/per/gpio.h ****         OUTPUT_OD, /**< Output w/ open-drain configuration */
  30:../../libDaisy/src/per/gpio.h ****         ANALOG,    /**< Analog for connection to ADC or DAC peripheral */
  31:../../libDaisy/src/per/gpio.h ****     };
  32:../../libDaisy/src/per/gpio.h **** 
  33:../../libDaisy/src/per/gpio.h ****     /** @brief Configures whether an internal Pull up or Pull down resistor is used. 
  34:../../libDaisy/src/per/gpio.h ****      *  
  35:../../libDaisy/src/per/gpio.h ****      * Internal Pull up/down resistors are typically 40k ohms, and will be between
  36:../../libDaisy/src/per/gpio.h ****      * 30k and 50k
  37:../../libDaisy/src/per/gpio.h ****      * 
  38:../../libDaisy/src/per/gpio.h ****      * When the Pin is configured in Analog mode, the pull up/down resistors are
  39:../../libDaisy/src/per/gpio.h ****      * disabled by hardware. 
  40:../../libDaisy/src/per/gpio.h ****      */
  41:../../libDaisy/src/per/gpio.h ****     enum class Pull
  42:../../libDaisy/src/per/gpio.h ****     {
  43:../../libDaisy/src/per/gpio.h ****         NOPULL,   /**< No pull up resistor */
  44:../../libDaisy/src/per/gpio.h ****         PULLUP,   /**< Internal pull up enabled */
  45:../../libDaisy/src/per/gpio.h ****         PULLDOWN, /**< Internal pull down enabled*/
  46:../../libDaisy/src/per/gpio.h ****     };
  47:../../libDaisy/src/per/gpio.h **** 
  48:../../libDaisy/src/per/gpio.h ****     /** @brief Output speed controls the drive strength, and slew rate of the pin */
  49:../../libDaisy/src/per/gpio.h ****     enum class Speed
  50:../../libDaisy/src/per/gpio.h ****     {
  51:../../libDaisy/src/per/gpio.h ****         LOW,
  52:../../libDaisy/src/per/gpio.h ****         MEDIUM,
  53:../../libDaisy/src/per/gpio.h ****         HIGH,
  54:../../libDaisy/src/per/gpio.h ****         VERY_HIGH,
  55:../../libDaisy/src/per/gpio.h ****     };
  56:../../libDaisy/src/per/gpio.h **** 
  57:../../libDaisy/src/per/gpio.h ****     /** @brief Configuration for a given GPIO */
  58:../../libDaisy/src/per/gpio.h ****     struct Config
  59:../../libDaisy/src/per/gpio.h ****     {
  60:../../libDaisy/src/per/gpio.h ****         Pin   pin;
  61:../../libDaisy/src/per/gpio.h ****         Mode  mode;
  62:../../libDaisy/src/per/gpio.h ****         Pull  pull;
  63:../../libDaisy/src/per/gpio.h ****         Speed speed;
  64:../../libDaisy/src/per/gpio.h **** 
  65:../../libDaisy/src/per/gpio.h ****         /** Constructor with no arguments will prepare an invalid GPIO set as
  66:../../libDaisy/src/per/gpio.h ****          *  an input, with no pullup. 
  67:../../libDaisy/src/per/gpio.h ****          */
  68:../../libDaisy/src/per/gpio.h ****         Config()
  69:../../libDaisy/src/per/gpio.h ****         : pin(), mode(Mode::INPUT), pull(Pull::NOPULL), speed(Speed::LOW)
  70:../../libDaisy/src/per/gpio.h ****         {
  71:../../libDaisy/src/per/gpio.h ****         }
  72:../../libDaisy/src/per/gpio.h ****     };
ARM GAS  C:\Users\galla\AppData\Local\Temp\ccOJAY1x.s 			page 79


  73:../../libDaisy/src/per/gpio.h **** 
  74:../../libDaisy/src/per/gpio.h ****     GPIO() {}
 2538              		.loc 16 74 5 view .LVU708
 2539              	.LBB361:
 2540              	.LBB362:
 2541              	.LBI362:
  68:../../libDaisy/src/per/gpio.h ****         : pin(), mode(Mode::INPUT), pull(Pull::NOPULL), speed(Speed::LOW)
 2542              		.loc 16 68 9 view .LVU709
 2543              	.LBB363:
 2544              	.LBB364:
 2545              	.LBB365:
 2546              	.LBI365:
 2547              		.file 17 "../../libDaisy/src/daisy_core.h"
   1:../../libDaisy/src/daisy_core.h **** #pragma once
   2:../../libDaisy/src/daisy_core.h **** #ifndef DSY_CORE_HW_H
   3:../../libDaisy/src/daisy_core.h **** #define DSY_CORE_HW_H /**< & */
   4:../../libDaisy/src/daisy_core.h **** #include <stdint.h>
   5:../../libDaisy/src/daisy_core.h **** #include <stdlib.h>
   6:../../libDaisy/src/daisy_core.h **** 
   7:../../libDaisy/src/daisy_core.h **** #if defined(_MSC_VER)
   8:../../libDaisy/src/daisy_core.h **** #define FORCE_INLINE __forceinline /**< & */
   9:../../libDaisy/src/daisy_core.h **** #elif defined(__clang__)
  10:../../libDaisy/src/daisy_core.h **** #define FORCE_INLINE inline __attribute__((always_inline)) /**< & */
  11:../../libDaisy/src/daisy_core.h **** #pragma clang diagnostic ignored "-Wduplicate-decl-specifier"
  12:../../libDaisy/src/daisy_core.h **** #elif defined(__GNUC__)
  13:../../libDaisy/src/daisy_core.h **** #define FORCE_INLINE inline __attribute__((always_inline)) /**< & */
  14:../../libDaisy/src/daisy_core.h **** #else
  15:../../libDaisy/src/daisy_core.h **** #error unknown compiler
  16:../../libDaisy/src/daisy_core.h **** #endif
  17:../../libDaisy/src/daisy_core.h **** 
  18:../../libDaisy/src/daisy_core.h **** /** @addtogroup utility
  19:../../libDaisy/src/daisy_core.h ****     @{
  20:../../libDaisy/src/daisy_core.h **** */
  21:../../libDaisy/src/daisy_core.h **** 
  22:../../libDaisy/src/daisy_core.h **** /** Macro for area of memory that is configured as cacheless
  23:../../libDaisy/src/daisy_core.h **** This should be used primarily for DMA buffers, and the like.
  24:../../libDaisy/src/daisy_core.h **** */
  25:../../libDaisy/src/daisy_core.h **** #define DMA_BUFFER_MEM_SECTION __attribute__((section(".sram1_bss")))
  26:../../libDaisy/src/daisy_core.h **** /** 
  27:../../libDaisy/src/daisy_core.h **** THE DTCM RAM section is also non-cached. However, is not suitable 
  28:../../libDaisy/src/daisy_core.h **** for DMA transfers. Performance is on par with internal SRAM w/ 
  29:../../libDaisy/src/daisy_core.h **** cache enabled.
  30:../../libDaisy/src/daisy_core.h **** */
  31:../../libDaisy/src/daisy_core.h **** #define DTCM_MEM_SECTION __attribute__((section(".dtcmram_bss")))
  32:../../libDaisy/src/daisy_core.h **** 
  33:../../libDaisy/src/daisy_core.h **** #define FBIPMAX 0.999985f             /**< close to 1.0f-LSB at 16 bit */
  34:../../libDaisy/src/daisy_core.h **** #define FBIPMIN (-FBIPMAX)            /**< - (1 - LSB) */
  35:../../libDaisy/src/daisy_core.h **** #define U82F_SCALE 0.0078740f         /**< 1 / 127 */
  36:../../libDaisy/src/daisy_core.h **** #define F2U8_SCALE 127.0f             /**< 128 - 1 */
  37:../../libDaisy/src/daisy_core.h **** #define S82F_SCALE 0.0078125f         /**< 1 / (2**7) */
  38:../../libDaisy/src/daisy_core.h **** #define F2S8_SCALE 127.0f             /**< (2 ** 7) - 1 */
  39:../../libDaisy/src/daisy_core.h **** #define S162F_SCALE 3.0517578125e-05f /**< 1 / (2** 15) */
  40:../../libDaisy/src/daisy_core.h **** #define F2S16_SCALE 32767.0f          /**< (2 ** 15) - 1 */
  41:../../libDaisy/src/daisy_core.h **** #define F2S24_SCALE 8388608.0f        /**< 2 ** 23 */
  42:../../libDaisy/src/daisy_core.h **** #define S242F_SCALE 1.192092896e-07f  /**< 1 / (2 ** 23) */
  43:../../libDaisy/src/daisy_core.h **** #define S24SIGN 0x800000              /**< 2 ** 23 */
  44:../../libDaisy/src/daisy_core.h **** #define S322F_SCALE 4.6566129e-10f    /**< 1 / (2** 31) */
ARM GAS  C:\Users\galla\AppData\Local\Temp\ccOJAY1x.s 			page 80


  45:../../libDaisy/src/daisy_core.h **** #define F2S32_SCALE 2147483647.f      /**< (2 ** 31) - 1 */
  46:../../libDaisy/src/daisy_core.h **** 
  47:../../libDaisy/src/daisy_core.h **** 
  48:../../libDaisy/src/daisy_core.h **** /** shorthand macro for simplifying the reading of the left 
  49:../../libDaisy/src/daisy_core.h ****  *  channel of a non-interleaved output buffer named out */
  50:../../libDaisy/src/daisy_core.h **** #define OUT_L out[0]
  51:../../libDaisy/src/daisy_core.h **** 
  52:../../libDaisy/src/daisy_core.h **** /** shorthand macro for simplifying the reading of the right 
  53:../../libDaisy/src/daisy_core.h ****  *  channel of a non-interleaved output buffer named out */
  54:../../libDaisy/src/daisy_core.h **** #define OUT_R out[1]
  55:../../libDaisy/src/daisy_core.h **** 
  56:../../libDaisy/src/daisy_core.h **** /** shorthand macro for simplifying the reading of the left 
  57:../../libDaisy/src/daisy_core.h ****  *  channel of a non-interleaved input buffer named in */
  58:../../libDaisy/src/daisy_core.h **** #define IN_L in[0]
  59:../../libDaisy/src/daisy_core.h **** 
  60:../../libDaisy/src/daisy_core.h **** /** shorthand macro for simplifying the reading of the right 
  61:../../libDaisy/src/daisy_core.h ****  *  channel of a non-interleaved input buffer named in */
  62:../../libDaisy/src/daisy_core.h **** #define IN_R in[1]
  63:../../libDaisy/src/daisy_core.h **** 
  64:../../libDaisy/src/daisy_core.h **** /** 
  65:../../libDaisy/src/daisy_core.h ****     Computes cube.
  66:../../libDaisy/src/daisy_core.h ****     \param x Number to be cubed
  67:../../libDaisy/src/daisy_core.h ****     \return x ^ 3
  68:../../libDaisy/src/daisy_core.h **** */
  69:../../libDaisy/src/daisy_core.h **** FORCE_INLINE float cube(float x)
  70:../../libDaisy/src/daisy_core.h **** {
  71:../../libDaisy/src/daisy_core.h ****     return (x * x) * x;
  72:../../libDaisy/src/daisy_core.h **** }
  73:../../libDaisy/src/daisy_core.h **** 
  74:../../libDaisy/src/daisy_core.h **** /** 
  75:../../libDaisy/src/daisy_core.h ****     Converts unsigned 8-bit to float
  76:../../libDaisy/src/daisy_core.h ****     \param x Number to be scaled.
  77:../../libDaisy/src/daisy_core.h ****     \return Scaled number.
  78:../../libDaisy/src/daisy_core.h **** */
  79:../../libDaisy/src/daisy_core.h **** FORCE_INLINE float u82f(uint8_t x)
  80:../../libDaisy/src/daisy_core.h **** {
  81:../../libDaisy/src/daisy_core.h ****     return ((float)x - 127.f) * U82F_SCALE;
  82:../../libDaisy/src/daisy_core.h **** }
  83:../../libDaisy/src/daisy_core.h **** 
  84:../../libDaisy/src/daisy_core.h **** /**
  85:../../libDaisy/src/daisy_core.h ****     Converts float to unsigned 8-bit
  86:../../libDaisy/src/daisy_core.h **** */
  87:../../libDaisy/src/daisy_core.h **** FORCE_INLINE uint8_t f2u8(float x)
  88:../../libDaisy/src/daisy_core.h **** {
  89:../../libDaisy/src/daisy_core.h ****     x = x <= FBIPMIN ? FBIPMIN : x;
  90:../../libDaisy/src/daisy_core.h ****     x = x >= FBIPMAX ? FBIPMAX : x;
  91:../../libDaisy/src/daisy_core.h ****     return (uint8_t)((x * F2U8_SCALE) + F2U8_SCALE);
  92:../../libDaisy/src/daisy_core.h **** }
  93:../../libDaisy/src/daisy_core.h **** 
  94:../../libDaisy/src/daisy_core.h **** 
  95:../../libDaisy/src/daisy_core.h **** /** 
  96:../../libDaisy/src/daisy_core.h ****     Converts Signed 8-bit to float
  97:../../libDaisy/src/daisy_core.h ****     \param x Number to be scaled.
  98:../../libDaisy/src/daisy_core.h ****     \return Scaled number.
  99:../../libDaisy/src/daisy_core.h **** */
 100:../../libDaisy/src/daisy_core.h **** FORCE_INLINE float s82f(int8_t x)
 101:../../libDaisy/src/daisy_core.h **** {
ARM GAS  C:\Users\galla\AppData\Local\Temp\ccOJAY1x.s 			page 81


 102:../../libDaisy/src/daisy_core.h ****     return (float)x * S82F_SCALE;
 103:../../libDaisy/src/daisy_core.h **** }
 104:../../libDaisy/src/daisy_core.h **** 
 105:../../libDaisy/src/daisy_core.h **** /**
 106:../../libDaisy/src/daisy_core.h ****     Converts float to Signed 8-bit
 107:../../libDaisy/src/daisy_core.h **** */
 108:../../libDaisy/src/daisy_core.h **** FORCE_INLINE int8_t f2s8(float x)
 109:../../libDaisy/src/daisy_core.h **** {
 110:../../libDaisy/src/daisy_core.h ****     x = x <= FBIPMIN ? FBIPMIN : x;
 111:../../libDaisy/src/daisy_core.h ****     x = x >= FBIPMAX ? FBIPMAX : x;
 112:../../libDaisy/src/daisy_core.h ****     return (int32_t)(x * F2S8_SCALE);
 113:../../libDaisy/src/daisy_core.h **** }
 114:../../libDaisy/src/daisy_core.h **** 
 115:../../libDaisy/src/daisy_core.h **** /** 
 116:../../libDaisy/src/daisy_core.h ****     Converts Signed 16-bit to float
 117:../../libDaisy/src/daisy_core.h ****     \param x Number to be scaled.
 118:../../libDaisy/src/daisy_core.h ****     \return Scaled number.
 119:../../libDaisy/src/daisy_core.h **** */
 120:../../libDaisy/src/daisy_core.h **** FORCE_INLINE float s162f(int16_t x)
 121:../../libDaisy/src/daisy_core.h **** {
 122:../../libDaisy/src/daisy_core.h ****     return (float)x * S162F_SCALE;
 123:../../libDaisy/src/daisy_core.h **** }
 124:../../libDaisy/src/daisy_core.h **** 
 125:../../libDaisy/src/daisy_core.h **** /**
 126:../../libDaisy/src/daisy_core.h ****     Converts float to Signed 16-bit
 127:../../libDaisy/src/daisy_core.h **** */
 128:../../libDaisy/src/daisy_core.h **** FORCE_INLINE int16_t f2s16(float x)
 129:../../libDaisy/src/daisy_core.h **** {
 130:../../libDaisy/src/daisy_core.h ****     x = x <= FBIPMIN ? FBIPMIN : x;
 131:../../libDaisy/src/daisy_core.h ****     x = x >= FBIPMAX ? FBIPMAX : x;
 132:../../libDaisy/src/daisy_core.h ****     return (int32_t)(x * F2S16_SCALE);
 133:../../libDaisy/src/daisy_core.h **** }
 134:../../libDaisy/src/daisy_core.h **** 
 135:../../libDaisy/src/daisy_core.h **** /**
 136:../../libDaisy/src/daisy_core.h ****     Converts Signed 24-bit to float
 137:../../libDaisy/src/daisy_core.h ****  */
 138:../../libDaisy/src/daisy_core.h **** FORCE_INLINE float s242f(int32_t x)
 139:../../libDaisy/src/daisy_core.h **** {
 140:../../libDaisy/src/daisy_core.h ****     x = (x ^ S24SIGN) - S24SIGN; //sign extend aka ((x<<8)>>8)
 141:../../libDaisy/src/daisy_core.h ****     return (float)x * S242F_SCALE;
 142:../../libDaisy/src/daisy_core.h **** }
 143:../../libDaisy/src/daisy_core.h **** /**
 144:../../libDaisy/src/daisy_core.h ****     Converts float to Signed 24-bit
 145:../../libDaisy/src/daisy_core.h ****  */
 146:../../libDaisy/src/daisy_core.h **** FORCE_INLINE int32_t f2s24(float x)
 147:../../libDaisy/src/daisy_core.h **** {
 148:../../libDaisy/src/daisy_core.h ****     x = x <= FBIPMIN ? FBIPMIN : x;
 149:../../libDaisy/src/daisy_core.h ****     x = x >= FBIPMAX ? FBIPMAX : x;
 150:../../libDaisy/src/daisy_core.h ****     return (int32_t)(x * F2S24_SCALE);
 151:../../libDaisy/src/daisy_core.h **** }
 152:../../libDaisy/src/daisy_core.h **** 
 153:../../libDaisy/src/daisy_core.h **** /**
 154:../../libDaisy/src/daisy_core.h ****     Converts Signed 32-bit to float
 155:../../libDaisy/src/daisy_core.h ****  */
 156:../../libDaisy/src/daisy_core.h **** FORCE_INLINE float s322f(int32_t x)
 157:../../libDaisy/src/daisy_core.h **** {
 158:../../libDaisy/src/daisy_core.h ****     return (float)x * S322F_SCALE;
ARM GAS  C:\Users\galla\AppData\Local\Temp\ccOJAY1x.s 			page 82


 159:../../libDaisy/src/daisy_core.h **** }
 160:../../libDaisy/src/daisy_core.h **** /**
 161:../../libDaisy/src/daisy_core.h ****     Converts float to Signed 24-bit
 162:../../libDaisy/src/daisy_core.h ****  */
 163:../../libDaisy/src/daisy_core.h **** FORCE_INLINE int32_t f2s32(float x)
 164:../../libDaisy/src/daisy_core.h **** {
 165:../../libDaisy/src/daisy_core.h ****     x = x <= FBIPMIN ? FBIPMIN : x;
 166:../../libDaisy/src/daisy_core.h ****     x = x >= FBIPMAX ? FBIPMAX : x;
 167:../../libDaisy/src/daisy_core.h ****     return (int32_t)(x * F2S32_SCALE);
 168:../../libDaisy/src/daisy_core.h **** }
 169:../../libDaisy/src/daisy_core.h **** 
 170:../../libDaisy/src/daisy_core.h **** 
 171:../../libDaisy/src/daisy_core.h **** /** Enums and a simple struct for defining a hardware pin on the MCU
 172:../../libDaisy/src/daisy_core.h ****  *  These correlate with the stm32 datasheet, and are used to configure
 173:../../libDaisy/src/daisy_core.h ****  *  the hardware.
 174:../../libDaisy/src/daisy_core.h ****  * 
 175:../../libDaisy/src/daisy_core.h ****  *  This along with the dsy_gpio_pin class should no longer be used.
 176:../../libDaisy/src/daisy_core.h ****  *  They are available for backwards compatability. 
 177:../../libDaisy/src/daisy_core.h ****  * 
 178:../../libDaisy/src/daisy_core.h ****  *  Please use GPIOPort enum and the Pin struct instead.
 179:../../libDaisy/src/daisy_core.h ****  */
